 edge_coreclr

 Timestamp is 5c4301b5 (Sat Jan 19 16:53:41 2019)

 Preferred load address is 0000000180000000

 Start         Length     Name                   Class
 0001:00000000 00000030H .text$di                CODE
 0001:00000030 0002a2a0H .text$mn                CODE
 0001:0002a2d0 00000020H .text$mn$00             CODE
 0001:0002a2f0 000028b0H .text$x                 CODE
 0001:0002cba0 00000138H .text$yd                CODE
 0002:00000000 00000898H .idata$5                DATA
 0002:00000898 00000010H .00cfg                  DATA
 0002:000008a8 00000008H .CRT$XCA                DATA
 0002:000008b0 00000008H .CRT$XCL                DATA
 0002:000008b8 00000018H .CRT$XCU                DATA
 0002:000008d0 00000008H .CRT$XCZ                DATA
 0002:000008d8 00000008H .CRT$XIA                DATA
 0002:000008e0 00000008H .CRT$XIC                DATA
 0002:000008e8 00000008H .CRT$XIZ                DATA
 0002:000008f0 00000008H .CRT$XLA                DATA
 0002:000008f8 00000008H .CRT$XLZ                DATA
 0002:00000900 00000008H .CRT$XPA                DATA
 0002:00000908 00000008H .CRT$XPZ                DATA
 0002:00000910 00000008H .CRT$XTA                DATA
 0002:00000918 00000008H .CRT$XTZ                DATA
 0002:00000920 00000000H .gfids$y                DATA
 0002:00000920 000085d0H .rdata                  DATA
 0002:00008ef0 00000030H .rdata$T                DATA
 0002:00008f20 000015c4H .rdata$r                DATA
 0002:0000a4e4 000003b4H .rdata$zzzdbg           DATA
 0002:0000a898 00000008H .rtc$IAA                DATA
 0002:0000a8a0 00000008H .rtc$IZZ                DATA
 0002:0000a8a8 00000008H .rtc$TAA                DATA
 0002:0000a8b0 00000008H .rtc$TZZ                DATA
 0002:0000a8b8 00000004H .tls                    DATA
 0002:0000a8bc 00000004H .tls$                   DATA
 0002:0000a8c0 00000010H .tls$ZZZ                DATA
 0002:0000a8d0 00005ca0H .xdata                  DATA
 0002:00010570 000002d0H .xdata$x                DATA
 0002:00010840 0000005cH .edata                  DATA
 0002:0001089c 000000dcH .idata$2                DATA
 0002:00010978 00000018H .idata$3                DATA
 0002:00010990 00000898H .idata$4                DATA
 0002:00011228 00002bceH .idata$6                DATA
 0003:00000000 00000150H .data                   DATA
 0003:00000150 00001170H .data$r                 DATA
 0003:000012c0 00000750H .bss                    DATA
 0004:00000000 0000231cH .pdata                  DATA
 0005:00000000 00000060H .rsrc$01                DATA
 0005:00000060 00000180H .rsrc$02                DATA

  Address         Publics by Value              Rva+Base               Lib:Object

 0000:00000000       __hybrid_code_map_count    0000000000000000     <absolute>
 0000:00000000       __hybrid_code_map          0000000000000000     <absolute>
 0000:00000000       __guard_iat_count          0000000000000000     <absolute>
 0000:00000000       __volatile_metadata        0000000000000000     <absolute>
 0000:00000000       __guard_longjmp_count      0000000000000000     <absolute>
 0000:00000000       __guard_longjmp_table      0000000000000000     <absolute>
 0000:00000000       __guard_iat_table          0000000000000000     <absolute>
 0000:00000000       __guard_fids_count         0000000000000000     <absolute>
 0000:00000000       ___safe_se_handler_count   0000000000000000     <absolute>
 0000:00000000       __enclave_config           0000000000000000     <absolute>
 0000:00000000       ___safe_se_handler_table   0000000000000000     <absolute>
 0000:00000000       __guard_fids_table         0000000000000000     <absolute>
 0000:00000000       __hybrid_auxiliary_iat     0000000000000000     <absolute>
 0000:00000000       __dynamic_value_reloc_table 0000000000000000     <absolute>
 0000:00000100       __guard_flags              0000000000000100     <absolute>
 0000:00000000       __ImageBase                0000000180000000     <linker-defined>
 0001:00000030       __local_stdio_printf_options 0000000180001030 f i v8synchronizationcontext.obj
 0001:00000040       printf                     0000000180001040 f i v8synchronizationcontext.obj
 0001:000000a0       ??1HandleScope@Nan@@QEAA@XZ 00000001800010a0 f i v8synchronizationcontext.obj
 0001:000000a0       ??1EscapableHandleScope@Nan@@QEAA@XZ 00000001800010a0 f i callbackhelper.obj
 0001:000000b0       ?continueOnV8Thread@@YAXPEAUuv_async_s@@H@Z 00000001800010b0 f   v8synchronizationcontext.obj
 0001:00000190       ?RegisterAction@V8SynchronizationContext@@SAPEAUuv_edge_async_s@@P6AXPEAX@Z0@Z 0000000180001190 f   v8synchronizationcontext.obj
 0001:000002a0       ?close_uv_edge_async_cb@@YAXPEAUuv_handle_s@@@Z 00000001800012a0 f   v8synchronizationcontext.obj
 0001:00000380       ?Call@Callback@Nan@@QEBA?AV?$Local@VValue@v8@@@v8@@HQEAV34@@Z 0000000180001380 f i callbackhelper.obj
 0001:00000490       ??1?$Persistent@VFunction@v8@@V?$NonCopyablePersistentTraits@VFunction@v8@@@2@@Nan@@QEAA@XZ 0000000180001490 f i callbackhelper.obj
 0001:000004b0       ??1?$_String_alloc@U?$_String_base_types@_WV?$allocator@_W@std@@@std@@@std@@QEAA@XZ 00000001800014b0 f   coreclrembedding.obj
 0001:000004b0       _guard_check_icall_nop     00000001800014b0 f   MSVCRT:guard_support.obj
 0001:000004c0       ?Initialize@CallbackHelper@@SAXXZ 00000001800014c0 f   callbackhelper.obj
 0001:00000680       ?initializeClrFunc@@YAXAEBV?$FunctionCallbackInfo@VValue@v8@@@Nan@@@Z 0000000180001680 f   edge.obj
 0001:00000690       ?init@@YAXV?$Local@VObject@v8@@@v8@@@Z 0000000180001690 f   edge.obj
 0001:000008e0       ??$New@VFunctionTemplate@v8@@@Nan@@YA?AV?$Local@VFunctionTemplate@v8@@@v8@@P6AXAEBV?$FunctionCallbackInfo@VValue@v8@@@0@@ZV?$Local@VValue@v8@@@2@@Z 00000001800018e0 f i edge.obj
 0001:00000a80       ??0deps_json_t@@QEAA@_NAEBV?$basic_string@_WU?$char_traits@_W@std@@V?$allocator@_W@2@@std@@AEBV?$unordered_map@V?$basic_string@_WU?$char_traits@_W@std@@V?$allocator@_W@2@@std@@V?$vector@V?$basic_string@_WU?$char_traits@_W@std@@V?$allocator@_W@2@@std@@V?$allocator@V?$basic_string@_WU?$char_traits@_W@std@@V?$allocator@_W@2@@std@@@2@@2@U?$hash@V?$basic_string@_WU?$char_traits@_W@std@@V?$allocator@_W@2@@std@@@2@U?$equal_to@V?$basic_string@_WU?$char_traits@_W@std@@V?$allocator@_W@2@@std@@@2@V?$allocator@U?$pair@$$CBV?$basic_string@_WU?$char_traits@_W@std@@V?$allocator@_W@2@@std@@V?$vector@V?$basic_string@_WU?$char_traits@_W@std@@V?$allocator@_W@2@@std@@V?$allocator@V?$basic_string@_WU?$char_traits@_W@std@@V?$allocator@_W@2@@std@@@2@@2@@std@@@2@@2@@Z 0000000180001a80 f i coreclrembedding.obj
 0001:00000bd0       ??1deps_assets_t@deps_json_t@@QEAA@XZ 0000000180001bd0 f i coreclrembedding.obj
 0001:00000be0       ??1rid_specific_assets_t@deps_json_t@@QEAA@XZ 0000000180001be0 f i coreclrembedding.obj
 0001:00000bf0       ??1?$unordered_map@V?$basic_string@_WU?$char_traits@_W@std@@V?$allocator@_W@2@@std@@HU?$hash@V?$basic_string@_WU?$char_traits@_W@std@@V?$allocator@_W@2@@std@@@2@U?$equal_to@V?$basic_string@_WU?$char_traits@_W@std@@V?$allocator@_W@2@@std@@@2@V?$allocator@U?$pair@$$CBV?$basic_string@_WU?$char_traits@_W@std@@V?$allocator@_W@2@@std@@H@std@@@2@@std@@QEAA@XZ 0000000180001bf0 f i coreclrembedding.obj
 0001:00000c00       ??1deps_json_t@@QEAA@XZ    0000000180001c00 f i coreclrembedding.obj
 0001:00000c70       ??1?$_Hash@V?$_Umap_traits@V?$basic_string@_WU?$char_traits@_W@std@@V?$allocator@_W@2@@std@@HV?$_Uhash_compare@V?$basic_string@_WU?$char_traits@_W@std@@V?$allocator@_W@2@@std@@U?$hash@V?$basic_string@_WU?$char_traits@_W@std@@V?$allocator@_W@2@@std@@@2@U?$equal_to@V?$basic_string@_WU?$char_traits@_W@std@@V?$allocator@_W@2@@std@@@2@@2@V?$allocator@U?$pair@$$CBV?$basic_string@_WU?$char_traits@_W@std@@V?$allocator@_W@2@@std@@H@std@@@2@$0A@@std@@@std@@QEAA@XZ 0000000180001c70 f i coreclrembedding.obj
 0001:00000d80       ??1?$_Hash@V?$_Umap_traits@V?$basic_string@_WU?$char_traits@_W@std@@V?$allocator@_W@2@@std@@V?$vector@V?$basic_string@_WU?$char_traits@_W@std@@V?$allocator@_W@2@@std@@V?$allocator@V?$basic_string@_WU?$char_traits@_W@std@@V?$allocator@_W@2@@std@@@2@@2@V?$_Uhash_compare@V?$basic_string@_WU?$char_traits@_W@std@@V?$allocator@_W@2@@std@@U?$hash@V?$basic_string@_WU?$char_traits@_W@std@@V?$allocator@_W@2@@std@@@2@U?$equal_to@V?$basic_string@_WU?$char_traits@_W@std@@V?$allocator@_W@2@@std@@@2@@2@V?$allocator@U?$pair@$$CBV?$basic_string@_WU?$char_traits@_W@std@@V?$allocator@_W@2@@std@@V?$vector@V?$basic_string@_WU?$char_traits@_W@std@@V?$allocator@_W@2@@std@@V?$allocator@V?$basic_string@_WU?$char_traits@_W@std@@V?$allocator@_W@2@@std@@@2@@2@@std@@@2@$0A@@std@@@std@@QEAA@XZ 0000000180001d80 f i coreclrembedding.obj
 0001:00000e50       ??1?$_Hash@V?$_Umap_traits@V?$basic_string@_WU?$char_traits@_W@std@@V?$allocator@_W@2@@std@@Uassets_t@deps_json_t@@V?$_Uhash_compare@V?$basic_string@_WU?$char_traits@_W@std@@V?$allocator@_W@2@@std@@U?$hash@V?$basic_string@_WU?$char_traits@_W@std@@V?$allocator@_W@2@@std@@@2@U?$equal_to@V?$basic_string@_WU?$char_traits@_W@std@@V?$allocator@_W@2@@std@@@2@@2@V?$allocator@U?$pair@$$CBV?$basic_string@_WU?$char_traits@_W@std@@V?$allocator@_W@2@@std@@Uassets_t@deps_json_t@@@std@@@2@$0A@@std@@@std@@QEAA@XZ 0000000180001e50 f i coreclrembedding.obj
 0001:00000f20       ??1?$_Hash@V?$_Umap_traits@V?$basic_string@_WU?$char_traits@_W@std@@V?$allocator@_W@2@@std@@Urid_assets_t@deps_json_t@@V?$_Uhash_compare@V?$basic_string@_WU?$char_traits@_W@std@@V?$allocator@_W@2@@std@@U?$hash@V?$basic_string@_WU?$char_traits@_W@std@@V?$allocator@_W@2@@std@@@2@U?$equal_to@V?$basic_string@_WU?$char_traits@_W@std@@V?$allocator@_W@2@@std@@@2@@2@V?$allocator@U?$pair@$$CBV?$basic_string@_WU?$char_traits@_W@std@@V?$allocator@_W@2@@std@@Urid_assets_t@deps_json_t@@@std@@@2@$0A@@std@@@std@@QEAA@XZ 0000000180001f20 f i coreclrembedding.obj
 0001:00000ff0       ??0corehost_init_t@@QEAA@AEBV?$basic_string@_WU?$char_traits@_W@std@@V?$allocator@_W@2@@std@@AEBV?$vector@V?$basic_string@_WU?$char_traits@_W@std@@V?$allocator@_W@2@@std@@V?$allocator@V?$basic_string@_WU?$char_traits@_W@std@@V?$allocator@_W@2@@std@@@2@@2@0W4host_mode_t@@AEBVruntime_config_t@@@Z 0000000180001ff0 f i coreclrembedding.obj
 0001:00001260       ?get_host_init_data@corehost_init_t@@QEAAAEBUhost_interface_t@@XZ 0000000180002260 f i coreclrembedding.obj
 0001:00001340       ?make_cstr_arr@corehost_init_t@@CAXAEBV?$vector@V?$basic_string@_WU?$char_traits@_W@std@@V?$allocator@_W@2@@std@@V?$allocator@V?$basic_string@_WU?$char_traits@_W@std@@V?$allocator@_W@2@@std@@@2@@std@@PEAV?$vector@PEB_WV?$allocator@PEB_W@std@@@3@@Z 0000000180002340 f i coreclrembedding.obj
 0001:00001400       ?init@hostpolicy_init_t@@SA_NPEAUhost_interface_t@@PEAU1@@Z 0000000180002400 f i coreclrembedding.obj
 0001:000016a0       ?make_clrstr_arr@hostpolicy_init_t@@CAXHPEAPEB_WPEAV?$vector@V?$vector@DV?$allocator@D@std@@@std@@V?$allocator@V?$vector@DV?$allocator@D@std@@@std@@@2@@std@@@Z 00000001800026a0 f i coreclrembedding.obj
 0001:000017c0       ??1?$basic_string@_WU?$char_traits@_W@std@@V?$allocator@_W@2@@std@@QEAA@XZ 00000001800027c0 f i coreclrembedding.obj
 0001:000017c0       ?_Tidy_deallocate@?$basic_string@_WU?$char_traits@_W@std@@V?$allocator@_W@2@@std@@QEAAXXZ 00000001800027c0 f i coreclrembedding.obj
 0001:000017c0       ??1probe_config_t@@QEAA@XZ 00000001800027c0 f i coreclrembedding.obj
 0001:00001830       ??0deps_resolver_t@@QEAA@AEBUhostpolicy_init_t@@AEBUarguments_t@@@Z 0000000180002830 f i coreclrembedding.obj
 0001:00001d80       ?valid@deps_resolver_t@@QEAA_NPEAV?$basic_string@_WU?$char_traits@_W@std@@V?$allocator@_W@2@@std@@@Z 0000000180002d80 f i coreclrembedding.obj
 0001:00002070       ?get_fx_deps_file@deps_resolver_t@@QEBAAEBV?$basic_string@_WU?$char_traits@_W@std@@V?$allocator@_W@2@@std@@XZ 0000000180003070 f i coreclrembedding.obj
 0001:00002080       ?get_deps_file@deps_resolver_t@@QEBAAEBV?$basic_string@_WU?$char_traits@_W@std@@V?$allocator@_W@2@@std@@XZ 0000000180003080 f i coreclrembedding.obj
 0001:00002090       ?get_api_sets@deps_resolver_t@@QEBAAEBV?$unordered_set@V?$basic_string@_WU?$char_traits@_W@std@@V?$allocator@_W@2@@std@@U?$hash@V?$basic_string@_WU?$char_traits@_W@std@@V?$allocator@_W@2@@std@@@2@U?$equal_to@V?$basic_string@_WU?$char_traits@_W@std@@V?$allocator@_W@2@@std@@@2@V?$allocator@V?$basic_string@_WU?$char_traits@_W@std@@V?$allocator@_W@2@@std@@@2@@std@@XZ 0000000180003090 f i coreclrembedding.obj
 0001:000020a0       ??1?$unordered_map@V?$basic_string@_WU?$char_traits@_W@std@@V?$allocator@_W@2@@std@@V12@U?$hash@V?$basic_string@_WU?$char_traits@_W@std@@V?$allocator@_W@2@@std@@@2@U?$equal_to@V?$basic_string@_WU?$char_traits@_W@std@@V?$allocator@_W@2@@std@@@2@V?$allocator@U?$pair@$$CBV?$basic_string@_WU?$char_traits@_W@std@@V?$allocator@_W@2@@std@@V12@@std@@@2@@std@@QEAA@XZ 00000001800030a0 f i coreclrembedding.obj
 0001:000020b0       ??1?$unordered_set@V?$basic_string@_WU?$char_traits@_W@std@@V?$allocator@_W@2@@std@@U?$hash@V?$basic_string@_WU?$char_traits@_W@std@@V?$allocator@_W@2@@std@@@2@U?$equal_to@V?$basic_string@_WU?$char_traits@_W@std@@V?$allocator@_W@2@@std@@@2@V?$allocator@V?$basic_string@_WU?$char_traits@_W@std@@V?$allocator@_W@2@@std@@@2@@std@@QEAA@XZ 00000001800030b0 f i coreclrembedding.obj
 0001:000020c0       ??1?$_Hash@V?$_Umap_traits@V?$basic_string@_WU?$char_traits@_W@std@@V?$allocator@_W@2@@std@@V12@V?$_Uhash_compare@V?$basic_string@_WU?$char_traits@_W@std@@V?$allocator@_W@2@@std@@U?$hash@V?$basic_string@_WU?$char_traits@_W@std@@V?$allocator@_W@2@@std@@@2@U?$equal_to@V?$basic_string@_WU?$char_traits@_W@std@@V?$allocator@_W@2@@std@@@2@@2@V?$allocator@U?$pair@$$CBV?$basic_string@_WU?$char_traits@_W@std@@V?$allocator@_W@2@@std@@V12@@std@@@2@$0A@@std@@@std@@QEAA@XZ 00000001800030c0 f i coreclrembedding.obj
 0001:00002190       ??1?$_Hash@V?$_Uset_traits@V?$basic_string@_WU?$char_traits@_W@std@@V?$allocator@_W@2@@std@@V?$_Uhash_compare@V?$basic_string@_WU?$char_traits@_W@std@@V?$allocator@_W@2@@std@@U?$hash@V?$basic_string@_WU?$char_traits@_W@std@@V?$allocator@_W@2@@std@@@2@U?$equal_to@V?$basic_string@_WU?$char_traits@_W@std@@V?$allocator@_W@2@@std@@@2@@2@V?$allocator@V?$basic_string@_WU?$char_traits@_W@std@@V?$allocator@_W@2@@std@@@2@$0A@@std@@@std@@QEAA@XZ 0000000180003190 f i coreclrembedding.obj
 0001:00002260       ?GetOSVersion@@YA?AV?$basic_string@_WU?$char_traits@_W@std@@V?$allocator@_W@2@@std@@XZ 0000000180003260 f   coreclrembedding.obj
 0001:00002350       ?Initialize@CoreClrEmbedding@@SAJH@Z 0000000180003350 f   coreclrembedding.obj
 0001:00004270       ??1runtime_config_t@@QEAA@XZ 0000000180005270 f i coreclrembedding.obj
 0001:000045e0       ??1corehost_init_t@@QEAA@XZ 00000001800055e0 f i coreclrembedding.obj
 0001:00004870       ??0hostpolicy_init_t@@QEAA@XZ 0000000180005870 f i coreclrembedding.obj
 0001:000048e0       ??1hostpolicy_init_t@@QEAA@XZ 00000001800058e0 f i coreclrembedding.obj
 0001:00004b00       ??1arguments_t@@QEAA@XZ    0000000180005b00 f i coreclrembedding.obj
 0001:00004d30       ??1deps_resolver_t@@QEAA@XZ 0000000180005d30 f i coreclrembedding.obj
 0001:00005160       ??0probe_paths_t@@QEAA@XZ  0000000180006160 f i coreclrembedding.obj
 0001:000051c0       ??1probe_paths_t@@QEAA@XZ  00000001800061c0 f i coreclrembedding.obj
 0001:00005380       ??0deps_entry_t@@QEAA@AEBU0@@Z 0000000180006380 f i coreclrembedding.obj
 0001:00005430       ??1deps_entry_t@@QEAA@XZ   0000000180006430 f i coreclrembedding.obj
 0001:00005650       ?FreeMarshalData@CoreClrEmbedding@@SAXPEAXH@Z 0000000180006650 f   coreclrembedding.obj
 0001:00005690       ??0?$initializer_list@PEBD@std@@QEAA@PEBQEBD0@Z 0000000180006690 f i coreclrembedding.obj
 0001:000056a0       ??A?$vector@PEBDV?$allocator@PEBD@std@@@std@@QEAAAEAPEBD_K@Z 00000001800066a0 f i coreclrembedding.obj
 0001:000056b0       ?size@?$vector@PEBDV?$allocator@PEBD@std@@@std@@QEBA_KXZ 00000001800066b0 f i coreclrembedding.obj
 0001:000056c0       ?data@?$vector@PEBDV?$allocator@PEBD@std@@@std@@QEAAPEAPEBDXZ 00000001800066c0 f i coreclrembedding.obj
 0001:000056c0       ?data@?$vector@DV?$allocator@D@std@@@std@@QEAAPEADXZ 00000001800066c0 f i coreclrembedding.obj
 0001:000056c0       ??C?$unique_ptr@Vdeps_json_t@@U?$default_delete@Vdeps_json_t@@@std@@@std@@QEBAPEAVdeps_json_t@@XZ 00000001800066c0 f i coreclrembedding.obj
 0001:000056c0       ?_Unchecked_begin@?$vector@Udeps_entry_t@@V?$allocator@Udeps_entry_t@@@std@@@std@@QEBAPEBUdeps_entry_t@@XZ 00000001800066c0 f i coreclrembedding.obj
 0001:000056d0       ?push_back@?$vector@PEBDV?$allocator@PEBD@std@@@std@@QEAAX$$QEAPEBD@Z 00000001800066d0 f i coreclrembedding.obj
 0001:000056d0       ?push_back@?$vector@PEBDV?$allocator@PEBD@std@@@std@@QEAAXAEBQEBD@Z 00000001800066d0 f i coreclrembedding.obj
 0001:000056f0       ??1?$vector@PEB_WV?$allocator@PEB_W@std@@@std@@QEAA@XZ 00000001800066f0 f i coreclrembedding.obj
 0001:000056f0       ??1?$vector@V?$_List_unchecked_iterator@V?$_List_val@U?$_List_simple_types@U?$pair@$$CBV?$basic_string@_WU?$char_traits@_W@std@@V?$allocator@_W@2@@std@@Uassets_t@deps_json_t@@@std@@@std@@@std@@@std@@V?$allocator@V?$_List_unchecked_iterator@V?$_List_val@U?$_List_simple_types@U?$pair@$$CBV?$basic_string@_WU?$char_traits@_W@std@@V?$allocator@_W@2@@std@@Uassets_t@deps_json_t@@@std@@@std@@@std@@@std@@@2@@std@@QEAA@XZ 00000001800066f0 f i coreclrembedding.obj
 0001:000056f0       ??1?$vector@V?$_List_unchecked_iterator@V?$_List_val@U?$_List_simple_types@U?$pair@$$CBV?$basic_string@_WU?$char_traits@_W@std@@V?$allocator@_W@2@@std@@Urid_assets_t@deps_json_t@@@std@@@std@@@std@@@std@@V?$allocator@V?$_List_unchecked_iterator@V?$_List_val@U?$_List_simple_types@U?$pair@$$CBV?$basic_string@_WU?$char_traits@_W@std@@V?$allocator@_W@2@@std@@Urid_assets_t@deps_json_t@@@std@@@std@@@std@@@std@@@2@@std@@QEAA@XZ 00000001800066f0 f i coreclrembedding.obj
 0001:000056f0       ??1?$vector@V?$_List_unchecked_iterator@V?$_List_val@U?$_List_simple_types@U?$pair@$$CBV?$basic_string@_WU?$char_traits@_W@std@@V?$allocator@_W@2@@std@@H@std@@@std@@@std@@@std@@V?$allocator@V?$_List_unchecked_iterator@V?$_List_val@U?$_List_simple_types@U?$pair@$$CBV?$basic_string@_WU?$char_traits@_W@std@@V?$allocator@_W@2@@std@@H@std@@@std@@@std@@@std@@@2@@std@@QEAA@XZ 00000001800066f0 f i coreclrembedding.obj
 0001:000056f0       ??1?$vector@V?$_List_unchecked_const_iterator@V?$_List_val@U?$_List_simple_types@V?$basic_string@_WU?$char_traits@_W@std@@V?$allocator@_W@2@@std@@@std@@@std@@U_Iterator_base0@2@@std@@V?$allocator@V?$_List_unchecked_const_iterator@V?$_List_val@U?$_List_simple_types@V?$basic_string@_WU?$char_traits@_W@std@@V?$allocator@_W@2@@std@@@std@@@std@@U_Iterator_base0@2@@std@@@2@@std@@QEAA@XZ 00000001800066f0 f i coreclrembedding.obj
 0001:000056f0       ??1?$vector@V?$_List_unchecked_iterator@V?$_List_val@U?$_List_simple_types@U?$pair@$$CBV?$basic_string@_WU?$char_traits@_W@std@@V?$allocator@_W@2@@std@@V12@@std@@@std@@@std@@@std@@V?$allocator@V?$_List_unchecked_iterator@V?$_List_val@U?$_List_simple_types@U?$pair@$$CBV?$basic_string@_WU?$char_traits@_W@std@@V?$allocator@_W@2@@std@@V12@@std@@@std@@@std@@@std@@@2@@std@@QEAA@XZ 00000001800066f0 f i coreclrembedding.obj
 0001:000056f0       ??1?$vector@PEBDV?$allocator@PEBD@std@@@std@@QEAA@XZ 00000001800066f0 f i coreclrembedding.obj
 0001:000056f0       ??1?$vector@V?$_List_unchecked_iterator@V?$_List_val@U?$_List_simple_types@U?$pair@$$CBV?$basic_string@_WU?$char_traits@_W@std@@V?$allocator@_W@2@@std@@V?$vector@V?$basic_string@_WU?$char_traits@_W@std@@V?$allocator@_W@2@@std@@V?$allocator@V?$basic_string@_WU?$char_traits@_W@std@@V?$allocator@_W@2@@std@@@2@@2@@std@@@std@@@std@@@std@@V?$allocator@V?$_List_unchecked_iterator@V?$_List_val@U?$_List_simple_types@U?$pair@$$CBV?$basic_string@_WU?$char_traits@_W@std@@V?$allocator@_W@2@@std@@V?$vector@V?$basic_string@_WU?$char_traits@_W@std@@V?$allocator@_W@2@@std@@V?$allocator@V?$basic_string@_WU?$char_traits@_W@std@@V?$allocator@_W@2@@std@@@2@@2@@std@@@std@@@std@@@std@@@2@@std@@QEAA@XZ 00000001800066f0 f i coreclrembedding.obj
 0001:00005750       ??0?$vector@PEBDV?$allocator@PEBD@std@@@std@@QEAA@V?$initializer_list@PEBD@1@AEBV?$allocator@PEBD@1@@Z 0000000180006750 f i coreclrembedding.obj
 0001:00005780       ??$addressof@$$CBV?$basic_string@_WU?$char_traits@_W@std@@V?$allocator@_W@2@@std@@@std@@YAPEBV?$basic_string@_WU?$char_traits@_W@std@@V?$allocator@_W@2@@0@AEBV10@@Z 0000000180006780 f i coreclrembedding.obj
 0001:00005780       ??$addressof@$$CBV?$vector@V?$basic_string@_WU?$char_traits@_W@std@@V?$allocator@_W@2@@std@@V?$allocator@V?$basic_string@_WU?$char_traits@_W@std@@V?$allocator@_W@2@@std@@@2@@std@@@std@@YAPEBV?$vector@V?$basic_string@_WU?$char_traits@_W@std@@V?$allocator@_W@2@@std@@V?$allocator@V?$basic_string@_WU?$char_traits@_W@std@@V?$allocator@_W@2@@std@@@2@@0@AEBV10@@Z 0000000180006780 f i coreclrembedding.obj
 0001:00005780       ??0?$allocator@PEBD@std@@QEAA@XZ 0000000180006780 f i coreclrembedding.obj
 0001:00005790       ??1?$vector@Uprobe_config_t@@V?$allocator@Uprobe_config_t@@@std@@@std@@QEAA@XZ 0000000180006790 f i coreclrembedding.obj
 0001:00005820       ??1?$unique_ptr@Vdeps_json_t@@U?$default_delete@Vdeps_json_t@@@std@@@std@@QEAA@XZ 0000000180006820 f i coreclrembedding.obj
 0001:00005830       ??A?$vector@V?$vector@DV?$allocator@D@std@@@std@@V?$allocator@V?$vector@DV?$allocator@D@std@@@std@@@2@@std@@QEAAAEAV?$vector@DV?$allocator@D@std@@@1@_K@Z 0000000180006830 f i coreclrembedding.obj
 0001:00005840       ?size@?$vector@V?$vector@DV?$allocator@D@std@@@std@@V?$allocator@V?$vector@DV?$allocator@D@std@@@std@@@2@@std@@QEBA_KXZ 0000000180006840 f i coreclrembedding.obj
 0001:00005870       ??9?$_List_unchecked_const_iterator@V?$_List_val@U?$_List_simple_types@V?$basic_string@_WU?$char_traits@_W@std@@V?$allocator@_W@2@@std@@@std@@@std@@U_Iterator_base0@2@@std@@QEBA_NAEBV01@@Z 0000000180006870 f i coreclrembedding.obj
 0001:00005880       ??E?$_List_unchecked_const_iterator@V?$_List_val@U?$_List_simple_types@V?$basic_string@_WU?$char_traits@_W@std@@V?$allocator@_W@2@@std@@@std@@@std@@U_Iterator_base0@2@@std@@QEAAAEAV01@XZ 0000000180006880 f i coreclrembedding.obj
 0001:00005890       ??D?$_List_unchecked_const_iterator@V?$_List_val@U?$_List_simple_types@V?$basic_string@_WU?$char_traits@_W@std@@V?$allocator@_W@2@@std@@@std@@@std@@U_Iterator_base0@2@@std@@QEBAAEBV?$basic_string@_WU?$char_traits@_W@std@@V?$allocator@_W@2@@1@XZ 0000000180006890 f i coreclrembedding.obj
 0001:000058a0       ??1?$vector@V?$basic_string@DU?$char_traits@D@std@@V?$allocator@D@2@@std@@V?$allocator@V?$basic_string@DU?$char_traits@D@std@@V?$allocator@D@2@@std@@@2@@std@@QEAA@XZ 00000001800068a0 f i coreclrembedding.obj
 0001:00005980       ??1?$list@U?$pair@$$CBV?$basic_string@_WU?$char_traits@_W@std@@V?$allocator@_W@2@@std@@V12@@std@@V?$allocator@U?$pair@$$CBV?$basic_string@_WU?$char_traits@_W@std@@V?$allocator@_W@2@@std@@V12@@std@@@2@@std@@QEAA@XZ 0000000180006980 f i coreclrembedding.obj
 0001:000059f0       ??0?$unordered_map@V?$basic_string@_WU?$char_traits@_W@std@@V?$allocator@_W@2@@std@@V12@U?$hash@V?$basic_string@_WU?$char_traits@_W@std@@V?$allocator@_W@2@@std@@@2@U?$equal_to@V?$basic_string@_WU?$char_traits@_W@std@@V?$allocator@_W@2@@std@@@2@V?$allocator@U?$pair@$$CBV?$basic_string@_WU?$char_traits@_W@std@@V?$allocator@_W@2@@std@@V12@@std@@@2@@std@@QEAA@XZ 00000001800069f0 f i coreclrembedding.obj
 0001:00005a70       ?_Unchecked_end@?$list@V?$basic_string@_WU?$char_traits@_W@std@@V?$allocator@_W@2@@std@@V?$allocator@V?$basic_string@_WU?$char_traits@_W@std@@V?$allocator@_W@2@@std@@@2@@std@@QEBA?AV?$_List_unchecked_const_iterator@V?$_List_val@U?$_List_simple_types@V?$basic_string@_WU?$char_traits@_W@std@@V?$allocator@_W@2@@std@@@std@@@std@@U_Iterator_base0@2@@2@XZ 0000000180006a70 f i coreclrembedding.obj
 0001:00005a80       ?_Unchecked_begin@?$list@V?$basic_string@_WU?$char_traits@_W@std@@V?$allocator@_W@2@@std@@V?$allocator@V?$basic_string@_WU?$char_traits@_W@std@@V?$allocator@_W@2@@std@@@2@@std@@QEBA?AV?$_List_unchecked_const_iterator@V?$_List_val@U?$_List_simple_types@V?$basic_string@_WU?$char_traits@_W@std@@V?$allocator@_W@2@@std@@@std@@@std@@U_Iterator_base0@2@@2@XZ 0000000180006a80 f i coreclrembedding.obj
 0001:00005a90       ??1?$list@V?$basic_string@_WU?$char_traits@_W@std@@V?$allocator@_W@2@@std@@V?$allocator@V?$basic_string@_WU?$char_traits@_W@std@@V?$allocator@_W@2@@std@@@2@@std@@QEAA@XZ 0000000180006a90 f i coreclrembedding.obj
 0001:00005b00       ??1?$list@U?$pair@$$CBV?$basic_string@_WU?$char_traits@_W@std@@V?$allocator@_W@2@@std@@V?$vector@V?$basic_string@_WU?$char_traits@_W@std@@V?$allocator@_W@2@@std@@V?$allocator@V?$basic_string@_WU?$char_traits@_W@std@@V?$allocator@_W@2@@std@@@2@@2@@std@@V?$allocator@U?$pair@$$CBV?$basic_string@_WU?$char_traits@_W@std@@V?$allocator@_W@2@@std@@V?$vector@V?$basic_string@_WU?$char_traits@_W@std@@V?$allocator@_W@2@@std@@V?$allocator@V?$basic_string@_WU?$char_traits@_W@std@@V?$allocator@_W@2@@std@@@2@@2@@std@@@2@@std@@QEAA@XZ 0000000180006b00 f i coreclrembedding.obj
 0001:00005b70       ??1?$list@U?$pair@$$CBV?$basic_string@_WU?$char_traits@_W@std@@V?$allocator@_W@2@@std@@H@std@@V?$allocator@U?$pair@$$CBV?$basic_string@_WU?$char_traits@_W@std@@V?$allocator@_W@2@@std@@H@std@@@2@@std@@QEAA@XZ 0000000180006b70 f i coreclrembedding.obj
 0001:00005c40       ?_Unchecked_end@?$vector@Udeps_entry_t@@V?$allocator@Udeps_entry_t@@@std@@@std@@QEBAPEBUdeps_entry_t@@XZ 0000000180006c40 f i coreclrembedding.obj
 0001:00005c50       ??1?$vector@Udeps_entry_t@@V?$allocator@Udeps_entry_t@@@std@@@std@@QEAA@XZ 0000000180006c50 f i coreclrembedding.obj
 0001:00005c60       ??0?$vector@V?$basic_string@_WU?$char_traits@_W@std@@V?$allocator@_W@2@@std@@V?$allocator@V?$basic_string@_WU?$char_traits@_W@std@@V?$allocator@_W@2@@std@@@2@@std@@QEAA@XZ 0000000180006c60 f i coreclrembedding.obj
 0001:00005c60       ??0?$vector@Udeps_entry_t@@V?$allocator@Udeps_entry_t@@@std@@@std@@QEAA@_KAEBV?$allocator@Udeps_entry_t@@@1@@Z 0000000180006c60 f i deps_resolver.obj
 0001:00005c60       ??0?$vector@DV?$allocator@D@std@@@std@@QEAA@XZ 0000000180006c60 f i coreclrembedding.obj
 0001:00005c60       ??0?$vector@Udeps_entry_t@@V?$allocator@Udeps_entry_t@@@std@@@std@@QEAA@XZ 0000000180006c60 f i coreclrembedding.obj
 0001:00005c60       ??0vec_t@deps_json_t@@QEAA@XZ 0000000180006c60 f i deps_format.obj
 0001:00005c80       ??1?$list@U?$pair@$$CBV?$basic_string@_WU?$char_traits@_W@std@@V?$allocator@_W@2@@std@@Urid_assets_t@deps_json_t@@@std@@V?$allocator@U?$pair@$$CBV?$basic_string@_WU?$char_traits@_W@std@@V?$allocator@_W@2@@std@@Urid_assets_t@deps_json_t@@@std@@@2@@std@@QEAA@XZ 0000000180006c80 f i coreclrembedding.obj
 0001:00005cf0       ??1?$list@U?$pair@$$CBV?$basic_string@_WU?$char_traits@_W@std@@V?$allocator@_W@2@@std@@Uassets_t@deps_json_t@@@std@@V?$allocator@U?$pair@$$CBV?$basic_string@_WU?$char_traits@_W@std@@V?$allocator@_W@2@@std@@Uassets_t@deps_json_t@@@std@@@2@@std@@QEAA@XZ 0000000180006cf0 f i coreclrembedding.obj
 0001:00005d60       ??0?$unordered_map@V?$basic_string@_WU?$char_traits@_W@std@@V?$allocator@_W@2@@std@@Uassets_t@deps_json_t@@U?$hash@V?$basic_string@_WU?$char_traits@_W@std@@V?$allocator@_W@2@@std@@@2@U?$equal_to@V?$basic_string@_WU?$char_traits@_W@std@@V?$allocator@_W@2@@std@@@2@V?$allocator@U?$pair@$$CBV?$basic_string@_WU?$char_traits@_W@std@@V?$allocator@_W@2@@std@@Uassets_t@deps_json_t@@@std@@@2@@std@@QEAA@XZ 0000000180006d60 f i coreclrembedding.obj
 0001:00005de0       ??0?$unordered_map@V?$basic_string@_WU?$char_traits@_W@std@@V?$allocator@_W@2@@std@@V?$vector@V?$basic_string@_WU?$char_traits@_W@std@@V?$allocator@_W@2@@std@@V?$allocator@V?$basic_string@_WU?$char_traits@_W@std@@V?$allocator@_W@2@@std@@@2@@2@U?$hash@V?$basic_string@_WU?$char_traits@_W@std@@V?$allocator@_W@2@@std@@@2@U?$equal_to@V?$basic_string@_WU?$char_traits@_W@std@@V?$allocator@_W@2@@std@@@2@V?$allocator@U?$pair@$$CBV?$basic_string@_WU?$char_traits@_W@std@@V?$allocator@_W@2@@std@@V?$vector@V?$basic_string@_WU?$char_traits@_W@std@@V?$allocator@_W@2@@std@@V?$allocator@V?$basic_string@_WU?$char_traits@_W@std@@V?$allocator@_W@2@@std@@@2@@2@@std@@@2@@std@@QEAA@XZ 0000000180006de0 f i coreclrembedding.obj
 0001:00005e60       ??4?$vector@V?$basic_string@_WU?$char_traits@_W@std@@V?$allocator@_W@2@@std@@V?$allocator@V?$basic_string@_WU?$char_traits@_W@std@@V?$allocator@_W@2@@std@@@2@@std@@QEAAAEAV01@AEBV01@@Z 0000000180006e60 f i coreclrembedding.obj
 0001:00005e80       ?push_back@?$vector@V?$basic_string@_WU?$char_traits@_W@std@@V?$allocator@_W@2@@std@@V?$allocator@V?$basic_string@_WU?$char_traits@_W@std@@V?$allocator@_W@2@@std@@@2@@std@@QEAAXAEBV?$basic_string@_WU?$char_traits@_W@std@@V?$allocator@_W@2@@2@@Z 0000000180006e80 f i coreclrembedding.obj
 0001:00005ec0       ??1vec_t@deps_json_t@@QEAA@XZ 0000000180006ec0 f i coreclrembedding.obj
 0001:00005ec0       ??1?$vector@V?$basic_string@_WU?$char_traits@_W@std@@V?$allocator@_W@2@@std@@V?$allocator@V?$basic_string@_WU?$char_traits@_W@std@@V?$allocator@_W@2@@std@@@2@@std@@QEAA@XZ 0000000180006ec0 f i coreclrembedding.obj
 0001:00005ed0       ??0?$vector@V?$basic_string@_WU?$char_traits@_W@std@@V?$allocator@_W@2@@std@@V?$allocator@V?$basic_string@_WU?$char_traits@_W@std@@V?$allocator@_W@2@@std@@@2@@std@@QEAA@AEBV01@@Z 0000000180006ed0 f i coreclrembedding.obj
 0001:00005f40       ??1?$vector@DV?$allocator@D@std@@@std@@QEAA@XZ 0000000180006f40 f i coreclrembedding.obj
 0001:00005f40       ?_Tidy@?$vector@DV?$allocator@D@std@@@std@@AEAAXXZ 0000000180006f40 f i coreclrembedding.obj
 0001:00005fa0       ??0?$unordered_set@V?$basic_string@_WU?$char_traits@_W@std@@V?$allocator@_W@2@@std@@U?$hash@V?$basic_string@_WU?$char_traits@_W@std@@V?$allocator@_W@2@@std@@@2@U?$equal_to@V?$basic_string@_WU?$char_traits@_W@std@@V?$allocator@_W@2@@std@@@2@V?$allocator@V?$basic_string@_WU?$char_traits@_W@std@@V?$allocator@_W@2@@std@@@2@@std@@QEAA@XZ 0000000180006fa0 f i coreclrembedding.obj
 0001:00006020       ?find@?$basic_string@_WU?$char_traits@_W@std@@V?$allocator@_W@2@@std@@QEBA_K_W_K@Z 0000000180007020 f i coreclrembedding.obj
 0001:00006070       ?empty@?$basic_string@_WU?$char_traits@_W@std@@V?$allocator@_W@2@@std@@QEBA_NXZ 0000000180007070 f i coreclrembedding.obj
 0001:00006080       ?reserve@?$basic_string@_WU?$char_traits@_W@std@@V?$allocator@_W@2@@std@@QEAAX_K@Z 0000000180007080 f i coreclrembedding.obj
 0001:00006140       ?c_str@?$basic_string@_WU?$char_traits@_W@std@@V?$allocator@_W@2@@std@@QEBAPEB_WXZ 0000000180007140 f i coreclrembedding.obj
 0001:00006150       ?clear@?$basic_string@_WU?$char_traits@_W@std@@V?$allocator@_W@2@@std@@QEAAXXZ 0000000180007150 f i coreclrembedding.obj
 0001:00006170       ?append@?$basic_string@_WU?$char_traits@_W@std@@V?$allocator@_W@2@@std@@QEAAAEAV12@AEBV12@@Z 0000000180007170 f i coreclrembedding.obj
 0001:00006190       ??4?$basic_string@_WU?$char_traits@_W@std@@V?$allocator@_W@2@@std@@QEAAAEAV01@AEBV01@@Z 0000000180007190 f i coreclrembedding.obj
 0001:000061c0       ?assign@?$basic_string@_WU?$char_traits@_W@std@@V?$allocator@_W@2@@std@@QEAAAEAV12@$$QEAV12@@Z 00000001800071c0 f i coreclrembedding.obj
 0001:000061c0       ??4?$basic_string@_WU?$char_traits@_W@std@@V?$allocator@_W@2@@std@@QEAAAEAV01@$$QEAV01@@Z 00000001800071c0 f i coreclrembedding.obj
 0001:00006210       ??0?$basic_string@_WU?$char_traits@_W@std@@V?$allocator@_W@2@@std@@QEAA@$$QEAV01@@Z 0000000180007210 f i coreclrembedding.obj
 0001:00006240       ??0?$basic_string@_WU?$char_traits@_W@std@@V?$allocator@_W@2@@std@@QEAA@QEB_W@Z 0000000180007240 f i coreclrembedding.obj
 0001:00006280       ??0?$basic_string@_WU?$char_traits@_W@std@@V?$allocator@_W@2@@std@@QEAA@XZ 0000000180007280 f i coreclrembedding.obj
 0001:000062a0       ??0?$basic_string@_WU?$char_traits@_W@std@@V?$allocator@_W@2@@std@@QEAA@AEBV01@@Z 00000001800072a0 f i coreclrembedding.obj
 0001:000063a0       ?_Tidy_deallocate@?$basic_string@DU?$char_traits@D@std@@V?$allocator@D@2@@std@@QEAAXXZ 00000001800073a0 f i coreclrembedding.obj
 0001:000063a0       ??1?$basic_string@DU?$char_traits@D@std@@V?$allocator@D@2@@std@@QEAA@XZ 00000001800073a0 f i coreclrembedding.obj
 0001:00006400       ??R?$default_delete@Vdeps_json_t@@@std@@QEBAXPEAVdeps_json_t@@@Z 0000000180007400 f i coreclrembedding.obj
 0001:00006480       ?_Xlength@?$vector@Vvalue@json@web@@V?$allocator@Vvalue@json@web@@@std@@@std@@CAXXZ 0000000180007480 f i json.obj
 0001:00006480       ?_Xlength@?$vector@PEBDV?$allocator@PEBD@std@@@std@@CAXXZ 0000000180007480 f i coreclrembedding.obj
 0001:00006480       ?_Xlength@?$vector@Uprobe_config_t@@V?$allocator@Uprobe_config_t@@@std@@@std@@CAXXZ 0000000180007480 f i deps_resolver.obj
 0001:00006480       ?_Xlength@?$vector@V?$_List_unchecked_iterator@V?$_List_val@U?$_List_simple_types@U?$pair@$$CBV?$basic_string@_WU?$char_traits@_W@std@@V?$allocator@_W@2@@std@@H@std@@@std@@@std@@@std@@V?$allocator@V?$_List_unchecked_iterator@V?$_List_val@U?$_List_simple_types@U?$pair@$$CBV?$basic_string@_WU?$char_traits@_W@std@@V?$allocator@_W@2@@std@@H@std@@@std@@@std@@@std@@@2@@std@@CAXXZ 0000000180007480 f i coreclrembedding.obj
 0001:00006480       ?_Xlength@?$vector@V?$_List_unchecked_iterator@V?$_List_val@U?$_List_simple_types@U?$pair@$$CBV?$basic_string@_WU?$char_traits@_W@std@@V?$allocator@_W@2@@std@@Urid_assets_t@deps_json_t@@@std@@@std@@@std@@@std@@V?$allocator@V?$_List_unchecked_iterator@V?$_List_val@U?$_List_simple_types@U?$pair@$$CBV?$basic_string@_WU?$char_traits@_W@std@@V?$allocator@_W@2@@std@@Urid_assets_t@deps_json_t@@@std@@@std@@@std@@@std@@@2@@std@@CAXXZ 0000000180007480 f i coreclrembedding.obj
 0001:00006480       ?_Xlength@?$vector@V?$_List_unchecked_iterator@V?$_List_val@U?$_List_simple_types@U?$pair@$$CBV?$basic_string@_WU?$char_traits@_W@std@@V?$allocator@_W@2@@std@@V12@@std@@@std@@@std@@@std@@V?$allocator@V?$_List_unchecked_iterator@V?$_List_val@U?$_List_simple_types@U?$pair@$$CBV?$basic_string@_WU?$char_traits@_W@std@@V?$allocator@_W@2@@std@@V12@@std@@@std@@@std@@@std@@@2@@std@@CAXXZ 0000000180007480 f i coreclrembedding.obj
 0001:00006480       ?_Xlength@?$vector@DV?$allocator@D@std@@@std@@CAXXZ 0000000180007480 f i json_parsing.obj
 0001:00006480       ?_Xlength@?$vector@V?$vector@DV?$allocator@D@std@@@std@@V?$allocator@V?$vector@DV?$allocator@D@std@@@std@@@2@@std@@CAXXZ 0000000180007480 f i coreclrembedding.obj
 0001:00006480       ?_Xlength@?$vector@U?$pair@V?$basic_string@_WU?$char_traits@_W@std@@V?$allocator@_W@2@@std@@Vvalue@json@web@@@std@@V?$allocator@U?$pair@V?$basic_string@_WU?$char_traits@_W@std@@V?$allocator@_W@2@@std@@Vvalue@json@web@@@std@@@2@@std@@CAXXZ 0000000180007480 f i json.obj
 0001:00006480       ?_Xlength@?$vector@Udeps_entry_t@@V?$allocator@Udeps_entry_t@@@std@@@std@@CAXXZ 0000000180007480 f i deps_format.obj
 0001:00006480       ?_Xlength@?$vector@V?$_List_unchecked_const_iterator@V?$_List_val@U?$_List_simple_types@V?$basic_string@_WU?$char_traits@_W@std@@V?$allocator@_W@2@@std@@@std@@@std@@U_Iterator_base0@2@@std@@V?$allocator@V?$_List_unchecked_const_iterator@V?$_List_val@U?$_List_simple_types@V?$basic_string@_WU?$char_traits@_W@std@@V?$allocator@_W@2@@std@@@std@@@std@@U_Iterator_base0@2@@std@@@2@@std@@CAXXZ 0000000180007480 f i coreclrembedding.obj
 0001:00006480       ?_Xlength@?$vector@V?$_List_unchecked_iterator@V?$_List_val@U?$_List_simple_types@U?$pair@$$CBV?$basic_string@_WU?$char_traits@_W@std@@V?$allocator@_W@2@@std@@V?$vector@V?$basic_string@_WU?$char_traits@_W@std@@V?$allocator@_W@2@@std@@V?$allocator@V?$basic_string@_WU?$char_traits@_W@std@@V?$allocator@_W@2@@std@@@2@@2@@std@@@std@@@std@@@std@@V?$allocator@V?$_List_unchecked_iterator@V?$_List_val@U?$_List_simple_types@U?$pair@$$CBV?$basic_string@_WU?$char_traits@_W@std@@V?$allocator@_W@2@@std@@V?$vector@V?$basic_string@_WU?$char_traits@_W@std@@V?$allocator@_W@2@@std@@V?$allocator@V?$basic_string@_WU?$char_traits@_W@std@@V?$allocator@_W@2@@std@@@2@@2@@std@@@std@@@std@@@std@@@2@@std@@CAXXZ 0000000180007480 f i coreclrembedding.obj
 0001:00006480       ?_Xlength@?$vector@_WV?$allocator@_W@std@@@std@@CAXXZ 0000000180007480 f i json_parsing.obj
 0001:00006480       ?_Xlength@?$vector@V?$basic_string@_WU?$char_traits@_W@std@@V?$allocator@_W@2@@std@@V?$allocator@V?$basic_string@_WU?$char_traits@_W@std@@V?$allocator@_W@2@@std@@@2@@std@@CAXXZ 0000000180007480 f i coreclrembedding.obj
 0001:00006480       ?_Xlength@?$vector@PEB_WV?$allocator@PEB_W@std@@@std@@CAXXZ 0000000180007480 f i coreclrembedding.obj
 0001:00006480       ?_Xlength@?$vector@V?$_List_unchecked_iterator@V?$_List_val@U?$_List_simple_types@U?$pair@$$CBV?$basic_string@_WU?$char_traits@_W@std@@V?$allocator@_W@2@@std@@Uassets_t@deps_json_t@@@std@@@std@@@std@@@std@@V?$allocator@V?$_List_unchecked_iterator@V?$_List_val@U?$_List_simple_types@U?$pair@$$CBV?$basic_string@_WU?$char_traits@_W@std@@V?$allocator@_W@2@@std@@Uassets_t@deps_json_t@@@std@@@std@@@std@@@std@@@2@@std@@CAXXZ 0000000180007480 f i coreclrembedding.obj
 0001:000064a0       ?_Reallocate_exactly@?$vector@PEB_WV?$allocator@PEB_W@std@@@std@@AEAAX_K@Z 00000001800074a0 f i coreclrembedding.obj
 0001:00006570       ?_Tidy@?$vector@Udeps_entry_t@@V?$allocator@Udeps_entry_t@@@std@@@std@@AEAAXXZ 0000000180007570 f i coreclrembedding.obj
 0001:00006630       ?_Tidy@?$vector@V?$basic_string@_WU?$char_traits@_W@std@@V?$allocator@_W@2@@std@@V?$allocator@V?$basic_string@_WU?$char_traits@_W@std@@V?$allocator@_W@2@@std@@@2@@std@@AEAAXXZ 0000000180007630 f i coreclrembedding.obj
 0001:000066c0       ?_Buy@?$vector@V?$basic_string@_WU?$char_traits@_W@std@@V?$allocator@_W@2@@std@@V?$allocator@V?$basic_string@_WU?$char_traits@_W@std@@V?$allocator@_W@2@@std@@@2@@std@@AEAA_N_K@Z 00000001800076c0 f i coreclrembedding.obj
 0001:00006770       ?_Reallocate_exactly@?$vector@V?$basic_string@_WU?$char_traits@_W@std@@V?$allocator@_W@2@@std@@V?$allocator@V?$basic_string@_WU?$char_traits@_W@std@@V?$allocator@_W@2@@std@@@2@@std@@AEAAX_K@Z 0000000180007770 f i coreclrembedding.obj
 0001:00006870       ?_Tidy_init@?$basic_string@_WU?$char_traits@_W@std@@V?$allocator@_W@2@@std@@QEAAXXZ 0000000180007870 f i coreclrembedding.obj
 0001:00006890       ?assign@?$basic_string@_WU?$char_traits@_W@std@@V?$allocator@_W@2@@std@@QEAAAEAV12@QEB_W_K@Z 0000000180007890 f i coreclrembedding.obj
 0001:00006a20       ?append@?$basic_string@_WU?$char_traits@_W@std@@V?$allocator@_W@2@@std@@QEAAAEAV12@QEB_W_K@Z 0000000180007a20 f i coreclrembedding.obj
 0001:00006aa0       ?_Construct_lv_contents@?$basic_string@_WU?$char_traits@_W@std@@V?$allocator@_W@2@@std@@QEAAXAEBV12@@Z 0000000180007aa0 f i coreclrembedding.obj
 0001:00006bb0       ??0?$basic_string@_WU?$char_traits@_W@std@@V?$allocator@_W@2@@std@@QEAA@AEBV01@_K1AEBV?$allocator@_W@1@@Z 0000000180007bb0 f i coreclrembedding.obj
 0001:00006c10       ?_Init@?$_Hash@V?$_Umap_traits@V?$basic_string@_WU?$char_traits@_W@std@@V?$allocator@_W@2@@std@@Uassets_t@deps_json_t@@V?$_Uhash_compare@V?$basic_string@_WU?$char_traits@_W@std@@V?$allocator@_W@2@@std@@U?$hash@V?$basic_string@_WU?$char_traits@_W@std@@V?$allocator@_W@2@@std@@@2@U?$equal_to@V?$basic_string@_WU?$char_traits@_W@std@@V?$allocator@_W@2@@std@@@2@@2@V?$allocator@U?$pair@$$CBV?$basic_string@_WU?$char_traits@_W@std@@V?$allocator@_W@2@@std@@Uassets_t@deps_json_t@@@std@@@2@$0A@@std@@@std@@IEAAX_K@Z 0000000180007c10 f i coreclrembedding.obj
 0001:00006c10       ?_Init@?$_Hash@V?$_Umap_traits@V?$basic_string@_WU?$char_traits@_W@std@@V?$allocator@_W@2@@std@@V12@V?$_Uhash_compare@V?$basic_string@_WU?$char_traits@_W@std@@V?$allocator@_W@2@@std@@U?$hash@V?$basic_string@_WU?$char_traits@_W@std@@V?$allocator@_W@2@@std@@@2@U?$equal_to@V?$basic_string@_WU?$char_traits@_W@std@@V?$allocator@_W@2@@std@@@2@@2@V?$allocator@U?$pair@$$CBV?$basic_string@_WU?$char_traits@_W@std@@V?$allocator@_W@2@@std@@V12@@std@@@2@$0A@@std@@@std@@IEAAX_K@Z 0000000180007c10 f i coreclrembedding.obj
 0001:00006c10       ?_Init@?$_Hash@V?$_Uset_traits@V?$basic_string@_WU?$char_traits@_W@std@@V?$allocator@_W@2@@std@@V?$_Uhash_compare@V?$basic_string@_WU?$char_traits@_W@std@@V?$allocator@_W@2@@std@@U?$hash@V?$basic_string@_WU?$char_traits@_W@std@@V?$allocator@_W@2@@std@@@2@U?$equal_to@V?$basic_string@_WU?$char_traits@_W@std@@V?$allocator@_W@2@@std@@@2@@2@V?$allocator@V?$basic_string@_WU?$char_traits@_W@std@@V?$allocator@_W@2@@std@@@2@$0A@@std@@@std@@IEAAX_K@Z 0000000180007c10 f i coreclrembedding.obj
 0001:00006c10       ?_Init@?$_Hash@V?$_Umap_traits@V?$basic_string@_WU?$char_traits@_W@std@@V?$allocator@_W@2@@std@@Urid_assets_t@deps_json_t@@V?$_Uhash_compare@V?$basic_string@_WU?$char_traits@_W@std@@V?$allocator@_W@2@@std@@U?$hash@V?$basic_string@_WU?$char_traits@_W@std@@V?$allocator@_W@2@@std@@@2@U?$equal_to@V?$basic_string@_WU?$char_traits@_W@std@@V?$allocator@_W@2@@std@@@2@@2@V?$allocator@U?$pair@$$CBV?$basic_string@_WU?$char_traits@_W@std@@V?$allocator@_W@2@@std@@Urid_assets_t@deps_json_t@@@std@@@2@$0A@@std@@@std@@IEAAX_K@Z 0000000180007c10 f i coreclrembedding.obj
 0001:00006c10       ?_Init@?$_Hash@V?$_Umap_traits@V?$basic_string@_WU?$char_traits@_W@std@@V?$allocator@_W@2@@std@@HV?$_Uhash_compare@V?$basic_string@_WU?$char_traits@_W@std@@V?$allocator@_W@2@@std@@U?$hash@V?$basic_string@_WU?$char_traits@_W@std@@V?$allocator@_W@2@@std@@@2@U?$equal_to@V?$basic_string@_WU?$char_traits@_W@std@@V?$allocator@_W@2@@std@@@2@@2@V?$allocator@U?$pair@$$CBV?$basic_string@_WU?$char_traits@_W@std@@V?$allocator@_W@2@@std@@H@std@@@2@$0A@@std@@@std@@IEAAX_K@Z 0000000180007c10 f i coreclrembedding.obj
 0001:00006c10       ?_Init@?$_Hash@V?$_Umap_traits@V?$basic_string@_WU?$char_traits@_W@std@@V?$allocator@_W@2@@std@@V?$vector@V?$basic_string@_WU?$char_traits@_W@std@@V?$allocator@_W@2@@std@@V?$allocator@V?$basic_string@_WU?$char_traits@_W@std@@V?$allocator@_W@2@@std@@@2@@2@V?$_Uhash_compare@V?$basic_string@_WU?$char_traits@_W@std@@V?$allocator@_W@2@@std@@U?$hash@V?$basic_string@_WU?$char_traits@_W@std@@V?$allocator@_W@2@@std@@@2@U?$equal_to@V?$basic_string@_WU?$char_traits@_W@std@@V?$allocator@_W@2@@std@@@2@@2@V?$allocator@U?$pair@$$CBV?$basic_string@_WU?$char_traits@_W@std@@V?$allocator@_W@2@@std@@V?$vector@V?$basic_string@_WU?$char_traits@_W@std@@V?$allocator@_W@2@@std@@V?$allocator@V?$basic_string@_WU?$char_traits@_W@std@@V?$allocator@_W@2@@std@@@2@@2@@std@@@2@$0A@@std@@@std@@IEAAX_K@Z 0000000180007c10 f i coreclrembedding.obj
 0001:00006ca0       ?_Change_array@?$vector@PEB_WV?$allocator@PEB_W@std@@@std@@AEAAXQEAPEB_W_K1@Z 0000000180007ca0 f i coreclrembedding.obj
 0001:00006ca0       ?_Change_array@?$vector@PEBDV?$allocator@PEBD@std@@@std@@AEAAXQEAPEBD_K1@Z 0000000180007ca0 f i coreclrembedding.obj
 0001:00006d30       ?_Destroy@?$vector@Udeps_entry_t@@V?$allocator@Udeps_entry_t@@@std@@@std@@AEAAXPEAUdeps_entry_t@@0@Z 0000000180007d30 f i coreclrembedding.obj
 0001:00006d70       ?deallocate@?$allocator@Udeps_entry_t@@@std@@QEAAXQEAUdeps_entry_t@@_K@Z 0000000180007d70 f i coreclrembedding.obj
 0001:00006dc0       ?_Change_array@?$vector@V?$basic_string@_WU?$char_traits@_W@std@@V?$allocator@_W@2@@std@@V?$allocator@V?$basic_string@_WU?$char_traits@_W@std@@V?$allocator@_W@2@@std@@@2@@std@@AEAAXQEAV?$basic_string@_WU?$char_traits@_W@std@@V?$allocator@_W@2@@2@_K1@Z 0000000180007dc0 f i coreclrembedding.obj
 0001:00006e80       ?_Destroy@?$vector@V?$basic_string@_WU?$char_traits@_W@std@@V?$allocator@_W@2@@std@@V?$allocator@V?$basic_string@_WU?$char_traits@_W@std@@V?$allocator@_W@2@@std@@@2@@std@@AEAAXPEAV?$basic_string@_WU?$char_traits@_W@std@@V?$allocator@_W@2@@2@0@Z 0000000180007e80 f i coreclrembedding.obj
 0001:00006ec0       ?deallocate@?$allocator@V?$basic_string@_WU?$char_traits@_W@std@@V?$allocator@_W@2@@std@@@std@@QEAAXQEAV?$basic_string@_WU?$char_traits@_W@std@@V?$allocator@_W@2@@2@_K@Z 0000000180007ec0 f i coreclrembedding.obj
 0001:00006f10       ?assign@?$vector@V?$_List_unchecked_iterator@V?$_List_val@U?$_List_simple_types@U?$pair@$$CBV?$basic_string@_WU?$char_traits@_W@std@@V?$allocator@_W@2@@std@@H@std@@@std@@@std@@@std@@V?$allocator@V?$_List_unchecked_iterator@V?$_List_val@U?$_List_simple_types@U?$pair@$$CBV?$basic_string@_WU?$char_traits@_W@std@@V?$allocator@_W@2@@std@@H@std@@@std@@@std@@@std@@@2@@std@@QEAAX_KAEBV?$_List_unchecked_iterator@V?$_List_val@U?$_List_simple_types@U?$pair@$$CBV?$basic_string@_WU?$char_traits@_W@std@@V?$allocator@_W@2@@std@@H@std@@@std@@@std@@@2@@Z 0000000180007f10 f i coreclrembedding.obj
 0001:00006f10       ?assign@?$vector@V?$_List_unchecked_iterator@V?$_List_val@U?$_List_simple_types@U?$pair@$$CBV?$basic_string@_WU?$char_traits@_W@std@@V?$allocator@_W@2@@std@@V12@@std@@@std@@@std@@@std@@V?$allocator@V?$_List_unchecked_iterator@V?$_List_val@U?$_List_simple_types@U?$pair@$$CBV?$basic_string@_WU?$char_traits@_W@std@@V?$allocator@_W@2@@std@@V12@@std@@@std@@@std@@@std@@@2@@std@@QEAAX_KAEBV?$_List_unchecked_iterator@V?$_List_val@U?$_List_simple_types@U?$pair@$$CBV?$basic_string@_WU?$char_traits@_W@std@@V?$allocator@_W@2@@std@@V12@@std@@@std@@@std@@@2@@Z 0000000180007f10 f i coreclrembedding.obj
 0001:00006f10       ?assign@?$vector@V?$_List_unchecked_iterator@V?$_List_val@U?$_List_simple_types@U?$pair@$$CBV?$basic_string@_WU?$char_traits@_W@std@@V?$allocator@_W@2@@std@@Uassets_t@deps_json_t@@@std@@@std@@@std@@@std@@V?$allocator@V?$_List_unchecked_iterator@V?$_List_val@U?$_List_simple_types@U?$pair@$$CBV?$basic_string@_WU?$char_traits@_W@std@@V?$allocator@_W@2@@std@@Uassets_t@deps_json_t@@@std@@@std@@@std@@@std@@@2@@std@@QEAAX_KAEBV?$_List_unchecked_iterator@V?$_List_val@U?$_List_simple_types@U?$pair@$$CBV?$basic_string@_WU?$char_traits@_W@std@@V?$allocator@_W@2@@std@@Uassets_t@deps_json_t@@@std@@@std@@@std@@@2@@Z 0000000180007f10 f i coreclrembedding.obj
 0001:00006f10       ?assign@?$vector@V?$_List_unchecked_iterator@V?$_List_val@U?$_List_simple_types@U?$pair@$$CBV?$basic_string@_WU?$char_traits@_W@std@@V?$allocator@_W@2@@std@@Urid_assets_t@deps_json_t@@@std@@@std@@@std@@@std@@V?$allocator@V?$_List_unchecked_iterator@V?$_List_val@U?$_List_simple_types@U?$pair@$$CBV?$basic_string@_WU?$char_traits@_W@std@@V?$allocator@_W@2@@std@@Urid_assets_t@deps_json_t@@@std@@@std@@@std@@@std@@@2@@std@@QEAAX_KAEBV?$_List_unchecked_iterator@V?$_List_val@U?$_List_simple_types@U?$pair@$$CBV?$basic_string@_WU?$char_traits@_W@std@@V?$allocator@_W@2@@std@@Urid_assets_t@deps_json_t@@@std@@@std@@@std@@@2@@Z 0000000180007f10 f i coreclrembedding.obj
 0001:00006f10       ?assign@?$vector@V?$_List_unchecked_iterator@V?$_List_val@U?$_List_simple_types@U?$pair@$$CBV?$basic_string@_WU?$char_traits@_W@std@@V?$allocator@_W@2@@std@@V?$vector@V?$basic_string@_WU?$char_traits@_W@std@@V?$allocator@_W@2@@std@@V?$allocator@V?$basic_string@_WU?$char_traits@_W@std@@V?$allocator@_W@2@@std@@@2@@2@@std@@@std@@@std@@@std@@V?$allocator@V?$_List_unchecked_iterator@V?$_List_val@U?$_List_simple_types@U?$pair@$$CBV?$basic_string@_WU?$char_traits@_W@std@@V?$allocator@_W@2@@std@@V?$vector@V?$basic_string@_WU?$char_traits@_W@std@@V?$allocator@_W@2@@std@@V?$allocator@V?$basic_string@_WU?$char_traits@_W@std@@V?$allocator@_W@2@@std@@@2@@2@@std@@@std@@@std@@@std@@@2@@std@@QEAAX_KAEBV?$_List_unchecked_iterator@V?$_List_val@U?$_List_simple_types@U?$pair@$$CBV?$basic_string@_WU?$char_traits@_W@std@@V?$allocator@_W@2@@std@@V?$vector@V?$basic_string@_WU?$char_traits@_W@std@@V?$allocator@_W@2@@std@@V?$allocator@V?$basic_string@_WU?$char_traits@_W@std@@V?$allocator@_W@2@@std@@@2@@2@@std@@@std@@@std@@@2@@Z 0000000180007f10 f i coreclrembedding.obj
 0001:00006f10       ?assign@?$vector@V?$_List_unchecked_const_iterator@V?$_List_val@U?$_List_simple_types@V?$basic_string@_WU?$char_traits@_W@std@@V?$allocator@_W@2@@std@@@std@@@std@@U_Iterator_base0@2@@std@@V?$allocator@V?$_List_unchecked_const_iterator@V?$_List_val@U?$_List_simple_types@V?$basic_string@_WU?$char_traits@_W@std@@V?$allocator@_W@2@@std@@@std@@@std@@U_Iterator_base0@2@@std@@@2@@std@@QEAAX_KAEBV?$_List_unchecked_const_iterator@V?$_List_val@U?$_List_simple_types@V?$basic_string@_WU?$char_traits@_W@std@@V?$allocator@_W@2@@std@@@std@@@std@@U_Iterator_base0@2@@2@@Z 0000000180007f10 f i coreclrembedding.obj
 0001:000070d0       ?_Freenode@?$_List_buy@U?$pair@$$CBV?$basic_string@_WU?$char_traits@_W@std@@V?$allocator@_W@2@@std@@H@std@@V?$allocator@U?$pair@$$CBV?$basic_string@_WU?$char_traits@_W@std@@V?$allocator@_W@2@@std@@H@std@@@2@@std@@QEAAXPEAU?$_List_node@U?$pair@$$CBV?$basic_string@_WU?$char_traits@_W@std@@V?$allocator@_W@2@@std@@H@std@@PEAX@2@@Z 00000001800080d0 f i coreclrembedding.obj
 0001:00007140       ?_Reallocate_exactly@?$vector@V?$_List_unchecked_iterator@V?$_List_val@U?$_List_simple_types@U?$pair@$$CBV?$basic_string@_WU?$char_traits@_W@std@@V?$allocator@_W@2@@std@@Urid_assets_t@deps_json_t@@@std@@@std@@@std@@@std@@V?$allocator@V?$_List_unchecked_iterator@V?$_List_val@U?$_List_simple_types@U?$pair@$$CBV?$basic_string@_WU?$char_traits@_W@std@@V?$allocator@_W@2@@std@@Urid_assets_t@deps_json_t@@@std@@@std@@@std@@@std@@@2@@std@@AEAAX_K@Z 0000000180008140 f i coreclrembedding.obj
 0001:00007140       ?_Reallocate_exactly@?$vector@V?$_List_unchecked_iterator@V?$_List_val@U?$_List_simple_types@U?$pair@$$CBV?$basic_string@_WU?$char_traits@_W@std@@V?$allocator@_W@2@@std@@Uassets_t@deps_json_t@@@std@@@std@@@std@@@std@@V?$allocator@V?$_List_unchecked_iterator@V?$_List_val@U?$_List_simple_types@U?$pair@$$CBV?$basic_string@_WU?$char_traits@_W@std@@V?$allocator@_W@2@@std@@Uassets_t@deps_json_t@@@std@@@std@@@std@@@std@@@2@@std@@AEAAX_K@Z 0000000180008140 f i coreclrembedding.obj
 0001:00007140       ?_Reallocate_exactly@?$vector@V?$_List_unchecked_const_iterator@V?$_List_val@U?$_List_simple_types@V?$basic_string@_WU?$char_traits@_W@std@@V?$allocator@_W@2@@std@@@std@@@std@@U_Iterator_base0@2@@std@@V?$allocator@V?$_List_unchecked_const_iterator@V?$_List_val@U?$_List_simple_types@V?$basic_string@_WU?$char_traits@_W@std@@V?$allocator@_W@2@@std@@@std@@@std@@U_Iterator_base0@2@@std@@@2@@std@@AEAAX_K@Z 0000000180008140 f i coreclrembedding.obj
 0001:00007140       ?_Reallocate_exactly@?$vector@V?$_List_unchecked_iterator@V?$_List_val@U?$_List_simple_types@U?$pair@$$CBV?$basic_string@_WU?$char_traits@_W@std@@V?$allocator@_W@2@@std@@H@std@@@std@@@std@@@std@@V?$allocator@V?$_List_unchecked_iterator@V?$_List_val@U?$_List_simple_types@U?$pair@$$CBV?$basic_string@_WU?$char_traits@_W@std@@V?$allocator@_W@2@@std@@H@std@@@std@@@std@@@std@@@2@@std@@AEAAX_K@Z 0000000180008140 f i coreclrembedding.obj
 0001:00007140       ?_Reallocate_exactly@?$vector@V?$_List_unchecked_iterator@V?$_List_val@U?$_List_simple_types@U?$pair@$$CBV?$basic_string@_WU?$char_traits@_W@std@@V?$allocator@_W@2@@std@@V12@@std@@@std@@@std@@@std@@V?$allocator@V?$_List_unchecked_iterator@V?$_List_val@U?$_List_simple_types@U?$pair@$$CBV?$basic_string@_WU?$char_traits@_W@std@@V?$allocator@_W@2@@std@@V12@@std@@@std@@@std@@@std@@@2@@std@@AEAAX_K@Z 0000000180008140 f i coreclrembedding.obj
 0001:00007140       ?_Reallocate_exactly@?$vector@V?$_List_unchecked_iterator@V?$_List_val@U?$_List_simple_types@U?$pair@$$CBV?$basic_string@_WU?$char_traits@_W@std@@V?$allocator@_W@2@@std@@V?$vector@V?$basic_string@_WU?$char_traits@_W@std@@V?$allocator@_W@2@@std@@V?$allocator@V?$basic_string@_WU?$char_traits@_W@std@@V?$allocator@_W@2@@std@@@2@@2@@std@@@std@@@std@@@std@@V?$allocator@V?$_List_unchecked_iterator@V?$_List_val@U?$_List_simple_types@U?$pair@$$CBV?$basic_string@_WU?$char_traits@_W@std@@V?$allocator@_W@2@@std@@V?$vector@V?$basic_string@_WU?$char_traits@_W@std@@V?$allocator@_W@2@@std@@V?$allocator@V?$basic_string@_WU?$char_traits@_W@std@@V?$allocator@_W@2@@std@@@2@@2@@std@@@std@@@std@@@std@@@2@@std@@AEAAX_K@Z 0000000180008140 f i coreclrembedding.obj
 0001:00007280       ?_Xran@?$_String_val@U?$_Simple_types@D@std@@@std@@SAXXZ 0000000180008280 f i fx_muxer.obj
 0001:00007280       ?_Xran@?$_String_val@U?$_Simple_types@_W@std@@@std@@SAXXZ 0000000180008280 f i coreclrembedding.obj
 0001:000072a0       ??$?H_WU?$char_traits@_W@std@@V?$allocator@_W@1@@std@@YA?AV?$basic_string@_WU?$char_traits@_W@std@@V?$allocator@_W@2@@0@QEB_WAEBV10@@Z 00000001800082a0 f i coreclrembedding.obj
 0001:00007360       ??$?H_WU?$char_traits@_W@std@@V?$allocator@_W@1@@std@@YA?AV?$basic_string@_WU?$char_traits@_W@std@@V?$allocator@_W@2@@0@AEBV10@QEB_W@Z 0000000180008360 f i coreclrembedding.obj
 0001:00007410       ??$?H_WU?$char_traits@_W@std@@V?$allocator@_W@1@@std@@YA?AV?$basic_string@_WU?$char_traits@_W@std@@V?$allocator@_W@2@@0@$$QEAV10@AEBV10@@Z 0000000180008410 f i coreclrembedding.obj
 0001:00007470       ??$?H_WU?$char_traits@_W@std@@V?$allocator@_W@1@@std@@YA?AV?$basic_string@_WU?$char_traits@_W@std@@V?$allocator@_W@2@@0@$$QEAV10@0@Z 0000000180008470 f i coreclrembedding.obj
 0001:00007500       ??$?8_WU?$char_traits@_W@std@@V?$allocator@_W@1@@std@@YA_NAEBV?$basic_string@_WU?$char_traits@_W@std@@V?$allocator@_W@2@@0@QEB_W@Z 0000000180008500 f i coreclrembedding.obj
 0001:00007560       ??$_Emplace_reallocate@PEBD@?$vector@PEBDV?$allocator@PEBD@std@@@std@@QEAAPEAPEBDQEAPEBD$$QEAPEBD@Z 0000000180008560 f i coreclrembedding.obj
 0001:00007560       ??$_Emplace_reallocate@PEB_W@?$vector@PEB_WV?$allocator@PEB_W@std@@@std@@QEAAPEAPEB_WQEAPEB_W$$QEAPEB_W@Z 0000000180008560 f i coreclrembedding.obj
 0001:00007560       ??$_Emplace_reallocate@AEBQEBD@?$vector@PEBDV?$allocator@PEBD@std@@@std@@QEAAPEAPEBDQEAPEBDAEBQEBD@Z 0000000180008560 f i coreclrembedding.obj
 0001:000076c0       ??$_Range_construct_or_tidy@PEBQEBD@?$vector@PEBDV?$allocator@PEBD@std@@@std@@AEAAXPEBQEBD0Uforward_iterator_tag@1@@Z 00000001800086c0 f i coreclrembedding.obj
 0001:000077b0       ??$_Resize@V<lambda_fcdd3ea64b1d2cfadfa176f60ac5c2a0>@@@?$vector@V?$vector@DV?$allocator@D@std@@@std@@V?$allocator@V?$vector@DV?$allocator@D@std@@@std@@@2@@std@@AEAAX_KV<lambda_fcdd3ea64b1d2cfadfa176f60ac5c2a0>@@@Z 00000001800087b0 f i coreclrembedding.obj
 0001:00007a40       ??$_Emplace_reallocate@V?$basic_string@_WU?$char_traits@_W@std@@V?$allocator@_W@2@@std@@@?$vector@V?$basic_string@_WU?$char_traits@_W@std@@V?$allocator@_W@2@@std@@V?$allocator@V?$basic_string@_WU?$char_traits@_W@std@@V?$allocator@_W@2@@std@@@2@@std@@QEAAPEAV?$basic_string@_WU?$char_traits@_W@std@@V?$allocator@_W@2@@1@QEAV21@$$QEAV21@@Z 0000000180008a40 f i coreclrembedding.obj
 0001:00007c70       ??$_Emplace_reallocate@AEBV?$basic_string@_WU?$char_traits@_W@std@@V?$allocator@_W@2@@std@@@?$vector@V?$basic_string@_WU?$char_traits@_W@std@@V?$allocator@_W@2@@std@@V?$allocator@V?$basic_string@_WU?$char_traits@_W@std@@V?$allocator@_W@2@@std@@@2@@std@@QEAAPEAV?$basic_string@_WU?$char_traits@_W@std@@V?$allocator@_W@2@@1@QEAV21@AEBV21@@Z 0000000180008c70 f i coreclrembedding.obj
 0001:00007ef0       ??$_Ucopy@PEBV?$basic_string@_WU?$char_traits@_W@std@@V?$allocator@_W@2@@std@@@?$vector@V?$basic_string@_WU?$char_traits@_W@std@@V?$allocator@_W@2@@std@@V?$allocator@V?$basic_string@_WU?$char_traits@_W@std@@V?$allocator@_W@2@@std@@@2@@std@@AEAAPEAV?$basic_string@_WU?$char_traits@_W@std@@V?$allocator@_W@2@@1@PEBV21@0PEAV21@@Z 0000000180008ef0 f i fx_muxer.obj
 0001:00007ef0       ??$_Ucopy@PEAV?$basic_string@_WU?$char_traits@_W@std@@V?$allocator@_W@2@@std@@@?$vector@V?$basic_string@_WU?$char_traits@_W@std@@V?$allocator@_W@2@@std@@V?$allocator@V?$basic_string@_WU?$char_traits@_W@std@@V?$allocator@_W@2@@std@@@2@@std@@AEAAPEAV?$basic_string@_WU?$char_traits@_W@std@@V?$allocator@_W@2@@1@PEAV21@00@Z 0000000180008ef0 f i coreclrembedding.obj
 0001:00007f60       ??$_Reallocate_grow_by@V<lambda_19662282d61fd793232134d409f2e084>@@$$V@?$basic_string@_WU?$char_traits@_W@std@@V?$allocator@_W@2@@std@@QEAAAEAV01@_KV<lambda_19662282d61fd793232134d409f2e084>@@@Z 0000000180008f60 f i coreclrembedding.obj
 0001:000080c0       ??$_Reallocate_grow_by@V<lambda_1dfe18491bcca09701d8ccb01d0b0af4>@@PEB_W_K@?$basic_string@_WU?$char_traits@_W@std@@V?$allocator@_W@2@@std@@QEAAAEAV01@_KV<lambda_1dfe18491bcca09701d8ccb01d0b0af4>@@PEB_W_K@Z 00000001800090c0 f i coreclrembedding.obj
 0001:00008270       ??$_Destroy_range@V?$allocator@Uprobe_config_t@@@std@@@std@@YAXPEAUprobe_config_t@@0AEAV?$allocator@Uprobe_config_t@@@0@@Z 0000000180009270 f i coreclrembedding.obj
 0001:00008300       ??$_Destroy_range@V?$allocator@V?$vector@DV?$allocator@D@std@@@std@@@std@@@std@@YAXPEAV?$vector@DV?$allocator@D@std@@@0@0AEAV?$allocator@V?$vector@DV?$allocator@D@std@@@std@@@0@@Z 0000000180009300 f i coreclrembedding.obj
 0001:00008380       ??$_Fill_unchecked@PEAV?$_List_unchecked_iterator@V?$_List_val@U?$_List_simple_types@U?$pair@$$CBV?$basic_string@_WU?$char_traits@_W@std@@V?$allocator@_W@2@@std@@H@std@@@std@@@std@@@std@@V12@@std@@YAXPEAV?$_List_unchecked_iterator@V?$_List_val@U?$_List_simple_types@U?$pair@$$CBV?$basic_string@_WU?$char_traits@_W@std@@V?$allocator@_W@2@@std@@H@std@@@std@@@std@@@0@0AEBV10@@Z 0000000180009380 f i coreclrembedding.obj
 0001:00008380       ??$_Fill_unchecked@PEAV?$_List_unchecked_iterator@V?$_List_val@U?$_List_simple_types@U?$pair@$$CBV?$basic_string@_WU?$char_traits@_W@std@@V?$allocator@_W@2@@std@@V?$vector@V?$basic_string@_WU?$char_traits@_W@std@@V?$allocator@_W@2@@std@@V?$allocator@V?$basic_string@_WU?$char_traits@_W@std@@V?$allocator@_W@2@@std@@@2@@2@@std@@@std@@@std@@@std@@V12@@std@@YAXPEAV?$_List_unchecked_iterator@V?$_List_val@U?$_List_simple_types@U?$pair@$$CBV?$basic_string@_WU?$char_traits@_W@std@@V?$allocator@_W@2@@std@@V?$vector@V?$basic_string@_WU?$char_traits@_W@std@@V?$allocator@_W@2@@std@@V?$allocator@V?$basic_string@_WU?$char_traits@_W@std@@V?$allocator@_W@2@@std@@@2@@2@@std@@@std@@@std@@@0@0AEBV10@@Z 0000000180009380 f i coreclrembedding.obj
 0001:00008380       ??$_Fill_unchecked@PEAV?$_List_unchecked_const_iterator@V?$_List_val@U?$_List_simple_types@V?$basic_string@_WU?$char_traits@_W@std@@V?$allocator@_W@2@@std@@@std@@@std@@U_Iterator_base0@2@@std@@V12@@std@@YAXPEAV?$_List_unchecked_const_iterator@V?$_List_val@U?$_List_simple_types@V?$basic_string@_WU?$char_traits@_W@std@@V?$allocator@_W@2@@std@@@std@@@std@@U_Iterator_base0@2@@0@0AEBV10@@Z 0000000180009380 f i coreclrembedding.obj
 0001:00008380       ??$_Fill_unchecked@PEAV?$_List_unchecked_iterator@V?$_List_val@U?$_List_simple_types@U?$pair@$$CBV?$basic_string@_WU?$char_traits@_W@std@@V?$allocator@_W@2@@std@@Uassets_t@deps_json_t@@@std@@@std@@@std@@@std@@V12@@std@@YAXPEAV?$_List_unchecked_iterator@V?$_List_val@U?$_List_simple_types@U?$pair@$$CBV?$basic_string@_WU?$char_traits@_W@std@@V?$allocator@_W@2@@std@@Uassets_t@deps_json_t@@@std@@@std@@@std@@@0@0AEBV10@@Z 0000000180009380 f i coreclrembedding.obj
 0001:00008380       ??$_Fill_unchecked@PEAV?$_List_unchecked_iterator@V?$_List_val@U?$_List_simple_types@U?$pair@$$CBV?$basic_string@_WU?$char_traits@_W@std@@V?$allocator@_W@2@@std@@V12@@std@@@std@@@std@@@std@@V12@@std@@YAXPEAV?$_List_unchecked_iterator@V?$_List_val@U?$_List_simple_types@U?$pair@$$CBV?$basic_string@_WU?$char_traits@_W@std@@V?$allocator@_W@2@@std@@V12@@std@@@std@@@std@@@0@0AEBV10@@Z 0000000180009380 f i coreclrembedding.obj
 0001:00008380       ??$_Fill_unchecked@PEAV?$_List_unchecked_iterator@V?$_List_val@U?$_List_simple_types@U?$pair@$$CBV?$basic_string@_WU?$char_traits@_W@std@@V?$allocator@_W@2@@std@@Urid_assets_t@deps_json_t@@@std@@@std@@@std@@@std@@V12@@std@@YAXPEAV?$_List_unchecked_iterator@V?$_List_val@U?$_List_simple_types@U?$pair@$$CBV?$basic_string@_WU?$char_traits@_W@std@@V?$allocator@_W@2@@std@@Urid_assets_t@deps_json_t@@@std@@@std@@@std@@@0@0AEBV10@@Z 0000000180009380 f i coreclrembedding.obj
 0001:00008420       ??_G?$basic_string@_WU?$char_traits@_W@std@@V?$allocator@_W@2@@std@@QEAAPEAXI@Z 0000000180009420 f i coreclrembedding.obj
 0001:00008490       ??1?$pair@$$CBV?$basic_string@_WU?$char_traits@_W@std@@V?$allocator@_W@2@@std@@V12@@std@@QEAA@XZ 0000000180009490 f i coreclrembedding.obj
 0001:00008550       ??1?$pair@$$CBV?$basic_string@_WU?$char_traits@_W@std@@V?$allocator@_W@2@@std@@V?$vector@V?$basic_string@_WU?$char_traits@_W@std@@V?$allocator@_W@2@@std@@V?$allocator@V?$basic_string@_WU?$char_traits@_W@std@@V?$allocator@_W@2@@std@@@2@@2@@std@@QEAA@XZ 0000000180009550 f i coreclrembedding.obj
 0001:000085c0       ??1?$pair@$$CBV?$basic_string@_WU?$char_traits@_W@std@@V?$allocator@_W@2@@std@@Urid_assets_t@deps_json_t@@@std@@QEAA@XZ 00000001800095c0 f i coreclrembedding.obj
 0001:00008630       ??1?$pair@$$CBV?$basic_string@_WU?$char_traits@_W@std@@V?$allocator@_W@2@@std@@Uassets_t@deps_json_t@@@std@@QEAA@XZ 0000000180009630 f i coreclrembedding.obj
 0001:000086c0       ??$?0V?$allocator@_W@std@@$$V@?$_Compressed_pair@V?$allocator@_W@std@@V?$_String_val@U?$_Simple_types@_W@std@@@2@$00@std@@QEAA@U_One_then_variadic_args_t@1@$$QEAV?$allocator@_W@1@@Z 00000001800096c0 f i coreclrembedding.obj
 0001:000086c0       ??0?$_String_val@U?$_Simple_types@_W@std@@@std@@QEAA@XZ 00000001800096c0 f i coreclrembedding.obj
 0001:000086d0       ?_Xlen@?$basic_string@DU?$char_traits@D@std@@V?$allocator@D@2@@std@@SAXXZ 00000001800096d0 f i fx_muxer.obj
 0001:000086d0       ?_Xlen@?$basic_string@_WU?$char_traits@_W@std@@V?$allocator@_W@2@@std@@SAXXZ 00000001800096d0 f i coreclrembedding.obj
 0001:000086f0       ?insert@?$basic_string@_WU?$char_traits@_W@std@@V?$allocator@_W@2@@std@@QEAAAEAV12@_KQEB_W0@Z 00000001800096f0 f i coreclrembedding.obj
 0001:000087f0       ??$_Assign_range@PEBV?$basic_string@_WU?$char_traits@_W@std@@V?$allocator@_W@2@@std@@@?$vector@V?$basic_string@_WU?$char_traits@_W@std@@V?$allocator@_W@2@@std@@V?$allocator@V?$basic_string@_WU?$char_traits@_W@std@@V?$allocator@_W@2@@std@@@2@@std@@AEAAXPEBV?$basic_string@_WU?$char_traits@_W@std@@V?$allocator@_W@2@@1@0Uforward_iterator_tag@1@@Z 00000001800097f0 f i deps_resolver.obj
 0001:000087f0       ??$_Assign_range@PEAV?$basic_string@_WU?$char_traits@_W@std@@V?$allocator@_W@2@@std@@@?$vector@V?$basic_string@_WU?$char_traits@_W@std@@V?$allocator@_W@2@@std@@V?$allocator@V?$basic_string@_WU?$char_traits@_W@std@@V?$allocator@_W@2@@std@@@2@@std@@AEAAXPEAV?$basic_string@_WU?$char_traits@_W@std@@V?$allocator@_W@2@@1@0Uforward_iterator_tag@1@@Z 00000001800097f0 f i coreclrembedding.obj
 0001:00008980       ??$_Reallocate_grow_by@V<lambda_967c2ed818824c5314a20ec3af46b793>@@_KPEB_W_K@?$basic_string@_WU?$char_traits@_W@std@@V?$allocator@_W@2@@std@@QEAAAEAV01@_KV<lambda_967c2ed818824c5314a20ec3af46b793>@@_KPEB_W2@Z 0000000180009980 f i coreclrembedding.obj
 0001:00008b10       ??1?$_Uninitialized_backout_al@PEAV?$basic_string@_WU?$char_traits@_W@std@@V?$allocator@_W@2@@std@@V?$allocator@V?$basic_string@_WU?$char_traits@_W@std@@V?$allocator@_W@2@@std@@@2@@std@@QEAA@XZ 0000000180009b10 f i coreclrembedding.obj
 0001:00008b50       ?_Buynode0@?$_List_alloc@U?$_List_base_types@V?$basic_string@_WU?$char_traits@_W@std@@V?$allocator@_W@2@@std@@V?$allocator@V?$basic_string@_WU?$char_traits@_W@std@@V?$allocator@_W@2@@std@@@2@@std@@@std@@QEAAPEAU?$_List_node@V?$basic_string@_WU?$char_traits@_W@std@@V?$allocator@_W@2@@std@@PEAX@2@PEAU32@0@Z 0000000180009b50 f i coreclrembedding.obj
 0001:00008b90       ?_Buynode0@?$_List_alloc@U?$_List_base_types@U?$pair@$$CBV?$basic_string@_WU?$char_traits@_W@std@@V?$allocator@_W@2@@std@@V12@@std@@V?$allocator@U?$pair@$$CBV?$basic_string@_WU?$char_traits@_W@std@@V?$allocator@_W@2@@std@@V12@@std@@@2@@std@@@std@@QEAAPEAU?$_List_node@U?$pair@$$CBV?$basic_string@_WU?$char_traits@_W@std@@V?$allocator@_W@2@@std@@V12@@std@@PEAX@2@PEAU32@0@Z 0000000180009b90 f i coreclrembedding.obj
 0001:00008bd0       ?_Buynode0@?$_List_alloc@U?$_List_base_types@U?$pair@$$CBV?$basic_string@_WU?$char_traits@_W@std@@V?$allocator@_W@2@@std@@V?$vector@V?$basic_string@_WU?$char_traits@_W@std@@V?$allocator@_W@2@@std@@V?$allocator@V?$basic_string@_WU?$char_traits@_W@std@@V?$allocator@_W@2@@std@@@2@@2@@std@@V?$allocator@U?$pair@$$CBV?$basic_string@_WU?$char_traits@_W@std@@V?$allocator@_W@2@@std@@V?$vector@V?$basic_string@_WU?$char_traits@_W@std@@V?$allocator@_W@2@@std@@V?$allocator@V?$basic_string@_WU?$char_traits@_W@std@@V?$allocator@_W@2@@std@@@2@@2@@std@@@2@@std@@@std@@QEAAPEAU?$_List_node@U?$pair@$$CBV?$basic_string@_WU?$char_traits@_W@std@@V?$allocator@_W@2@@std@@V?$vector@V?$basic_string@_WU?$char_traits@_W@std@@V?$allocator@_W@2@@std@@V?$allocator@V?$basic_string@_WU?$char_traits@_W@std@@V?$allocator@_W@2@@std@@@2@@2@@std@@PEAX@2@PEAU32@0@Z 0000000180009bd0 f i coreclrembedding.obj
 0001:00008c10       ?_Buynode0@?$_List_alloc@U?$_List_base_types@U?$pair@$$CBV?$basic_string@_WU?$char_traits@_W@std@@V?$allocator@_W@2@@std@@H@std@@V?$allocator@U?$pair@$$CBV?$basic_string@_WU?$char_traits@_W@std@@V?$allocator@_W@2@@std@@H@std@@@2@@std@@@std@@QEAAPEAU?$_List_node@U?$pair@$$CBV?$basic_string@_WU?$char_traits@_W@std@@V?$allocator@_W@2@@std@@H@std@@PEAX@2@PEAU32@0@Z 0000000180009c10 f i coreclrembedding.obj
 0001:00008c50       ?_Buynode0@?$_List_alloc@U?$_List_base_types@U?$pair@$$CBV?$basic_string@_WU?$char_traits@_W@std@@V?$allocator@_W@2@@std@@Urid_assets_t@deps_json_t@@@std@@V?$allocator@U?$pair@$$CBV?$basic_string@_WU?$char_traits@_W@std@@V?$allocator@_W@2@@std@@Urid_assets_t@deps_json_t@@@std@@@2@@std@@@std@@QEAAPEAU?$_List_node@U?$pair@$$CBV?$basic_string@_WU?$char_traits@_W@std@@V?$allocator@_W@2@@std@@Urid_assets_t@deps_json_t@@@std@@PEAX@2@PEAU32@0@Z 0000000180009c50 f i coreclrembedding.obj
 0001:00008c90       ?_Buynode0@?$_List_alloc@U?$_List_base_types@U?$pair@$$CBV?$basic_string@_WU?$char_traits@_W@std@@V?$allocator@_W@2@@std@@Uassets_t@deps_json_t@@@std@@V?$allocator@U?$pair@$$CBV?$basic_string@_WU?$char_traits@_W@std@@V?$allocator@_W@2@@std@@Uassets_t@deps_json_t@@@std@@@2@@std@@@std@@QEAAPEAU?$_List_node@U?$pair@$$CBV?$basic_string@_WU?$char_traits@_W@std@@V?$allocator@_W@2@@std@@Uassets_t@deps_json_t@@@std@@PEAX@2@PEAU32@0@Z 0000000180009c90 f i coreclrembedding.obj
 0001:00008cd0       ?deallocate@?$allocator@U?$_List_node@V?$basic_string@_WU?$char_traits@_W@std@@V?$allocator@_W@2@@std@@PEAX@std@@@std@@QEAAXQEAU?$_List_node@V?$basic_string@_WU?$char_traits@_W@std@@V?$allocator@_W@2@@std@@PEAX@2@_K@Z 0000000180009cd0 f i coreclrembedding.obj
 0001:00008ce0       ?deallocate@?$allocator@U?$_List_node@U?$pair@$$CBV?$basic_string@_WU?$char_traits@_W@std@@V?$allocator@_W@2@@std@@V12@@std@@PEAX@std@@@std@@QEAAXQEAU?$_List_node@U?$pair@$$CBV?$basic_string@_WU?$char_traits@_W@std@@V?$allocator@_W@2@@std@@V12@@std@@PEAX@2@_K@Z 0000000180009ce0 f i coreclrembedding.obj
 0001:00008cf0       ?deallocate@?$allocator@U?$_List_node@U?$pair@$$CBV?$basic_string@_WU?$char_traits@_W@std@@V?$allocator@_W@2@@std@@V?$vector@V?$basic_string@_WU?$char_traits@_W@std@@V?$allocator@_W@2@@std@@V?$allocator@V?$basic_string@_WU?$char_traits@_W@std@@V?$allocator@_W@2@@std@@@2@@2@@std@@PEAX@std@@@std@@QEAAXQEAU?$_List_node@U?$pair@$$CBV?$basic_string@_WU?$char_traits@_W@std@@V?$allocator@_W@2@@std@@V?$vector@V?$basic_string@_WU?$char_traits@_W@std@@V?$allocator@_W@2@@std@@V?$allocator@V?$basic_string@_WU?$char_traits@_W@std@@V?$allocator@_W@2@@std@@@2@@2@@std@@PEAX@2@_K@Z 0000000180009cf0 f i coreclrembedding.obj
 0001:00008d00       ?deallocate@?$allocator@U?$_List_node@U?$pair@$$CBV?$basic_string@_WU?$char_traits@_W@std@@V?$allocator@_W@2@@std@@H@std@@PEAX@std@@@std@@QEAAXQEAU?$_List_node@U?$pair@$$CBV?$basic_string@_WU?$char_traits@_W@std@@V?$allocator@_W@2@@std@@H@std@@PEAX@2@_K@Z 0000000180009d00 f i coreclrembedding.obj
 0001:00008d10       ?deallocate@?$allocator@U?$_List_node@U?$pair@$$CBV?$basic_string@_WU?$char_traits@_W@std@@V?$allocator@_W@2@@std@@Urid_assets_t@deps_json_t@@@std@@PEAX@std@@@std@@QEAAXQEAU?$_List_node@U?$pair@$$CBV?$basic_string@_WU?$char_traits@_W@std@@V?$allocator@_W@2@@std@@Urid_assets_t@deps_json_t@@@std@@PEAX@2@_K@Z 0000000180009d10 f i coreclrembedding.obj
 0001:00008d20       ?deallocate@?$allocator@U?$_List_node@U?$pair@$$CBV?$basic_string@_WU?$char_traits@_W@std@@V?$allocator@_W@2@@std@@Uassets_t@deps_json_t@@@std@@PEAX@std@@@std@@QEAAXQEAU?$_List_node@U?$pair@$$CBV?$basic_string@_WU?$char_traits@_W@std@@V?$allocator@_W@2@@std@@Uassets_t@deps_json_t@@@std@@PEAX@2@_K@Z 0000000180009d20 f i coreclrembedding.obj
 0001:00008d30       ??$_Copy_unchecked@PEBV?$basic_string@_WU?$char_traits@_W@std@@V?$allocator@_W@2@@std@@PEAV12@@std@@YAPEAV?$basic_string@_WU?$char_traits@_W@std@@V?$allocator@_W@2@@0@PEBV10@0PEAV10@@Z 0000000180009d30 f i deps_resolver.obj
 0001:00008d30       ??$_Copy_unchecked@PEAV?$basic_string@_WU?$char_traits@_W@std@@V?$allocator@_W@2@@std@@PEAV12@@std@@YAPEAV?$basic_string@_WU?$char_traits@_W@std@@V?$allocator@_W@2@@0@PEAV10@00@Z 0000000180009d30 f i coreclrembedding.obj
 0001:00008d90       ?coreClrFuncProxy@@YAXAEBV?$FunctionCallbackInfo@VValue@v8@@@Nan@@@Z 0000000180009d90 f   coreclrfunc.obj
 0001:00008e70       ?InitializeInstance@CoreClrFunc@@CA?AV?$Local@VFunction@v8@@@v8@@PEAX@Z 0000000180009e70 f   coreclrfunc.obj
 0001:00009260       ?Call@CoreClrFunc@@QEAA?AV?$Local@VValue@v8@@@v8@@V23@0@Z 000000018000a260 f   coreclrfunc.obj
 0001:00009620       ?Initialize@CoreClrFunc@@SAXAEBV?$FunctionCallbackInfo@VValue@v8@@@Nan@@@Z 000000018000a620 f   coreclrfunc.obj
 0001:00009f20       ?FreeMarshalData@CoreClrFunc@@SAXPEAXH@Z 000000018000af20 f   coreclrfunc.obj
 0001:0000a0a0       ?CopyV8StringBytes@CoreClrFunc@@CAPEADV?$Local@VString@v8@@@v8@@@Z 000000018000b0a0 f   coreclrfunc.obj
 0001:0000a120       ?MarshalV8ExceptionToCLR@CoreClrFunc@@SAXV?$Local@VValue@v8@@@v8@@PEAPEAX@Z 000000018000b120 f   coreclrfunc.obj
 0001:0000a220       ?MarshalV8ToCLR@CoreClrFunc@@SAXV?$Local@VValue@v8@@@v8@@PEAPEAXPEAH@Z 000000018000b220 f   coreclrfunc.obj
 0001:0000a780       ?MarshalCLRToV8@CoreClrFunc@@SA?AV?$Local@VValue@v8@@@v8@@PEAXH@Z 000000018000b780 f   coreclrfunc.obj
 0001:0000acb0       ??$coreClrFuncProxyNearDeath@X@@YAXAEBV?$WeakCallbackInfo@X@Nan@@@Z 000000018000bcb0 f i coreclrfunc.obj
 0001:0000ad10       ??$invokeparameter@$00@?$WeakCallbackInfo@X@Nan@@CAXAEBV?$WeakCallbackInfo@V?$WeakCallbackInfo@X@Nan@@@v8@@@Z 000000018000bd10 f i coreclrfunc.obj
 0001:0000ad70       ??$invokeparameter@$0A@@?$WeakCallbackInfo@X@Nan@@CAXAEBV?$WeakCallbackInfo@V?$WeakCallbackInfo@X@Nan@@@v8@@@Z 000000018000bd70 f i coreclrfunc.obj
 0001:0000adb0       ?Call@CoreClrNodejsFunc@@SAXPEAXHPEAV1@0P6AX0H0H@Z@Z 000000018000bdb0 f   coreclrnodejsfunc.obj
 0001:0000aeb0       ??0CoreClrFuncInvokeContext@@QEAA@V?$Local@VValue@v8@@@v8@@PEAX@Z 000000018000beb0 f   coreclrfuncinvokecontext.obj
 0001:0000af50       ?TaskComplete@CoreClrFuncInvokeContext@@SAXPEAXHHPEAV1@@Z 000000018000bf50 f   coreclrfuncinvokecontext.obj
 0001:0000afe0       ?InvokeCallback@CoreClrFuncInvokeContext@@SAXPEAX@Z 000000018000bfe0 f   coreclrfuncinvokecontext.obj
 0001:0000b220       ??1TryCatch@Nan@@QEAA@XZ   000000018000c220 f i coreclrfuncinvokecontext.obj
 0001:0000b230       ?coreClrV8FuncCallback@@YAXAEBV?$FunctionCallbackInfo@VValue@v8@@@Nan@@@Z 000000018000c230 f   coreclrnodejsfuncinvokecontext.obj
 0001:0000b400       ?InvokeCallback@CoreClrNodejsFuncInvokeContext@@SAXPEAX@Z 000000018000c400 f   coreclrnodejsfuncinvokecontext.obj
 0001:0000b8d0       ?throwV8Exception@@YA?AV?$Local@VValue@v8@@@v8@@V12@@Z 000000018000c8d0 f   utils.obj
 0001:0000b940       ?throwV8Exception@@YA?AV?$Local@VValue@v8@@@v8@@PEBDZZ 000000018000c940 f   utils.obj
 0001:0000bad0       ?strcasecmp@pal@@YAHPEB_W0@Z 000000018000cad0 f i pal_utils.obj
 0001:0000bae0       ?strncasecmp@pal@@YAHPEB_W0H@Z 000000018000cae0 f i pal_utils.obj
 0001:0000baf0       ?library_exists_in_dir@@YA_NAEBV?$basic_string@_WU?$char_traits@_W@std@@V?$allocator@_W@2@@std@@0PEAV12@@Z 000000018000caf0 f   pal_utils.obj
 0001:0000bc20       ?coreclr_exists_in_dir@@YA_NAEBV?$basic_string@_WU?$char_traits@_W@std@@V?$allocator@_W@2@@std@@@Z 000000018000cc20 f   pal_utils.obj
 0001:0000bd20       ?append_path@@YAXPEAV?$basic_string@_WU?$char_traits@_W@std@@V?$allocator@_W@2@@std@@PEB_W@Z 000000018000cd20 f   pal_utils.obj
 0001:0000bea0       ?strip_file_ext@@YA?AV?$basic_string@_WU?$char_traits@_W@std@@V?$allocator@_W@2@@std@@AEBV12@@Z 000000018000cea0 f   pal_utils.obj
 0001:0000bff0       ?get_filename_without_ext@@YA?AV?$basic_string@_WU?$char_traits@_W@std@@V?$allocator@_W@2@@std@@AEBV12@@Z 000000018000cff0 f   pal_utils.obj
 0001:0000c100       ?get_directory@@YA?AV?$basic_string@_WU?$char_traits@_W@std@@V?$allocator@_W@2@@std@@AEBV12@@Z 000000018000d100 f   pal_utils.obj
 0001:0000c1b0       ?find_last_of@?$basic_string@_WU?$char_traits@_W@std@@V?$allocator@_W@2@@std@@QEBA_KQEB_W_K@Z 000000018000d1b0 f i pal_utils.obj
 0001:0000c300       ?equal_range@?$_Hash@V?$_Umap_traits@V?$basic_string@_WU?$char_traits@_W@std@@V?$allocator@_W@2@@std@@Uassets_t@deps_json_t@@V?$_Uhash_compare@V?$basic_string@_WU?$char_traits@_W@std@@V?$allocator@_W@2@@std@@U?$hash@V?$basic_string@_WU?$char_traits@_W@std@@V?$allocator@_W@2@@std@@@2@U?$equal_to@V?$basic_string@_WU?$char_traits@_W@std@@V?$allocator@_W@2@@std@@@2@@2@V?$allocator@U?$pair@$$CBV?$basic_string@_WU?$char_traits@_W@std@@V?$allocator@_W@2@@std@@Uassets_t@deps_json_t@@@std@@@2@$0A@@std@@@std@@QEBA?AU?$pair@V?$_List_const_iterator@V?$_List_val@U?$_List_simple_types@U?$pair@$$CBV?$basic_string@_WU?$char_traits@_W@std@@V?$allocator@_W@2@@std@@Uassets_t@deps_json_t@@@std@@@std@@@std@@@std@@V12@@2@AEBV?$basic_string@_WU?$char_traits@_W@std@@V?$allocator@_W@2@@2@@Z 000000018000d300 f i deps_format.obj
 0001:0000c300       ?equal_range@?$_Hash@V?$_Umap_traits@V?$basic_string@_WU?$char_traits@_W@std@@V?$allocator@_W@2@@std@@Urid_assets_t@deps_json_t@@V?$_Uhash_compare@V?$basic_string@_WU?$char_traits@_W@std@@V?$allocator@_W@2@@std@@U?$hash@V?$basic_string@_WU?$char_traits@_W@std@@V?$allocator@_W@2@@std@@@2@U?$equal_to@V?$basic_string@_WU?$char_traits@_W@std@@V?$allocator@_W@2@@std@@@2@@2@V?$allocator@U?$pair@$$CBV?$basic_string@_WU?$char_traits@_W@std@@V?$allocator@_W@2@@std@@Urid_assets_t@deps_json_t@@@std@@@2@$0A@@std@@@std@@QEBA?AU?$pair@V?$_List_const_iterator@V?$_List_val@U?$_List_simple_types@U?$pair@$$CBV?$basic_string@_WU?$char_traits@_W@std@@V?$allocator@_W@2@@std@@Urid_assets_t@deps_json_t@@@std@@@std@@@std@@@std@@V12@@2@AEBV?$basic_string@_WU?$char_traits@_W@std@@V?$allocator@_W@2@@2@@Z 000000018000d300 f i deps_format.obj
 0001:0000c300       ?equal_range@?$_Hash@V?$_Umap_traits@V?$basic_string@_WU?$char_traits@_W@std@@V?$allocator@_W@2@@std@@V12@V?$_Uhash_compare@V?$basic_string@_WU?$char_traits@_W@std@@V?$allocator@_W@2@@std@@U?$hash@V?$basic_string@_WU?$char_traits@_W@std@@V?$allocator@_W@2@@std@@@2@U?$equal_to@V?$basic_string@_WU?$char_traits@_W@std@@V?$allocator@_W@2@@std@@@2@@2@V?$allocator@U?$pair@$$CBV?$basic_string@_WU?$char_traits@_W@std@@V?$allocator@_W@2@@std@@V12@@std@@@2@$0A@@std@@@std@@QEBA?AU?$pair@V?$_List_const_iterator@V?$_List_val@U?$_List_simple_types@U?$pair@$$CBV?$basic_string@_WU?$char_traits@_W@std@@V?$allocator@_W@2@@std@@V12@@std@@@std@@@std@@@std@@V12@@2@AEBV?$basic_string@_WU?$char_traits@_W@std@@V?$allocator@_W@2@@2@@Z 000000018000d300 f i deps_resolver.obj
 0001:0000c300       ?equal_range@?$_Hash@V?$_Umap_traits@V?$basic_string@_WU?$char_traits@_W@std@@V?$allocator@_W@2@@std@@V?$vector@V?$basic_string@_WU?$char_traits@_W@std@@V?$allocator@_W@2@@std@@V?$allocator@V?$basic_string@_WU?$char_traits@_W@std@@V?$allocator@_W@2@@std@@@2@@2@V?$_Uhash_compare@V?$basic_string@_WU?$char_traits@_W@std@@V?$allocator@_W@2@@std@@U?$hash@V?$basic_string@_WU?$char_traits@_W@std@@V?$allocator@_W@2@@std@@@2@U?$equal_to@V?$basic_string@_WU?$char_traits@_W@std@@V?$allocator@_W@2@@std@@@2@@2@V?$allocator@U?$pair@$$CBV?$basic_string@_WU?$char_traits@_W@std@@V?$allocator@_W@2@@std@@V?$vector@V?$basic_string@_WU?$char_traits@_W@std@@V?$allocator@_W@2@@std@@V?$allocator@V?$basic_string@_WU?$char_traits@_W@std@@V?$allocator@_W@2@@std@@@2@@2@@std@@@2@$0A@@std@@@std@@QEBA?AU?$pair@V?$_List_const_iterator@V?$_List_val@U?$_List_simple_types@U?$pair@$$CBV?$basic_string@_WU?$char_traits@_W@std@@V?$allocator@_W@2@@std@@V?$vector@V?$basic_string@_WU?$char_traits@_W@std@@V?$allocator@_W@2@@std@@V?$allocator@V?$basic_string@_WU?$char_traits@_W@std@@V?$allocator@_W@2@@std@@@2@@2@@std@@@std@@@std@@@std@@V12@@2@AEBV?$basic_string@_WU?$char_traits@_W@std@@V?$allocator@_W@2@@2@@Z 000000018000d300 f i pal_utils.obj
 0001:0000c490       ?lower_bound@?$_Hash@V?$_Umap_traits@V?$basic_string@_WU?$char_traits@_W@std@@V?$allocator@_W@2@@std@@V?$vector@V?$basic_string@_WU?$char_traits@_W@std@@V?$allocator@_W@2@@std@@V?$allocator@V?$basic_string@_WU?$char_traits@_W@std@@V?$allocator@_W@2@@std@@@2@@2@V?$_Uhash_compare@V?$basic_string@_WU?$char_traits@_W@std@@V?$allocator@_W@2@@std@@U?$hash@V?$basic_string@_WU?$char_traits@_W@std@@V?$allocator@_W@2@@std@@@2@U?$equal_to@V?$basic_string@_WU?$char_traits@_W@std@@V?$allocator@_W@2@@std@@@2@@2@V?$allocator@U?$pair@$$CBV?$basic_string@_WU?$char_traits@_W@std@@V?$allocator@_W@2@@std@@V?$vector@V?$basic_string@_WU?$char_traits@_W@std@@V?$allocator@_W@2@@std@@V?$allocator@V?$basic_string@_WU?$char_traits@_W@std@@V?$allocator@_W@2@@std@@@2@@2@@std@@@2@$0A@@std@@@std@@QEAA?AV?$_List_iterator@V?$_List_val@U?$_List_simple_types@U?$pair@$$CBV?$basic_string@_WU?$char_traits@_W@std@@V?$allocator@_W@2@@std@@V?$vector@V?$basic_string@_WU?$char_traits@_W@std@@V?$allocator@_W@2@@std@@V?$allocator@V?$basic_string@_WU?$char_traits@_W@std@@V?$allocator@_W@2@@std@@@2@@2@@std@@@std@@@std@@@2@AEBV?$basic_string@_WU?$char_traits@_W@std@@V?$allocator@_W@2@@2@@Z 000000018000d490 f i pal_utils.obj
 0001:0000c490       ?lower_bound@?$_Hash@V?$_Umap_traits@V?$basic_string@_WU?$char_traits@_W@std@@V?$allocator@_W@2@@std@@Urid_assets_t@deps_json_t@@V?$_Uhash_compare@V?$basic_string@_WU?$char_traits@_W@std@@V?$allocator@_W@2@@std@@U?$hash@V?$basic_string@_WU?$char_traits@_W@std@@V?$allocator@_W@2@@std@@@2@U?$equal_to@V?$basic_string@_WU?$char_traits@_W@std@@V?$allocator@_W@2@@std@@@2@@2@V?$allocator@U?$pair@$$CBV?$basic_string@_WU?$char_traits@_W@std@@V?$allocator@_W@2@@std@@Urid_assets_t@deps_json_t@@@std@@@2@$0A@@std@@@std@@QEBA?AV?$_List_const_iterator@V?$_List_val@U?$_List_simple_types@U?$pair@$$CBV?$basic_string@_WU?$char_traits@_W@std@@V?$allocator@_W@2@@std@@Urid_assets_t@deps_json_t@@@std@@@std@@@std@@@2@AEBV?$basic_string@_WU?$char_traits@_W@std@@V?$allocator@_W@2@@2@@Z 000000018000d490 f i deps_format.obj
 0001:0000c490       ?lower_bound@?$_Hash@V?$_Umap_traits@V?$basic_string@_WU?$char_traits@_W@std@@V?$allocator@_W@2@@std@@V?$vector@V?$basic_string@_WU?$char_traits@_W@std@@V?$allocator@_W@2@@std@@V?$allocator@V?$basic_string@_WU?$char_traits@_W@std@@V?$allocator@_W@2@@std@@@2@@2@V?$_Uhash_compare@V?$basic_string@_WU?$char_traits@_W@std@@V?$allocator@_W@2@@std@@U?$hash@V?$basic_string@_WU?$char_traits@_W@std@@V?$allocator@_W@2@@std@@@2@U?$equal_to@V?$basic_string@_WU?$char_traits@_W@std@@V?$allocator@_W@2@@std@@@2@@2@V?$allocator@U?$pair@$$CBV?$basic_string@_WU?$char_traits@_W@std@@V?$allocator@_W@2@@std@@V?$vector@V?$basic_string@_WU?$char_traits@_W@std@@V?$allocator@_W@2@@std@@V?$allocator@V?$basic_string@_WU?$char_traits@_W@std@@V?$allocator@_W@2@@std@@@2@@2@@std@@@2@$0A@@std@@@std@@QEBA?AV?$_List_const_iterator@V?$_List_val@U?$_List_simple_types@U?$pair@$$CBV?$basic_string@_WU?$char_traits@_W@std@@V?$allocator@_W@2@@std@@V?$vector@V?$basic_string@_WU?$char_traits@_W@std@@V?$allocator@_W@2@@std@@V?$allocator@V?$basic_string@_WU?$char_traits@_W@std@@V?$allocator@_W@2@@std@@@2@@2@@std@@@std@@@std@@@2@AEBV?$basic_string@_WU?$char_traits@_W@std@@V?$allocator@_W@2@@2@@Z 000000018000d490 f i pal_utils.obj
 0001:0000c490       ?lower_bound@?$_Hash@V?$_Umap_traits@V?$basic_string@_WU?$char_traits@_W@std@@V?$allocator@_W@2@@std@@HV?$_Uhash_compare@V?$basic_string@_WU?$char_traits@_W@std@@V?$allocator@_W@2@@std@@U?$hash@V?$basic_string@_WU?$char_traits@_W@std@@V?$allocator@_W@2@@std@@@2@U?$equal_to@V?$basic_string@_WU?$char_traits@_W@std@@V?$allocator@_W@2@@std@@@2@@2@V?$allocator@U?$pair@$$CBV?$basic_string@_WU?$char_traits@_W@std@@V?$allocator@_W@2@@std@@H@std@@@2@$0A@@std@@@std@@QEAA?AV?$_List_iterator@V?$_List_val@U?$_List_simple_types@U?$pair@$$CBV?$basic_string@_WU?$char_traits@_W@std@@V?$allocator@_W@2@@std@@H@std@@@std@@@std@@@2@AEBV?$basic_string@_WU?$char_traits@_W@std@@V?$allocator@_W@2@@2@@Z 000000018000d490 f i deps_format.obj
 0001:0000c490       ?lower_bound@?$_Hash@V?$_Umap_traits@V?$basic_string@_WU?$char_traits@_W@std@@V?$allocator@_W@2@@std@@Uassets_t@deps_json_t@@V?$_Uhash_compare@V?$basic_string@_WU?$char_traits@_W@std@@V?$allocator@_W@2@@std@@U?$hash@V?$basic_string@_WU?$char_traits@_W@std@@V?$allocator@_W@2@@std@@@2@U?$equal_to@V?$basic_string@_WU?$char_traits@_W@std@@V?$allocator@_W@2@@std@@@2@@2@V?$allocator@U?$pair@$$CBV?$basic_string@_WU?$char_traits@_W@std@@V?$allocator@_W@2@@std@@Uassets_t@deps_json_t@@@std@@@2@$0A@@std@@@std@@QEAA?AV?$_List_iterator@V?$_List_val@U?$_List_simple_types@U?$pair@$$CBV?$basic_string@_WU?$char_traits@_W@std@@V?$allocator@_W@2@@std@@Uassets_t@deps_json_t@@@std@@@std@@@std@@@2@AEBV?$basic_string@_WU?$char_traits@_W@std@@V?$allocator@_W@2@@2@@Z 000000018000d490 f i deps_format.obj
 0001:0000c490       ?lower_bound@?$_Hash@V?$_Umap_traits@V?$basic_string@_WU?$char_traits@_W@std@@V?$allocator@_W@2@@std@@V12@V?$_Uhash_compare@V?$basic_string@_WU?$char_traits@_W@std@@V?$allocator@_W@2@@std@@U?$hash@V?$basic_string@_WU?$char_traits@_W@std@@V?$allocator@_W@2@@std@@@2@U?$equal_to@V?$basic_string@_WU?$char_traits@_W@std@@V?$allocator@_W@2@@std@@@2@@2@V?$allocator@U?$pair@$$CBV?$basic_string@_WU?$char_traits@_W@std@@V?$allocator@_W@2@@std@@V12@@std@@@2@$0A@@std@@@std@@QEAA?AV?$_List_iterator@V?$_List_val@U?$_List_simple_types@U?$pair@$$CBV?$basic_string@_WU?$char_traits@_W@std@@V?$allocator@_W@2@@std@@V12@@std@@@std@@@std@@@2@AEBV?$basic_string@_WU?$char_traits@_W@std@@V?$allocator@_W@2@@2@@Z 000000018000d490 f i deps_resolver.obj
 0001:0000c490       ?lower_bound@?$_Hash@V?$_Umap_traits@V?$basic_string@_WU?$char_traits@_W@std@@V?$allocator@_W@2@@std@@Urid_assets_t@deps_json_t@@V?$_Uhash_compare@V?$basic_string@_WU?$char_traits@_W@std@@V?$allocator@_W@2@@std@@U?$hash@V?$basic_string@_WU?$char_traits@_W@std@@V?$allocator@_W@2@@std@@@2@U?$equal_to@V?$basic_string@_WU?$char_traits@_W@std@@V?$allocator@_W@2@@std@@@2@@2@V?$allocator@U?$pair@$$CBV?$basic_string@_WU?$char_traits@_W@std@@V?$allocator@_W@2@@std@@Urid_assets_t@deps_json_t@@@std@@@2@$0A@@std@@@std@@QEAA?AV?$_List_iterator@V?$_List_val@U?$_List_simple_types@U?$pair@$$CBV?$basic_string@_WU?$char_traits@_W@std@@V?$allocator@_W@2@@std@@Urid_assets_t@deps_json_t@@@std@@@std@@@std@@@2@AEBV?$basic_string@_WU?$char_traits@_W@std@@V?$allocator@_W@2@@2@@Z 000000018000d490 f i deps_format.obj
 0001:0000c600       ?_Make_iter@?$_Hash@V?$_Umap_traits@V?$basic_string@_WU?$char_traits@_W@std@@V?$allocator@_W@2@@std@@V?$vector@V?$basic_string@_WU?$char_traits@_W@std@@V?$allocator@_W@2@@std@@V?$allocator@V?$basic_string@_WU?$char_traits@_W@std@@V?$allocator@_W@2@@std@@@2@@2@V?$_Uhash_compare@V?$basic_string@_WU?$char_traits@_W@std@@V?$allocator@_W@2@@std@@U?$hash@V?$basic_string@_WU?$char_traits@_W@std@@V?$allocator@_W@2@@std@@@2@U?$equal_to@V?$basic_string@_WU?$char_traits@_W@std@@V?$allocator@_W@2@@std@@@2@@2@V?$allocator@U?$pair@$$CBV?$basic_string@_WU?$char_traits@_W@std@@V?$allocator@_W@2@@std@@V?$vector@V?$basic_string@_WU?$char_traits@_W@std@@V?$allocator@_W@2@@std@@V?$allocator@V?$basic_string@_WU?$char_traits@_W@std@@V?$allocator@_W@2@@std@@@2@@2@@std@@@2@$0A@@std@@@std@@QEBA?AV?$_List_iterator@V?$_List_val@U?$_List_simple_types@U?$pair@$$CBV?$basic_string@_WU?$char_traits@_W@std@@V?$allocator@_W@2@@std@@V?$vector@V?$basic_string@_WU?$char_traits@_W@std@@V?$allocator@_W@2@@std@@V?$allocator@V?$basic_string@_WU?$char_traits@_W@std@@V?$allocator@_W@2@@std@@@2@@2@@std@@@std@@@std@@@2@V?$_List_unchecked_const_iterator@V?$_List_val@U?$_List_simple_types@U?$pair@$$CBV?$basic_string@_WU?$char_traits@_W@std@@V?$allocator@_W@2@@std@@V?$vector@V?$basic_string@_WU?$char_traits@_W@std@@V?$allocator@_W@2@@std@@V?$allocator@V?$basic_string@_WU?$char_traits@_W@std@@V?$allocator@_W@2@@std@@@2@@2@@std@@@std@@@std@@U_Iterator_base0@2@@2@@Z 000000018000d600 f i pal_utils.obj
 0001:0000c600       ?_Make_iter@?$_Hash@V?$_Uset_traits@V?$basic_string@_WU?$char_traits@_W@std@@V?$allocator@_W@2@@std@@V?$_Uhash_compare@V?$basic_string@_WU?$char_traits@_W@std@@V?$allocator@_W@2@@std@@U?$hash@V?$basic_string@_WU?$char_traits@_W@std@@V?$allocator@_W@2@@std@@@2@U?$equal_to@V?$basic_string@_WU?$char_traits@_W@std@@V?$allocator@_W@2@@std@@@2@@2@V?$allocator@V?$basic_string@_WU?$char_traits@_W@std@@V?$allocator@_W@2@@std@@@2@$0A@@std@@@std@@QEBA?AV?$_List_const_iterator@V?$_List_val@U?$_List_simple_types@V?$basic_string@_WU?$char_traits@_W@std@@V?$allocator@_W@2@@std@@@std@@@std@@@2@V?$_List_unchecked_const_iterator@V?$_List_val@U?$_List_simple_types@V?$basic_string@_WU?$char_traits@_W@std@@V?$allocator@_W@2@@std@@@std@@@std@@U_Iterator_base0@2@@2@@Z 000000018000d600 f i deps_resolver.obj
 0001:0000c600       ?_Make_iter@?$_Hash@V?$_Umap_traits@V?$basic_string@_WU?$char_traits@_W@std@@V?$allocator@_W@2@@std@@HV?$_Uhash_compare@V?$basic_string@_WU?$char_traits@_W@std@@V?$allocator@_W@2@@std@@U?$hash@V?$basic_string@_WU?$char_traits@_W@std@@V?$allocator@_W@2@@std@@@2@U?$equal_to@V?$basic_string@_WU?$char_traits@_W@std@@V?$allocator@_W@2@@std@@@2@@2@V?$allocator@U?$pair@$$CBV?$basic_string@_WU?$char_traits@_W@std@@V?$allocator@_W@2@@std@@H@std@@@2@$0A@@std@@@std@@QEBA?AV?$_List_iterator@V?$_List_val@U?$_List_simple_types@U?$pair@$$CBV?$basic_string@_WU?$char_traits@_W@std@@V?$allocator@_W@2@@std@@H@std@@@std@@@std@@@2@V?$_List_unchecked_const_iterator@V?$_List_val@U?$_List_simple_types@U?$pair@$$CBV?$basic_string@_WU?$char_traits@_W@std@@V?$allocator@_W@2@@std@@H@std@@@std@@@std@@U_Iterator_base0@2@@2@@Z 000000018000d600 f i deps_format.obj
 0001:0000c600       ?_Make_iter@?$_Hash@V?$_Umap_traits@V?$basic_string@_WU?$char_traits@_W@std@@V?$allocator@_W@2@@std@@Uassets_t@deps_json_t@@V?$_Uhash_compare@V?$basic_string@_WU?$char_traits@_W@std@@V?$allocator@_W@2@@std@@U?$hash@V?$basic_string@_WU?$char_traits@_W@std@@V?$allocator@_W@2@@std@@@2@U?$equal_to@V?$basic_string@_WU?$char_traits@_W@std@@V?$allocator@_W@2@@std@@@2@@2@V?$allocator@U?$pair@$$CBV?$basic_string@_WU?$char_traits@_W@std@@V?$allocator@_W@2@@std@@Uassets_t@deps_json_t@@@std@@@2@$0A@@std@@@std@@QEBA?AV?$_List_iterator@V?$_List_val@U?$_List_simple_types@U?$pair@$$CBV?$basic_string@_WU?$char_traits@_W@std@@V?$allocator@_W@2@@std@@Uassets_t@deps_json_t@@@std@@@std@@@std@@@2@V?$_List_unchecked_const_iterator@V?$_List_val@U?$_List_simple_types@U?$pair@$$CBV?$basic_string@_WU?$char_traits@_W@std@@V?$allocator@_W@2@@std@@Uassets_t@deps_json_t@@@std@@@std@@@std@@U_Iterator_base0@2@@2@@Z 000000018000d600 f i deps_format.obj
 0001:0000c600       ?_Make_iter@?$_Hash@V?$_Umap_traits@V?$basic_string@_WU?$char_traits@_W@std@@V?$allocator@_W@2@@std@@V12@V?$_Uhash_compare@V?$basic_string@_WU?$char_traits@_W@std@@V?$allocator@_W@2@@std@@U?$hash@V?$basic_string@_WU?$char_traits@_W@std@@V?$allocator@_W@2@@std@@@2@U?$equal_to@V?$basic_string@_WU?$char_traits@_W@std@@V?$allocator@_W@2@@std@@@2@@2@V?$allocator@U?$pair@$$CBV?$basic_string@_WU?$char_traits@_W@std@@V?$allocator@_W@2@@std@@V12@@std@@@2@$0A@@std@@@std@@QEBA?AV?$_List_iterator@V?$_List_val@U?$_List_simple_types@U?$pair@$$CBV?$basic_string@_WU?$char_traits@_W@std@@V?$allocator@_W@2@@std@@V12@@std@@@std@@@std@@@2@V?$_List_unchecked_const_iterator@V?$_List_val@U?$_List_simple_types@U?$pair@$$CBV?$basic_string@_WU?$char_traits@_W@std@@V?$allocator@_W@2@@std@@V12@@std@@@std@@@std@@U_Iterator_base0@2@@2@@Z 000000018000d600 f i deps_resolver.obj
 0001:0000c600       ?_Make_iter@?$_Hash@V?$_Umap_traits@V?$basic_string@_WU?$char_traits@_W@std@@V?$allocator@_W@2@@std@@Urid_assets_t@deps_json_t@@V?$_Uhash_compare@V?$basic_string@_WU?$char_traits@_W@std@@V?$allocator@_W@2@@std@@U?$hash@V?$basic_string@_WU?$char_traits@_W@std@@V?$allocator@_W@2@@std@@@2@U?$equal_to@V?$basic_string@_WU?$char_traits@_W@std@@V?$allocator@_W@2@@std@@@2@@2@V?$allocator@U?$pair@$$CBV?$basic_string@_WU?$char_traits@_W@std@@V?$allocator@_W@2@@std@@Urid_assets_t@deps_json_t@@@std@@@2@$0A@@std@@@std@@QEBA?AV?$_List_iterator@V?$_List_val@U?$_List_simple_types@U?$pair@$$CBV?$basic_string@_WU?$char_traits@_W@std@@V?$allocator@_W@2@@std@@Urid_assets_t@deps_json_t@@@std@@@std@@@std@@@2@V?$_List_unchecked_const_iterator@V?$_List_val@U?$_List_simple_types@U?$pair@$$CBV?$basic_string@_WU?$char_traits@_W@std@@V?$allocator@_W@2@@std@@Urid_assets_t@deps_json_t@@@std@@@std@@@std@@U_Iterator_base0@2@@2@@Z 000000018000d600 f i deps_format.obj
 0001:0000c610       ??$_Reallocate_grow_by@V<lambda_25953b27f3c43b57ba59f021c7f225c5>@@_W@?$basic_string@_WU?$char_traits@_W@std@@V?$allocator@_W@2@@std@@QEAAAEAV01@_KV<lambda_25953b27f3c43b57ba59f021c7f225c5>@@_W@Z 000000018000d610 f i pal_utils.obj
 0001:0000c7a0       ??$_Insert@AEAU?$pair@$$CBV?$basic_string@_WU?$char_traits@_W@std@@V?$allocator@_W@2@@std@@V?$vector@V?$basic_string@_WU?$char_traits@_W@std@@V?$allocator@_W@2@@std@@V?$allocator@V?$basic_string@_WU?$char_traits@_W@std@@V?$allocator@_W@2@@std@@@2@@2@@std@@V?$_List_unchecked_iterator@V?$_List_val@U?$_List_simple_types@U?$pair@$$CBV?$basic_string@_WU?$char_traits@_W@std@@V?$allocator@_W@2@@std@@V?$vector@V?$basic_string@_WU?$char_traits@_W@std@@V?$allocator@_W@2@@std@@V?$allocator@V?$basic_string@_WU?$char_traits@_W@std@@V?$allocator@_W@2@@std@@@2@@2@@std@@@std@@@std@@@2@@?$_Hash@V?$_Umap_traits@V?$basic_string@_WU?$char_traits@_W@std@@V?$allocator@_W@2@@std@@V?$vector@V?$basic_string@_WU?$char_traits@_W@std@@V?$allocator@_W@2@@std@@V?$allocator@V?$basic_string@_WU?$char_traits@_W@std@@V?$allocator@_W@2@@std@@@2@@2@V?$_Uhash_compare@V?$basic_string@_WU?$char_traits@_W@std@@V?$allocator@_W@2@@std@@U?$hash@V?$basic_string@_WU?$char_traits@_W@std@@V?$allocator@_W@2@@std@@@2@U?$equal_to@V?$basic_string@_WU?$char_traits@_W@std@@V?$allocator@_W@2@@std@@@2@@2@V?$allocator@U?$pair@$$CBV?$basic_string@_WU?$char_traits@_W@std@@V?$allocator@_W@2@@std@@V?$vector@V?$basic_string@_WU?$char_traits@_W@std@@V?$allocator@_W@2@@std@@V?$allocator@V?$basic_string@_WU?$char_traits@_W@std@@V?$allocator@_W@2@@std@@@2@@2@@std@@@2@$0A@@std@@@std@@IEAA?AU?$pair@V?$_List_iterator@V?$_List_val@U?$_List_simple_types@U?$pair@$$CBV?$basic_string@_WU?$char_traits@_W@std@@V?$allocator@_W@2@@std@@V?$vector@V?$basic_string@_WU?$char_traits@_W@std@@V?$allocator@_W@2@@std@@V?$allocator@V?$basic_string@_WU?$char_traits@_W@std@@V?$allocator@_W@2@@std@@@2@@2@@std@@@std@@@std@@@std@@_N@1@AEAU?$pair@$$CBV?$basic_string@_WU?$char_traits@_W@std@@V?$allocator@_W@2@@std@@V?$vector@V?$basic_string@_WU?$char_traits@_W@std@@V?$allocator@_W@2@@std@@V?$allocator@V?$basic_string@_WU?$char_traits@_W@std@@V?$allocator@_W@2@@std@@@2@@2@@1@V?$_List_unchecked_iterator@V?$_List_val@U?$_List_simple_types@U?$pair@$$CBV?$basic_string@_WU?$char_traits@_W@std@@V?$allocator@_W@2@@std@@V?$vector@V?$basic_string@_WU?$char_traits@_W@std@@V?$allocator@_W@2@@std@@V?$allocator@V?$basic_string@_WU?$char_traits@_W@std@@V?$allocator@_W@2@@std@@@2@@2@@std@@@std@@@std@@@1@@Z 000000018000d7a0 f i pal_utils.obj
 0001:0000ca20       ??$_Buynode@AEBUpiecewise_construct_t@std@@V?$tuple@AEBV?$basic_string@_WU?$char_traits@_W@std@@V?$allocator@_W@2@@std@@@2@V?$tuple@$$V@2@@?$_List_buy@U?$pair@$$CBV?$basic_string@_WU?$char_traits@_W@std@@V?$allocator@_W@2@@std@@V?$vector@V?$basic_string@_WU?$char_traits@_W@std@@V?$allocator@_W@2@@std@@V?$allocator@V?$basic_string@_WU?$char_traits@_W@std@@V?$allocator@_W@2@@std@@@2@@2@@std@@V?$allocator@U?$pair@$$CBV?$basic_string@_WU?$char_traits@_W@std@@V?$allocator@_W@2@@std@@V?$vector@V?$basic_string@_WU?$char_traits@_W@std@@V?$allocator@_W@2@@std@@V?$allocator@V?$basic_string@_WU?$char_traits@_W@std@@V?$allocator@_W@2@@std@@@2@@2@@std@@@2@@std@@QEAAPEAU?$_List_node@U?$pair@$$CBV?$basic_string@_WU?$char_traits@_W@std@@V?$allocator@_W@2@@std@@V?$vector@V?$basic_string@_WU?$char_traits@_W@std@@V?$allocator@_W@2@@std@@V?$allocator@V?$basic_string@_WU?$char_traits@_W@std@@V?$allocator@_W@2@@std@@@2@@2@@std@@PEAX@1@PEAU21@0AEBUpiecewise_construct_t@1@$$QEAV?$tuple@AEBV?$basic_string@_WU?$char_traits@_W@std@@V?$allocator@_W@2@@std@@@1@$$QEAV?$tuple@$$V@1@@Z 000000018000da20 f i pal_utils.obj
 0001:0000ca80       ??$erase@V?$_List_iterator@V?$_List_val@U?$_List_simple_types@U?$pair@$$CBV?$basic_string@_WU?$char_traits@_W@std@@V?$allocator@_W@2@@std@@V?$vector@V?$basic_string@_WU?$char_traits@_W@std@@V?$allocator@_W@2@@std@@V?$allocator@V?$basic_string@_WU?$char_traits@_W@std@@V?$allocator@_W@2@@std@@@2@@2@@std@@@std@@@std@@@std@@X@?$_Hash@V?$_Umap_traits@V?$basic_string@_WU?$char_traits@_W@std@@V?$allocator@_W@2@@std@@V?$vector@V?$basic_string@_WU?$char_traits@_W@std@@V?$allocator@_W@2@@std@@V?$allocator@V?$basic_string@_WU?$char_traits@_W@std@@V?$allocator@_W@2@@std@@@2@@2@V?$_Uhash_compare@V?$basic_string@_WU?$char_traits@_W@std@@V?$allocator@_W@2@@std@@U?$hash@V?$basic_string@_WU?$char_traits@_W@std@@V?$allocator@_W@2@@std@@@2@U?$equal_to@V?$basic_string@_WU?$char_traits@_W@std@@V?$allocator@_W@2@@std@@@2@@2@V?$allocator@U?$pair@$$CBV?$basic_string@_WU?$char_traits@_W@std@@V?$allocator@_W@2@@std@@V?$vector@V?$basic_string@_WU?$char_traits@_W@std@@V?$allocator@_W@2@@std@@V?$allocator@V?$basic_string@_WU?$char_traits@_W@std@@V?$allocator@_W@2@@std@@@2@@2@@std@@@2@$0A@@std@@@std@@QEAA?AV?$_List_iterator@V?$_List_val@U?$_List_simple_types@U?$pair@$$CBV?$basic_string@_WU?$char_traits@_W@std@@V?$allocator@_W@2@@std@@V?$vector@V?$basic_string@_WU?$char_traits@_W@std@@V?$allocator@_W@2@@std@@V?$allocator@V?$basic_string@_WU?$char_traits@_W@std@@V?$allocator@_W@2@@std@@@2@@2@@std@@@std@@@std@@@1@V21@@Z 000000018000da80 f i pal_utils.obj
 0001:0000cb80       ?err_vprintf@pal@@YAXPEB_WPEAD@Z 000000018000db80 f i trace.obj
 0001:0000cbf0       ?setup@trace@@YAXXZ        000000018000dbf0 f   trace.obj
 0001:0000ccc0       ?info@trace@@YAXPEB_WZZ    000000018000dcc0 f   trace.obj
 0001:0000ccc0       ?verbose@trace@@YAXPEB_WZZ 000000018000dcc0 f   trace.obj
 0001:0000ccc0       ?warning@trace@@YAXPEB_WZZ 000000018000dcc0 f   trace.obj
 0001:0000ccf0       ?error@trace@@YAXPEB_WZZ   000000018000dcf0 f   trace.obj
 0001:0000cd60       ??1fx_ver_t@@QEAA@XZ       000000018000dd60 f i fx_ver.obj
 0001:0000ce20       ??0fx_ver_t@@QEAA@HHH@Z    000000018000de20 f   fx_ver.obj
 0001:0000cf90       ?as_str@fx_ver_t@@QEBA?AV?$basic_string@_WU?$char_traits@_W@std@@V?$allocator@_W@2@@std@@XZ 000000018000df90 f   fx_ver.obj
 0001:0000d0d0       ??_D?$basic_stringstream@_WU?$char_traits@_W@std@@V?$allocator@_W@2@@std@@QEAAXXZ 000000018000e0d0 f i fx_ver.obj
 0001:0000d130       ?prerelease_glob@fx_ver_t@@QEBA?AV?$basic_string@_WU?$char_traits@_W@std@@V?$allocator@_W@2@@std@@XZ 000000018000e130 f   fx_ver.obj
 0001:0000d220       ?patch_glob@fx_ver_t@@QEBA?AV?$basic_string@_WU?$char_traits@_W@std@@V?$allocator@_W@2@@std@@XZ 000000018000e220 f   fx_ver.obj
 0001:0000d2f0       ?try_stou@@YA_NAEBV?$basic_string@_WU?$char_traits@_W@std@@V?$allocator@_W@2@@std@@PEAI@Z 000000018000e2f0 f   fx_ver.obj
 0001:0000d390       ?parse_internal@@YA_NAEBV?$basic_string@_WU?$char_traits@_W@std@@V?$allocator@_W@2@@std@@PEAUfx_ver_t@@_N@Z 000000018000e390 f   fx_ver.obj
 0001:0000daf0       ??4fx_ver_t@@QEAAAEAU0@$$QEAU0@@Z 000000018000eaf0 f i fx_ver.obj
 0001:0000dbb0       ?parse@fx_ver_t@@SA_NAEBV?$basic_string@_WU?$char_traits@_W@std@@V?$allocator@_W@2@@std@@PEAU1@_N@Z 000000018000ebb0 f   fx_ver.obj
 0001:0000dcc0       ?compare@?$basic_string@_WU?$char_traits@_W@std@@V?$allocator@_W@2@@std@@QEBAHAEBV12@@Z 000000018000ecc0 f i fx_ver.obj
 0001:0000dd40       ?find_first_not_of@?$basic_string@_WU?$char_traits@_W@std@@V?$allocator@_W@2@@std@@QEBA_KQEB_W_K@Z 000000018000ed40 f i fx_ver.obj
 0001:0000de90       ??0?$basic_stringstream@_WU?$char_traits@_W@std@@V?$allocator@_W@2@@std@@QEAA@H@Z 000000018000ee90 f i fx_ver.obj
 0001:0000df50       ?seekpos@?$basic_stringbuf@_WU?$char_traits@_W@std@@V?$allocator@_W@2@@std@@MEAA?AV?$fpos@U_Mbstatet@@@2@V32@H@Z 000000018000ef50 f i fx_ver.obj
 0001:0000e050       ?seekoff@?$basic_stringbuf@_WU?$char_traits@_W@std@@V?$allocator@_W@2@@std@@MEAA?AV?$fpos@U_Mbstatet@@@2@_JHH@Z 000000018000f050 f i fx_ver.obj
 0001:0000e1b0       ?underflow@?$basic_stringbuf@_WU?$char_traits@_W@std@@V?$allocator@_W@2@@std@@MEAAGXZ 000000018000f1b0 f i fx_ver.obj
 0001:0000e220       ?pbackfail@?$basic_stringbuf@_WU?$char_traits@_W@std@@V?$allocator@_W@2@@std@@MEAAGG@Z 000000018000f220 f i fx_ver.obj
 0001:0000e280       ?overflow@?$basic_stringbuf@_WU?$char_traits@_W@std@@V?$allocator@_W@2@@std@@MEAAGG@Z 000000018000f280 f i fx_ver.obj
 0001:0000e4c0       ??1?$basic_stringbuf@_WU?$char_traits@_W@std@@V?$allocator@_W@2@@std@@UEAA@XZ 000000018000f4c0 f i fx_ver.obj
 0001:0000e590       ??_G?$basic_stringstream@_WU?$char_traits@_W@std@@V?$allocator@_W@2@@std@@UEAAPEAXI@Z 000000018000f590 f i fx_ver.obj
 0001:0000e590       ??_E?$basic_stringstream@_WU?$char_traits@_W@std@@V?$allocator@_W@2@@std@@UEAAPEAXI@Z 000000018000f590 f i * CIL library *:* CIL module *
 0001:0000e630       ??_E?$basic_stringbuf@_WU?$char_traits@_W@std@@V?$allocator@_W@2@@std@@UEAAPEAXI@Z 000000018000f630 f i * CIL library *:* CIL module *
 0001:0000e630       ??_G?$basic_stringbuf@_WU?$char_traits@_W@std@@V?$allocator@_W@2@@std@@UEAAPEAXI@Z 000000018000f630 f i fx_ver.obj
 0001:0000e670       ??1sentry@?$basic_ostream@_WU?$char_traits@_W@std@@@std@@QEAA@XZ 000000018000f670 f i fx_ver.obj
 0001:0000e6c0       ?str@?$basic_stringbuf@_WU?$char_traits@_W@std@@V?$allocator@_W@2@@std@@QEBA?AV?$basic_string@_WU?$char_traits@_W@std@@V?$allocator@_W@2@@2@XZ 000000018000f6c0 f i fx_ver.obj
 0001:0000e760       ??1_Sentry_base@?$basic_ostream@_WU?$char_traits@_W@std@@@std@@QEAA@XZ 000000018000f760 f i fx_ver.obj
 0001:0000e790       ??$?6_WU?$char_traits@_W@std@@@std@@YAAEAV?$basic_ostream@_WU?$char_traits@_W@std@@@0@AEAV10@PEB_W@Z 000000018000f790 f i fx_ver.obj
 0001:0000e980       ??$?6_WU?$char_traits@_W@std@@V?$allocator@_W@1@@std@@YAAEAV?$basic_ostream@_WU?$char_traits@_W@std@@@0@AEAV10@AEBV?$basic_string@_WU?$char_traits@_W@std@@V?$allocator@_W@2@@0@@Z 000000018000f980 f i fx_ver.obj
 0001:0000e9a0       ??$_Insert_string@_WU?$char_traits@_W@std@@_K@std@@YAAEAV?$basic_ostream@_WU?$char_traits@_W@std@@@0@AEAV10@QEB_W_K@Z 000000018000f9a0 f i fx_ver.obj
 0001:0000eb84       ??_E?$basic_stringstream@_WU?$char_traits@_W@std@@V?$allocator@_W@2@@std@@$4PPPPPPPM@A@EAAPEAXI@Z 000000018000fb84 f i fx_ver.obj
 0001:0000eb90       ??0exception@std@@QEAA@AEBV01@@Z 000000018000fb90 f i fx_muxer.obj
 0001:0000ebd0       ??1runtime_error@std@@UEAA@XZ 000000018000fbd0 f i asyncrt_utils.obj
 0001:0000ebd0       ??1range_error@std@@UEAA@XZ 000000018000fbd0 f i asyncrt_utils.obj
 0001:0000ebd0       ??1exception@std@@UEAA@XZ  000000018000fbd0 f i fx_muxer.obj
 0001:0000ebd0       ??1bad_cast@std@@UEAA@XZ   000000018000fbd0 f i fx_muxer.obj
 0001:0000ebf0       ?what@exception@std@@UEBAPEBDXZ 000000018000fbf0 f i fx_muxer.obj
 0001:0000ec10       ??_Grange_error@std@@UEAAPEAXI@Z 000000018000fc10 f i asyncrt_utils.obj
 0001:0000ec10       ??_Eruntime_error@std@@UEAAPEAXI@Z 000000018000fc10 f i * CIL library *:* CIL module *
 0001:0000ec10       ??_Gruntime_error@std@@UEAAPEAXI@Z 000000018000fc10 f i asyncrt_utils.obj
 0001:0000ec10       ??_Eexception@std@@UEAAPEAXI@Z 000000018000fc10 f i * CIL library *:* CIL module *
 0001:0000ec10       ??_Gexception@std@@UEAAPEAXI@Z 000000018000fc10 f i fx_muxer.obj
 0001:0000ec10       ??_Erange_error@std@@UEAAPEAXI@Z 000000018000fc10 f i * CIL library *:* CIL module *
 0001:0000ec10       ??_Ebad_cast@std@@UEAAPEAXI@Z 000000018000fc10 f i * CIL library *:* CIL module *
 0001:0000ec10       ??_Gbad_cast@std@@UEAAPEAXI@Z 000000018000fc10 f i fx_muxer.obj
 0001:0000ec60       ??0bad_cast@std@@QEAA@XZ   000000018000fc60 f i fx_muxer.obj
 0001:0000ec90       ??1locale@std@@QEAA@XZ     000000018000fc90 f i fx_muxer.obj
 0001:0000ecd0       ??0json_exception@json@web@@QEAA@AEBQEB_W@Z 000000018000fcd0 f i fx_muxer.obj
 0001:0000edc0       ?what@json_exception@json@web@@UEBAPEBDXZ 000000018000fdc0 f i fx_muxer.obj
 0001:0000edd0       ??_Ejson_exception@json@web@@UEAAPEAXI@Z 000000018000fdd0 f i * CIL library *:* CIL module *
 0001:0000edd0       ??_Gjson_exception@json@web@@UEAAPEAXI@Z 000000018000fdd0 f i fx_muxer.obj
 0001:0000ee70       ??1json_exception@json@web@@UEAA@XZ 000000018000fe70 f i fx_muxer.obj
 0001:0000eef0       ??0json_exception@json@web@@QEAA@AEBV012@@Z 000000018000fef0 f i fx_muxer.obj
 0001:0000f010       ?at@object@json@web@@QEBAAEBVvalue@23@AEBV?$basic_string@_WU?$char_traits@_W@std@@V?$allocator@_W@2@@std@@@Z 0000000180010010 f i fx_muxer.obj
 0001:0000f090       ?find_by_key@object@json@web@@AEBA?AV?$_Vector_const_iterator@V?$_Vector_val@U?$_Simple_types@U?$pair@V?$basic_string@_WU?$char_traits@_W@std@@V?$allocator@_W@2@@std@@Vvalue@json@web@@@std@@@std@@@std@@@std@@AEBV?$basic_string@_WU?$char_traits@_W@std@@V?$allocator@_W@2@@5@@Z 0000000180010090 f i fx_muxer.obj
 0001:0000f210       ??1?$unique_ptr@V_String@details@json@web@@U?$default_delete@V_String@details@json@web@@@std@@@std@@QEAA@XZ 0000000180010210 f i json.obj
 0001:0000f210       ??1?$unique_ptr@V_Object@details@json@web@@U?$default_delete@V_Object@details@json@web@@@std@@@std@@QEAA@XZ 0000000180010210 f i json.obj
 0001:0000f210       ??1value@json@web@@QEAA@XZ 0000000180010210 f i fx_muxer.obj
 0001:0000f210       ??1?$unique_ptr@V_Number@details@json@web@@U?$default_delete@V_Number@details@json@web@@@std@@@std@@QEAA@XZ 0000000180010210 f i json.obj
 0001:0000f210       ??1?$unique_ptr@V_Array@details@json@web@@U?$default_delete@V_Array@details@json@web@@@std@@@std@@QEAA@XZ 0000000180010210 f i json.obj
 0001:0000f210       ??1?$unique_ptr@V_Boolean@details@json@web@@U?$default_delete@V_Boolean@details@json@web@@@std@@@std@@QEAA@XZ 0000000180010210 f i json.obj
 0001:0000f230       ??_D?$basic_ifstream@DU?$char_traits@D@std@@@std@@QEAAXXZ 0000000180010230 f i fx_muxer.obj
 0001:0000f2a0       ?resolve_fx_dir@fx_muxer_t@@SA?AV?$basic_string@_WU?$char_traits@_W@std@@V?$allocator@_W@2@@std@@W4host_mode_t@@AEBV23@AEBVruntime_config_t@@1@Z 00000001800102a0 f   fx_muxer.obj
 0001:0000fc40       ??4fx_ver_t@@QEAAAEAU0@AEBU0@@Z 0000000180010c40 f i fx_muxer.obj
 0001:0000fcc0       ?resolve_cli_version@fx_muxer_t@@CA?AV?$basic_string@_WU?$char_traits@_W@std@@V?$allocator@_W@2@@std@@AEBV23@@Z 0000000180010cc0 f   fx_muxer.obj
 0001:00010470       ?resolve_sdk_version@@YA?AV?$basic_string@_WU?$char_traits@_W@std@@V?$allocator@_W@2@@std@@V12@@Z 0000000180011470 f   fx_muxer.obj
 0001:00010c50       ?resolve_sdk_dotnet_path@fx_muxer_t@@SA_NAEBV?$basic_string@_WU?$char_traits@_W@std@@V?$allocator@_W@2@@std@@PEAV23@@Z 0000000180011c50 f   fx_muxer.obj
 0001:00011550       ?imbue@?$basic_filebuf@DU?$char_traits@D@std@@@std@@MEAAXAEBVlocale@2@@Z 0000000180012550 f i fx_muxer.obj
 0001:000115a0       ?sync@?$basic_filebuf@DU?$char_traits@D@std@@@std@@MEAAHXZ 00000001800125a0 f i fx_muxer.obj
 0001:000115f0       ?setbuf@?$basic_filebuf@DU?$char_traits@D@std@@@std@@MEAAPEAV?$basic_streambuf@DU?$char_traits@D@std@@@2@PEAD_J@Z 00000001800125f0 f i fx_muxer.obj
 0001:000116e0       ?seekpos@?$basic_filebuf@DU?$char_traits@D@std@@@std@@MEAA?AV?$fpos@U_Mbstatet@@@2@V32@H@Z 00000001800126e0 f i fx_muxer.obj
 0001:000117c0       ?seekoff@?$basic_filebuf@DU?$char_traits@D@std@@@std@@MEAA?AV?$fpos@U_Mbstatet@@@2@_JHH@Z 00000001800127c0 f i fx_muxer.obj
 0001:000118a0       ?xsputn@?$basic_filebuf@DU?$char_traits@D@std@@@std@@MEAA_JPEBD_J@Z 00000001800128a0 f i fx_muxer.obj
 0001:00011980       ?xsgetn@?$basic_filebuf@DU?$char_traits@D@std@@@std@@MEAA_JPEAD_J@Z 0000000180012980 f i fx_muxer.obj
 0001:00011a70       ?uflow@?$basic_filebuf@DU?$char_traits@D@std@@@std@@MEAAHXZ 0000000180012a70 f i fx_muxer.obj
 0001:00011d50       ?underflow@?$basic_filebuf@DU?$char_traits@D@std@@@std@@MEAAHXZ 0000000180012d50 f i fx_muxer.obj
 0001:00011e50       ?pbackfail@?$basic_filebuf@DU?$char_traits@D@std@@@std@@MEAAHH@Z 0000000180012e50 f i fx_muxer.obj
 0001:00011f40       ?overflow@?$basic_filebuf@DU?$char_traits@D@std@@@std@@MEAAHH@Z 0000000180012f40 f i fx_muxer.obj
 0001:000120e0       ?_Unlock@?$basic_filebuf@DU?$char_traits@D@std@@@std@@UEAAXXZ 00000001800130e0 f i fx_muxer.obj
 0001:00012100       ?_Lock@?$basic_filebuf@DU?$char_traits@D@std@@@std@@UEAAXXZ 0000000180013100 f i fx_muxer.obj
 0001:00012120       ??1?$basic_filebuf@DU?$char_traits@D@std@@@std@@UEAA@XZ 0000000180013120 f i fx_muxer.obj
 0001:000121e0       ??_E?$basic_ifstream@DU?$char_traits@D@std@@@std@@UEAAPEAXI@Z 00000001800131e0 f i * CIL library *:* CIL module *
 0001:000121e0       ??_G?$basic_ifstream@DU?$char_traits@D@std@@@std@@UEAAPEAXI@Z 00000001800131e0 f i fx_muxer.obj
 0001:00012220       ??_G?$basic_filebuf@DU?$char_traits@D@std@@@std@@UEAAPEAXI@Z 0000000180013220 f i fx_muxer.obj
 0001:00012220       ??_E?$basic_filebuf@DU?$char_traits@D@std@@@std@@UEAAPEAXI@Z 0000000180013220 f i * CIL library *:* CIL module *
 0001:00012260       ?assign@?$basic_string@DU?$char_traits@D@std@@V?$allocator@D@2@@std@@QEAAAEAV12@QEBD_K@Z 0000000180013260 f i fx_muxer.obj
 0001:000123b0       ??0?$basic_ifstream@DU?$char_traits@D@std@@@std@@QEAA@PEB_WHH@Z 00000001800133b0 f i fx_muxer.obj
 0001:00012590       ?_Reset_back@?$basic_filebuf@DU?$char_traits@D@std@@@std@@AEAAXXZ 0000000180013590 f i fx_muxer.obj
 0001:000125c0       ?_Endwrite@?$basic_filebuf@DU?$char_traits@D@std@@@std@@IEAA_NXZ 00000001800135c0 f i fx_muxer.obj
 0001:00012690       ??$use_facet@V?$codecvt@DDU_Mbstatet@@@std@@@std@@YAAEBV?$codecvt@DDU_Mbstatet@@@0@AEBVlocale@0@@Z 0000000180013690 f i fx_muxer.obj
 0001:00012780       ??$_Reallocate_grow_by@V<lambda_319d5e083f45f90dcdce5dce53cbb275>@@D@?$basic_string@DU?$char_traits@D@std@@V?$allocator@D@2@@std@@QEAAAEAV01@_KV<lambda_319d5e083f45f90dcdce5dce53cbb275>@@D@Z 0000000180013780 f i fx_muxer.obj
 0001:000128e0       ??0bad_cast@std@@QEAA@AEBV01@@Z 00000001800138e0 f i fx_muxer.obj
 0001:00012920       ??1?$unique_ptr@V_Facet_base@std@@U?$default_delete@V_Facet_base@std@@@2@@std@@QEAA@XZ 0000000180013920 f i fx_muxer.obj
 0001:00012934       ??_E?$basic_ifstream@DU?$char_traits@D@std@@@std@@$4PPPPPPPM@A@EAAPEAXI@Z 0000000180013934 f i fx_muxer.obj
 0001:00012940       ?default_error_condition@error_category@std@@UEBA?AVerror_condition@2@H@Z 0000000180013940 f i json.obj
 0001:00012950       ?equivalent@error_category@std@@UEBA_NHAEBVerror_condition@2@@Z 0000000180013950 f i json.obj
 0001:00012990       ?equivalent@error_category@std@@UEBA_NAEBVerror_code@2@H@Z 0000000180013990 f i json.obj
 0001:000129b0       ??0SafeIntException@safeint3@msl@@QEAA@W4SafeIntError@12@@Z 00000001800139b0 f i json.obj
 0001:000129c0       ?SafeIntOnOverflow@?$SafeIntExceptionHandler@VSafeIntException@safeint3@msl@@@SafeIntInternal@safeint3@msl@@SAXXZ 00000001800139c0 f i json.obj
 0001:000129e0       ??0value@json@web@@AEAA@V?$unique_ptr@V_Value@details@json@web@@U?$default_delete@V_Value@details@json@web@@@std@@@std@@@Z 00000001800139e0 f i json.obj
 0001:00012a20       ?name@json_error_category_impl@details@json@web@@UEBAPEBDXZ 0000000180013a20 f i json.obj
 0001:00012a30       ?message@json_error_category_impl@details@json@web@@UEBA?AV?$basic_string@DU?$char_traits@D@std@@V?$allocator@D@2@@std@@H@Z 0000000180013a30 f i json.obj
 0001:00012b70       ??Aobject@json@web@@QEAAAEAVvalue@12@AEBV?$basic_string@_WU?$char_traits@_W@std@@V?$allocator@_W@2@@std@@@Z 0000000180013b70 f i json.obj
 0001:00012ce0       ?compare_pairs@object@json@web@@CA_NAEBU?$pair@V?$basic_string@_WU?$char_traits@_W@std@@V?$allocator@_W@2@@std@@Vvalue@json@web@@@std@@0@Z 0000000180013ce0 f i json.obj
 0001:00012d00       ?find_insert_location@object@json@web@@AEAA?AV?$_Vector_iterator@V?$_Vector_val@U?$_Simple_types@U?$pair@V?$basic_string@_WU?$char_traits@_W@std@@V?$allocator@_W@2@@std@@Vvalue@json@web@@@std@@@std@@@std@@@std@@AEBV?$basic_string@_WU?$char_traits@_W@std@@V?$allocator@_W@2@@5@@Z 0000000180013d00 f i json.obj
 0001:00012e30       ??1?$pair@V?$basic_string@_WU?$char_traits@_W@std@@V?$allocator@_W@2@@std@@Vvalue@json@web@@@std@@QEAA@XZ 0000000180013e30 f i json.obj
 0001:00012eb0       ?has_field@_Value@details@json@web@@UEBA_NAEBV?$basic_string@_WU?$char_traits@_W@std@@V?$allocator@_W@2@@std@@@Z 0000000180013eb0 f i json.obj
 0001:00012ec0       ?cnst_index@_Value@details@json@web@@UEBAAEBVvalue@34@AEBV?$basic_string@_WU?$char_traits@_W@std@@V?$allocator@_W@2@@std@@@Z 0000000180013ec0 f i json.obj
 0001:00012ec0       ?index@_Value@details@json@web@@UEAAAEAVvalue@34@AEBV?$basic_string@_WU?$char_traits@_W@std@@V?$allocator@_W@2@@std@@@Z 0000000180013ec0 f i json.obj
 0001:00012ec0       ?as_object@_Value@details@json@web@@UEAAAEAVobject@34@XZ 0000000180013ec0 f i json.obj
 0001:00012ec0       ?as_object@_Value@details@json@web@@UEBAAEBVobject@34@XZ 0000000180013ec0 f i json.obj
 0001:00012ec0       ?get_field@_Value@details@json@web@@UEBA?AVvalue@34@AEBV?$basic_string@_WU?$char_traits@_W@std@@V?$allocator@_W@2@@std@@@Z 0000000180013ec0 f i json.obj
 0001:00012f00       ?cnst_index@_Value@details@json@web@@UEBAAEBVvalue@34@_K@Z 0000000180013f00 f i json.obj
 0001:00012f00       ?as_array@_Value@details@json@web@@UEAAAEAVarray@34@XZ 0000000180013f00 f i json.obj
 0001:00012f00       ?as_array@_Value@details@json@web@@UEBAAEBVarray@34@XZ 0000000180013f00 f i json.obj
 0001:00012f00       ?index@_Value@details@json@web@@UEAAAEAVvalue@34@_K@Z 0000000180013f00 f i json.obj
 0001:00012f00       ?get_element@_Value@details@json@web@@UEBA?AVvalue@34@_K@Z 0000000180013f00 f i json.obj
 0001:00012f40       ?serialize_impl@_Value@details@json@web@@UEBAXAEAV?$basic_string@DU?$char_traits@D@std@@V?$allocator@D@2@@std@@@Z 0000000180013f40 f i json.obj
 0001:00012f50       ?serialize_impl@_Value@details@json@web@@UEBAXAEAV?$basic_string@_WU?$char_traits@_W@std@@V?$allocator@_W@2@@std@@@Z 0000000180013f50 f i json.obj
 0001:00012f60       ?to_string@_Value@details@json@web@@UEBA?AV?$basic_string@_WU?$char_traits@_W@std@@V?$allocator@_W@2@@std@@XZ 0000000180013f60 f i json.obj
 0001:00012fb0       ?type@_Null@details@json@web@@UEBA?AW4value_type@value@34@XZ 0000000180013fb0 f i json.obj
 0001:00012fb0       ?type@_Value@details@json@web@@UEBA?AW4value_type@value@34@XZ 0000000180013fb0 f i json.obj
 0001:00012fc0       ?as_double@_Value@details@json@web@@UEBANXZ 0000000180013fc0 f i json.obj
 0001:00012fc0       ?is_integer@_Value@details@json@web@@UEBA_NXZ 0000000180013fc0 f i json.obj
 0001:00012fc0       ?as_number@_Value@details@json@web@@UEAAAEBVnumber@34@XZ 0000000180013fc0 f i json.obj
 0001:00012fc0       ?is_double@_Value@details@json@web@@UEBA_NXZ 0000000180013fc0 f i json.obj
 0001:00012fc0       ?as_integer@_Value@details@json@web@@UEBAHXZ 0000000180013fc0 f i json.obj
 0001:00013000       ?as_bool@_Value@details@json@web@@UEBA_NXZ 0000000180014000 f i json.obj
 0001:00013040       ?as_string@_Value@details@json@web@@UEBAAEBV?$basic_string@_WU?$char_traits@_W@std@@V?$allocator@_W@2@@std@@XZ 0000000180014040 f i json.obj
 0001:00013080       ?size@_Value@details@json@web@@UEBA_KXZ 0000000180014080 f i json.obj
 0001:00013080       ?type@_Number@details@json@web@@UEBA?AW4value_type@value@34@XZ 0000000180014080 f i json.obj
 0001:00013080       _is_c_termination_complete 0000000180014080 f i MSVCRT:ucrt_stubs.obj
 0001:00013080       __scrt_stub_for_is_c_termination_complete 0000000180014080 f i MSVCRT:ucrt_stubs.obj
 0001:00013090       ??1_Value@details@json@web@@UEAA@XZ 0000000180014090 f i json.obj
 0001:000130a0       ?format@_Value@details@json@web@@MEBAXAEAV?$basic_string@DU?$char_traits@D@std@@V?$allocator@D@2@@std@@@Z 00000001800140a0 f i json.obj
 0001:00013120       ?format@_Value@details@json@web@@MEBAXAEAV?$basic_string@_WU?$char_traits@_W@std@@V?$allocator@_W@2@@std@@@Z 0000000180014120 f i json.obj
 0001:000131a0       ??_G_Value@details@json@web@@UEAAPEAXI@Z 00000001800141a0 f i json.obj
 0001:000131a0       ??_E_Null@details@json@web@@UEAAPEAXI@Z 00000001800141a0 f i * CIL library *:* CIL module *
 0001:000131a0       ??_G_Null@details@json@web@@UEAAPEAXI@Z 00000001800141a0 f i json.obj
 0001:000131a0       ??_E_Value@details@json@web@@UEAAPEAXI@Z 00000001800141a0 f i * CIL library *:* CIL module *
 0001:000131d0       ?_copy_value@_Null@details@json@web@@UEAA?AV?$unique_ptr@V_Value@details@json@web@@U?$default_delete@V_Value@details@json@web@@@std@@@std@@XZ 00000001800141d0 f i json.obj
 0001:00013200       ?_copy_value@_Number@details@json@web@@UEAA?AV?$unique_ptr@V_Value@details@json@web@@U?$default_delete@V_Value@details@json@web@@@std@@@std@@XZ 0000000180014200 f i json.obj
 0001:00013240       ?is_integer@_Number@details@json@web@@UEBA_NXZ 0000000180014240 f i json.obj
 0001:00013250       ?is_double@_Number@details@json@web@@UEBA_NXZ 0000000180014250 f i json.obj
 0001:00013260       ?as_double@_Number@details@json@web@@UEBANXZ 0000000180014260 f i json.obj
 0001:000132a0       ?as_integer@_Number@details@json@web@@UEBAHXZ 00000001800142a0 f i json.obj
 0001:000132b0       ?as_object@_Object@details@json@web@@UEAAAEAVobject@34@XZ 00000001800142b0 f i json.obj
 0001:000132b0       ?as_array@_Array@details@json@web@@UEAAAEAVarray@34@XZ 00000001800142b0 f i json.obj
 0001:000132b0       ?as_array@_Array@details@json@web@@UEBAAEBVarray@34@XZ 00000001800142b0 f i json.obj
 0001:000132b0       ?as_object@_Object@details@json@web@@UEBAAEBVobject@34@XZ 00000001800142b0 f i json.obj
 0001:000132b0       ?as_number@_Number@details@json@web@@UEAAAEBVnumber@34@XZ 00000001800142b0 f i json.obj
 0001:000132b0       ?as_string@_String@details@json@web@@UEBAAEBV?$basic_string@_WU?$char_traits@_W@std@@V?$allocator@_W@2@@std@@XZ 00000001800142b0 f i json_serialization.obj
 0001:000132c0       ??_G_Number@details@json@web@@UEAAPEAXI@Z 00000001800142c0 f i json.obj
 0001:000132c0       ??_E_Number@details@json@web@@UEAAPEAXI@Z 00000001800142c0 f i * CIL library *:* CIL module *
 0001:000132f0       ?_copy_value@_Boolean@details@json@web@@UEAA?AV?$unique_ptr@V_Value@details@json@web@@U?$default_delete@V_Value@details@json@web@@@std@@@std@@XZ 00000001800142f0 f i json.obj
 0001:00013330       _get_startup_argv_mode     0000000180014330 f i MSVCRT:argv_mode.obj
 0001:00013330       ?type@_Boolean@details@json@web@@UEBA?AW4value_type@value@34@XZ 0000000180014330 f i json.obj
 0001:00013340       ?as_bool@_Boolean@details@json@web@@UEBA_NXZ 0000000180014340 f i json.obj
 0001:00013350       ?format@_Boolean@details@json@web@@MEBAXAEAV?$basic_string@DU?$char_traits@D@std@@V?$allocator@D@2@@std@@@Z 0000000180014350 f i json.obj
 0001:00013390       ?format@_Boolean@details@json@web@@MEBAXAEAV?$basic_string@_WU?$char_traits@_W@std@@V?$allocator@_W@2@@std@@@Z 0000000180014390 f i json.obj
 0001:000133d0       ??_E_Boolean@details@json@web@@UEAAPEAXI@Z 00000001800143d0 f i * CIL library *:* CIL module *
 0001:000133d0       ??_G_Boolean@details@json@web@@UEAAPEAXI@Z 00000001800143d0 f i json.obj
 0001:00013400       ?_copy_value@_String@details@json@web@@UEAA?AV?$unique_ptr@V_Value@details@json@web@@U?$default_delete@V_Value@details@json@web@@@std@@@std@@XZ 0000000180014400 f i json.obj
 0001:00013470       ?type@_String@details@json@web@@UEBA?AW4value_type@value@34@XZ 0000000180014470 f i json.obj
 0001:00013480       ?serialize_impl@_String@details@json@web@@UEBAXAEAV?$basic_string@DU?$char_traits@D@std@@V?$allocator@D@2@@std@@@Z 0000000180014480 f i json.obj
 0001:000134c0       ?serialize_impl@_String@details@json@web@@UEBAXAEAV?$basic_string@_WU?$char_traits@_W@std@@V?$allocator@_W@2@@std@@@Z 00000001800144c0 f i json.obj
 0001:000135d0       ??_G_String@details@json@web@@UEAAPEAXI@Z 00000001800145d0 f i json.obj
 0001:000135d0       ??_E_String@details@json@web@@UEAAPEAXI@Z 00000001800145d0 f i * CIL library *:* CIL module *
 0001:00013660       ?_copy_value@_Object@details@json@web@@UEAA?AV?$unique_ptr@V_Value@details@json@web@@U?$default_delete@V_Value@details@json@web@@@std@@@std@@XZ 0000000180014660 f i json.obj
 0001:000136d0       ?type@_Object@details@json@web@@UEBA?AW4value_type@value@34@XZ 00000001800146d0 f i json.obj
 0001:000136e0       ?serialize_impl@_Object@details@json@web@@UEBAXAEAV?$basic_string@DU?$char_traits@D@std@@V?$allocator@D@2@@std@@@Z 00000001800146e0 f i json.obj
 0001:00013720       ?serialize_impl@_Object@details@json@web@@UEBAXAEAV?$basic_string@_WU?$char_traits@_W@std@@V?$allocator@_W@2@@std@@@Z 0000000180014720 f i json.obj
 0001:00013760       ?size@_Object@details@json@web@@UEBA_KXZ 0000000180014760 f i json.obj
 0001:00013790       ?format@_Object@details@json@web@@MEBAXAEAV?$basic_string@DU?$char_traits@D@std@@V?$allocator@D@2@@std@@@Z 0000000180014790 f i json.obj
 0001:000137a0       ?format@_Object@details@json@web@@MEBAXAEAV?$basic_string@_WU?$char_traits@_W@std@@V?$allocator@_W@2@@std@@@Z 00000001800147a0 f i json.obj
 0001:000137b0       ?get_reserve_size@_Object@details@json@web@@AEBA_KXZ 00000001800147b0 f i json.obj
 0001:00013840       ??_G_Object@details@json@web@@UEAAPEAXI@Z 0000000180014840 f i json.obj
 0001:00013840       ??_E_Object@details@json@web@@UEAAPEAXI@Z 0000000180014840 f i * CIL library *:* CIL module *
 0001:00013890       ?_copy_value@_Array@details@json@web@@UEAA?AV?$unique_ptr@V_Value@details@json@web@@U?$default_delete@V_Value@details@json@web@@@std@@@std@@XZ 0000000180014890 f i json.obj
 0001:00013900       ?type@_Array@details@json@web@@UEBA?AW4value_type@value@34@XZ 0000000180014900 f i json.obj
 0001:00013910       ?index@_Array@details@json@web@@UEAAAEAVvalue@34@_K@Z 0000000180014910 f i json.obj
 0001:00013960       ?serialize_impl@_Array@details@json@web@@UEBAXAEAV?$basic_string@DU?$char_traits@D@std@@V?$allocator@D@2@@std@@@Z 0000000180014960 f i json.obj
 0001:00013ab0       ?serialize_impl@_Array@details@json@web@@UEBAXAEAV?$basic_string@_WU?$char_traits@_W@std@@V?$allocator@_W@2@@std@@@Z 0000000180014ab0 f i json.obj
 0001:00013c20       ?size@_Array@details@json@web@@UEBA_KXZ 0000000180014c20 f i json.obj
 0001:00013c30       ?format@_Array@details@json@web@@MEBAXAEAV?$basic_string@DU?$char_traits@D@std@@V?$allocator@D@2@@std@@@Z 0000000180014c30 f i json.obj
 0001:00013d70       ?format@_Array@details@json@web@@MEBAXAEAV?$basic_string@_WU?$char_traits@_W@std@@V?$allocator@_W@2@@std@@@Z 0000000180014d70 f i json.obj
 0001:00013ed0       ?get_reserve_size@_Array@details@json@web@@AEBA_KXZ 0000000180014ed0 f i json.obj
 0001:00013f40       ??_G_Array@details@json@web@@UEAAPEAXI@Z 0000000180014f40 f i json.obj
 0001:00013f40       ??_E_Array@details@json@web@@UEAAPEAXI@Z 0000000180014f40 f i * CIL library *:* CIL module *
 0001:00013f90       ?index@_Object@details@json@web@@UEAAAEAVvalue@34@AEBV?$basic_string@_WU?$char_traits@_W@std@@V?$allocator@_W@2@@std@@@Z 0000000180014f90 f   json.obj
 0001:00013fa0       ?has_field@_Object@details@json@web@@UEBA_NAEBV?$basic_string@_WU?$char_traits@_W@std@@V?$allocator@_W@2@@std@@@Z 0000000180014fa0 f   json.obj
 0001:00013fd0       ?json_error_category@details@json@web@@YAAEBVjson_error_category_impl@123@XZ 0000000180014fd0 f   json.obj
 0001:00014040       ??_E_Generic_error_category@std@@UEAAPEAXI@Z 0000000180015040 f i * CIL library *:* CIL module *
 0001:00014040       ??_Ejson_error_category_impl@details@json@web@@UEAAPEAXI@Z 0000000180015040 f i * CIL library *:* CIL module *
 0001:00014040       ??_G_Generic_error_category@std@@UEAAPEAXI@Z 0000000180015040 f i json_parsing.obj
 0001:00014040       ??_G_System_error_category@std@@UEAAPEAXI@Z 0000000180015040 f i json_parsing.obj
 0001:00014040       ??_Gjson_error_category_impl@details@json@web@@UEAAPEAXI@Z 0000000180015040 f i json.obj
 0001:00014040       ??_E_System_error_category@std@@UEAAPEAXI@Z 0000000180015040 f i * CIL library *:* CIL module *
 0001:00014070       ?insert@?$vector@U?$pair@V?$basic_string@_WU?$char_traits@_W@std@@V?$allocator@_W@2@@std@@Vvalue@json@web@@@std@@V?$allocator@U?$pair@V?$basic_string@_WU?$char_traits@_W@std@@V?$allocator@_W@2@@std@@Vvalue@json@web@@@std@@@2@@std@@QEAA?AV?$_Vector_iterator@V?$_Vector_val@U?$_Simple_types@U?$pair@V?$basic_string@_WU?$char_traits@_W@std@@V?$allocator@_W@2@@std@@Vvalue@json@web@@@std@@@std@@@std@@@2@V?$_Vector_const_iterator@V?$_Vector_val@U?$_Simple_types@U?$pair@V?$basic_string@_WU?$char_traits@_W@std@@V?$allocator@_W@2@@std@@Vvalue@json@web@@@std@@@std@@@std@@@2@$$QEAU?$pair@V?$basic_string@_WU?$char_traits@_W@std@@V?$allocator@_W@2@@std@@Vvalue@json@web@@@2@@Z 0000000180015070 f i json.obj
 0001:00014200       ?reserve@?$basic_string@DU?$char_traits@D@std@@V?$allocator@D@2@@std@@QEAAX_K@Z 0000000180015200 f i json.obj
 0001:00014380       ?_Tidy@?$vector@Vvalue@json@web@@V?$allocator@Vvalue@json@web@@@std@@@std@@AEAAXXZ 0000000180015380 f i json.obj
 0001:00014420       ?_Buy@?$vector@Vvalue@json@web@@V?$allocator@Vvalue@json@web@@@std@@@std@@AEAA_N_K@Z 0000000180015420 f i json.obj
 0001:000144d0       ?_Udefault@?$vector@Vvalue@json@web@@V?$allocator@Vvalue@json@web@@@std@@@std@@AEAAPEAVvalue@json@web@@PEAV345@_K@Z 00000001800154d0 f i json.obj
 0001:00014550       ?_Tidy@?$vector@U?$pair@V?$basic_string@_WU?$char_traits@_W@std@@V?$allocator@_W@2@@std@@Vvalue@json@web@@@std@@V?$allocator@U?$pair@V?$basic_string@_WU?$char_traits@_W@std@@V?$allocator@_W@2@@std@@Vvalue@json@web@@@std@@@2@@std@@AEAAXXZ 0000000180015550 f i json.obj
 0001:00014610       ?_Become_small@?$basic_string@DU?$char_traits@D@std@@V?$allocator@D@2@@std@@QEAAXXZ 0000000180015610 f i json.obj
 0001:00014680       ?append@?$basic_string@DU?$char_traits@D@std@@V?$allocator@D@2@@std@@QEAAAEAV12@QEBD_K@Z 0000000180015680 f i json.obj
 0001:00014700       ?_Destroy@?$vector@Vvalue@json@web@@V?$allocator@Vvalue@json@web@@@std@@@std@@AEAAXPEAVvalue@json@web@@0@Z 0000000180015700 f i json.obj
 0001:00014740       ?deallocate@?$allocator@Vvalue@json@web@@@std@@QEAAXQEAVvalue@json@web@@_K@Z 0000000180015740 f i json.obj
 0001:00014790       ??$format_impl@D@_Object@details@json@web@@AEBAXAEAV?$basic_string@DU?$char_traits@D@std@@V?$allocator@D@2@@std@@@Z 0000000180015790 f i json.obj
 0001:00014930       ??$format_impl@_W@_Object@details@json@web@@AEBAXAEAV?$basic_string@_WU?$char_traits@_W@std@@V?$allocator@_W@2@@std@@@Z 0000000180015930 f i json.obj
 0001:00014ae0       ??$_Resize@V<lambda_8945885b29bc7255f9ee5920a0459fb4>@@@?$vector@Vvalue@json@web@@V?$allocator@Vvalue@json@web@@@std@@@std@@AEAAX_KV<lambda_8945885b29bc7255f9ee5920a0459fb4>@@@Z 0000000180015ae0 f i json.obj
 0001:00014cd0       ??$_Reallocate_grow_by@V<lambda_65e615be2a453ca0576c979606f46740>@@PEBD_K@?$basic_string@DU?$char_traits@D@std@@V?$allocator@D@2@@std@@QEAAAEAV01@_KV<lambda_65e615be2a453ca0576c979606f46740>@@PEBD_K@Z 0000000180015cd0 f i json.obj
 0001:00014e50       ?_Change_array@?$vector@Vvalue@json@web@@V?$allocator@Vvalue@json@web@@@std@@@std@@AEAAXQEAVvalue@json@web@@_K1@Z 0000000180015e50 f i json.obj
 0001:00014f10       ??0?$vector@Vvalue@json@web@@V?$allocator@Vvalue@json@web@@@std@@@std@@QEAA@AEBV01@@Z 0000000180015f10 f i json.obj
 0001:00014fb0       ??0?$vector@U?$pair@V?$basic_string@_WU?$char_traits@_W@std@@V?$allocator@_W@2@@std@@Vvalue@json@web@@@std@@V?$allocator@U?$pair@V?$basic_string@_WU?$char_traits@_W@std@@V?$allocator@_W@2@@std@@Vvalue@json@web@@@std@@@2@@std@@QEAA@AEBV01@@Z 0000000180015fb0 f i json.obj
 0001:00015100       ??$_Sort_unchecked@PEAU?$pair@V?$basic_string@_WU?$char_traits@_W@std@@V?$allocator@_W@2@@std@@Vvalue@json@web@@@std@@P6A_NAEBU12@0@Z@std@@YAXPEAU?$pair@V?$basic_string@_WU?$char_traits@_W@std@@V?$allocator@_W@2@@std@@Vvalue@json@web@@@0@0_JP6A_NAEBU10@2@Z@Z 0000000180016100 f i json.obj
 0001:00015270       ??$?4V?$basic_string@_WU?$char_traits@_W@std@@V?$allocator@_W@2@@std@@Vvalue@json@web@@$0A@@?$pair@V?$basic_string@_WU?$char_traits@_W@std@@V?$allocator@_W@2@@std@@Vvalue@json@web@@@std@@QEAAAEAU01@$$QEAU01@@Z 0000000180016270 f i json.obj
 0001:000152d0       ??$_Move_backward_unchecked@PEAU?$pair@V?$basic_string@_WU?$char_traits@_W@std@@V?$allocator@_W@2@@std@@Vvalue@json@web@@@std@@PEAU12@@std@@YAPEAU?$pair@V?$basic_string@_WU?$char_traits@_W@std@@V?$allocator@_W@2@@std@@Vvalue@json@web@@@0@PEAU10@00@Z 00000001800162d0 f i json.obj
 0001:000153d0       ??$_Emplace_reallocate@U?$pair@V?$basic_string@_WU?$char_traits@_W@std@@V?$allocator@_W@2@@std@@Vvalue@json@web@@@std@@@?$vector@U?$pair@V?$basic_string@_WU?$char_traits@_W@std@@V?$allocator@_W@2@@std@@Vvalue@json@web@@@std@@V?$allocator@U?$pair@V?$basic_string@_WU?$char_traits@_W@std@@V?$allocator@_W@2@@std@@Vvalue@json@web@@@std@@@2@@std@@QEAAPEAU?$pair@V?$basic_string@_WU?$char_traits@_W@std@@V?$allocator@_W@2@@std@@Vvalue@json@web@@@1@QEAU21@$$QEAU21@@Z 00000001800163d0 f i json.obj
 0001:000155b0       ??1?$_Uninitialized_backout_al@PEAVvalue@json@web@@V?$allocator@Vvalue@json@web@@@std@@@std@@QEAA@XZ 00000001800165b0 f i json.obj
 0001:000155f0       ?_Change_array@?$vector@U?$pair@V?$basic_string@_WU?$char_traits@_W@std@@V?$allocator@_W@2@@std@@Vvalue@json@web@@@std@@V?$allocator@U?$pair@V?$basic_string@_WU?$char_traits@_W@std@@V?$allocator@_W@2@@std@@Vvalue@json@web@@@std@@@2@@std@@AEAAXQEAU?$pair@V?$basic_string@_WU?$char_traits@_W@std@@V?$allocator@_W@2@@std@@Vvalue@json@web@@@2@_K1@Z 00000001800165f0 f i json.obj
 0001:000156d0       ?_Umove_if_noexcept@?$vector@U?$pair@V?$basic_string@_WU?$char_traits@_W@std@@V?$allocator@_W@2@@std@@Vvalue@json@web@@@std@@V?$allocator@U?$pair@V?$basic_string@_WU?$char_traits@_W@std@@V?$allocator@_W@2@@std@@Vvalue@json@web@@@std@@@2@@std@@AEAAXPEAU?$pair@V?$basic_string@_WU?$char_traits@_W@std@@V?$allocator@_W@2@@std@@Vvalue@json@web@@@2@00@Z 00000001800166d0 f i json.obj
 0001:00015730       ?_Umove@?$vector@U?$pair@V?$basic_string@_WU?$char_traits@_W@std@@V?$allocator@_W@2@@std@@Vvalue@json@web@@@std@@V?$allocator@U?$pair@V?$basic_string@_WU?$char_traits@_W@std@@V?$allocator@_W@2@@std@@Vvalue@json@web@@@std@@@2@@std@@AEAAPEAU?$pair@V?$basic_string@_WU?$char_traits@_W@std@@V?$allocator@_W@2@@std@@Vvalue@json@web@@@2@PEAU32@00@Z 0000000180016730 f i json.obj
 0001:00015790       ??$_Partition_by_median_guess_unchecked@PEAU?$pair@V?$basic_string@_WU?$char_traits@_W@std@@V?$allocator@_W@2@@std@@Vvalue@json@web@@@std@@P6A_NAEBU12@0@Z@std@@YA?AU?$pair@PEAU?$pair@V?$basic_string@_WU?$char_traits@_W@std@@V?$allocator@_W@2@@std@@Vvalue@json@web@@@std@@PEAU12@@0@PEAU?$pair@V?$basic_string@_WU?$char_traits@_W@std@@V?$allocator@_W@2@@std@@Vvalue@json@web@@@0@0P6A_NAEBU20@1@Z@Z 0000000180016790 f i json.obj
 0001:00015cb0       ??$_Make_heap_unchecked@PEAU?$pair@V?$basic_string@_WU?$char_traits@_W@std@@V?$allocator@_W@2@@std@@Vvalue@json@web@@@std@@P6A_NAEBU12@0@Z@std@@YAXPEAU?$pair@V?$basic_string@_WU?$char_traits@_W@std@@V?$allocator@_W@2@@std@@Vvalue@json@web@@@0@0P6A_NAEBU10@1@Z@Z 0000000180016cb0 f i json.obj
 0001:00015f60       ??$_Sort_heap_unchecked@PEAU?$pair@V?$basic_string@_WU?$char_traits@_W@std@@V?$allocator@_W@2@@std@@Vvalue@json@web@@@std@@P6A_NAEBU12@0@Z@std@@YAXPEAU?$pair@V?$basic_string@_WU?$char_traits@_W@std@@V?$allocator@_W@2@@std@@Vvalue@json@web@@@0@0P6A_NAEBU10@1@Z@Z 0000000180016f60 f i json.obj
 0001:00016180       ??$_Insertion_sort_unchecked@PEAU?$pair@V?$basic_string@_WU?$char_traits@_W@std@@V?$allocator@_W@2@@std@@Vvalue@json@web@@@std@@P6A_NAEBU12@0@Z@std@@YAPEAU?$pair@V?$basic_string@_WU?$char_traits@_W@std@@V?$allocator@_W@2@@std@@Vvalue@json@web@@@0@PEAU10@QEAU10@P6A_NAEBU10@2@Z@Z 0000000180017180 f i json.obj
 0001:00016520       ??$_Pop_heap_hole_by_index@PEAU?$pair@V?$basic_string@_WU?$char_traits@_W@std@@V?$allocator@_W@2@@std@@Vvalue@json@web@@@std@@U12@P6A_NAEBU12@0@Z@std@@YAXPEAU?$pair@V?$basic_string@_WU?$char_traits@_W@std@@V?$allocator@_W@2@@std@@Vvalue@json@web@@@0@_J1$$QEAU10@P6A_NAEBU10@3@Z@Z 0000000180017520 f i json.obj
 0001:000166a0       ??1?$_Uninitialized_backout_al@PEAU?$pair@V?$basic_string@_WU?$char_traits@_W@std@@V?$allocator@_W@2@@std@@Vvalue@json@web@@@std@@V?$allocator@U?$pair@V?$basic_string@_WU?$char_traits@_W@std@@V?$allocator@_W@2@@std@@Vvalue@json@web@@@std@@@2@@std@@QEAA@XZ 00000001800176a0 f i json.obj
 0001:000166e0       ??$_Med3_unchecked@PEAU?$pair@V?$basic_string@_WU?$char_traits@_W@std@@V?$allocator@_W@2@@std@@Vvalue@json@web@@@std@@P6A_NAEBU12@0@Z@std@@YAXPEAU?$pair@V?$basic_string@_WU?$char_traits@_W@std@@V?$allocator@_W@2@@std@@Vvalue@json@web@@@0@00P6A_NAEBU10@1@Z@Z 00000001800176e0 f i json.obj
 0001:00016870       ??$_Push_heap_by_index@PEAU?$pair@V?$basic_string@_WU?$char_traits@_W@std@@V?$allocator@_W@2@@std@@Vvalue@json@web@@@std@@U12@P6A_NAEBU12@0@Z@std@@YAXPEAU?$pair@V?$basic_string@_WU?$char_traits@_W@std@@V?$allocator@_W@2@@std@@Vvalue@json@web@@@0@_J1$$QEAU10@P6A_NAEBU10@3@Z@Z 0000000180017870 f i json.obj
 0001:00016a30       _ischartype_l              0000000180017a30 f i json_parsing.obj
 0001:00016aa0       _snprintf_s_l              0000000180017aa0 f i json_parsing.obj
 0001:00016b10       ?message@error_code@std@@QEBA?AV?$basic_string@DU?$char_traits@D@std@@V?$allocator@D@2@@2@XZ 0000000180017b10 f i json_parsing.obj
 0001:00016b40       ?name@_Generic_error_category@std@@UEBAPEBDXZ 0000000180017b40 f i json_parsing.obj
 0001:00016b50       ?message@_Generic_error_category@std@@UEBA?AV?$basic_string@DU?$char_traits@D@std@@V?$allocator@D@2@@2@H@Z 0000000180017b50 f i json_parsing.obj
 0001:00016ba0       ?name@_System_error_category@std@@UEBAPEBDXZ 0000000180017ba0 f i json_parsing.obj
 0001:00016bb0       ?message@_System_error_category@std@@UEBA?AV?$basic_string@DU?$char_traits@D@std@@V?$allocator@D@2@@2@H@Z 0000000180017bb0 f i json_parsing.obj
 0001:00016ea0       ?default_error_condition@_System_error_category@std@@UEBA?AVerror_condition@2@H@Z 0000000180017ea0 f i json_parsing.obj
 0001:00017160       ??1Token@?$JSON_Parser@D@details@json@web@@QEAA@XZ 0000000180018160 f i json_parsing.obj
 0001:000171d0       ?GetNextToken@?$JSON_Parser@D@details@json@web@@QEAAXAEAUToken@1234@@Z 00000001800181d0 f i json_parsing.obj
 0001:00017760       ?CompleteComment@?$JSON_Parser@D@details@json@web@@MEAA_NAEAUToken@1234@@Z 0000000180018760 f i json_parsing.obj
 0001:000178c0       ?CompleteStringLiteral@?$JSON_Parser@D@details@json@web@@MEAA_NAEAUToken@1234@@Z 00000001800188c0 f i json_parsing.obj
 0001:000179a0       ?_ParseValue@?$JSON_Parser@D@details@json@web@@AEAA?AV?$unique_ptr@V_Value@details@json@web@@U?$default_delete@V_Value@details@json@web@@@std@@@std@@AEAUToken@1234@@Z 00000001800189a0 f i json_parsing.obj
 0001:00017cd0       ?NextCharacter@?$JSON_StreamParser@D@details@json@web@@MEAAHXZ 0000000180018cd0 f i json_parsing.obj
 0001:00017d10       ?PeekCharacter@?$JSON_StreamParser@D@details@json@web@@MEAAHXZ 0000000180018d10 f i json_parsing.obj
 0001:00017d20       ??$CreateException@UToken@?$JSON_Parser@D@details@json@web@@@details@json@web@@YAXAEBUToken@?$JSON_Parser@D@012@AEBV?$basic_string@_WU?$char_traits@_W@std@@V?$allocator@_W@2@@std@@@Z 0000000180018d20 f i json_parsing.obj
 0001:00017df0       ??$_Reallocate_grow_by@V<lambda_e1befb086ad3257e3f042a63030725f7>@@_KD@?$basic_string@DU?$char_traits@D@std@@V?$allocator@D@2@@std@@QEAAAEAV01@_KV<lambda_e1befb086ad3257e3f042a63030725f7>@@_KD@Z 0000000180018df0 f i json_parsing.obj
 0001:00017f60       ??_D?$basic_ostringstream@_WU?$char_traits@_W@std@@V?$allocator@_W@2@@std@@QEAAXXZ 0000000180018f60 f i json_parsing.obj
 0001:00017fc0       ?resize@?$basic_string@_WU?$char_traits@_W@std@@V?$allocator@_W@2@@std@@QEAAX_K_W@Z 0000000180018fc0 f i json_parsing.obj
 0001:00018050       ?str@?$basic_ostringstream@_WU?$char_traits@_W@std@@V?$allocator@_W@2@@std@@QEBA?AV?$basic_string@_WU?$char_traits@_W@std@@V?$allocator@_W@2@@2@XZ 0000000180019050 f i json_parsing.obj
 0001:00018070       ??0?$basic_ostringstream@_WU?$char_traits@_W@std@@V?$allocator@_W@2@@std@@QEAA@H@Z 0000000180019070 f i json_parsing.obj
 0001:00018130       ??_G?$basic_ostringstream@_WU?$char_traits@_W@std@@V?$allocator@_W@2@@std@@UEAAPEAXI@Z 0000000180019130 f i json_parsing.obj
 0001:00018130       ??_E?$basic_ostringstream@_WU?$char_traits@_W@std@@V?$allocator@_W@2@@std@@UEAAPEAXI@Z 0000000180019130 f i * CIL library *:* CIL module *
 0001:000181d0       ?handle_unescape_char@?$JSON_Parser@D@details@json@web@@IEAA_NAEAUToken@1234@@Z 00000001800191d0 f i json_parsing.obj
 0001:00018640       ?CompleteNumberLiteral@?$JSON_Parser@D@details@json@web@@AEAA_NDAEAUToken@1234@@Z 0000000180019640 f i json_parsing.obj
 0001:00018b30       ?_ParseObject@?$JSON_Parser@D@details@json@web@@AEAA?AV?$unique_ptr@V_Value@details@json@web@@U?$default_delete@V_Value@details@json@web@@@std@@@std@@AEAUToken@1234@@Z 0000000180019b30 f i json_parsing.obj
 0001:000190b0       ?_ParseArray@?$JSON_Parser@D@details@json@web@@AEAA?AV?$unique_ptr@V_Value@details@json@web@@U?$default_delete@V_Value@details@json@web@@@std@@@std@@AEAUToken@1234@@Z 000000018001a0b0 f i json_parsing.obj
 0001:00019260       ??$_Immortalize_impl@V_Generic_error_category@std@@@std@@YAHPEAX0PEAPEAX@Z 000000018001a260 f i json_parsing.obj
 0001:00019280       ??$_Immortalize_impl@V_System_error_category@std@@@std@@YAHPEAX0PEAPEAX@Z 000000018001a280 f i json_parsing.obj
 0001:000192a0       ??$_Reallocate_grow_by@V<lambda_a3050a43f3157934f354774ab3dd2e02>@@_K_W@?$basic_string@_WU?$char_traits@_W@std@@V?$allocator@_W@2@@std@@QEAAAEAV01@_KV<lambda_a3050a43f3157934f354774ab3dd2e02>@@_K_W@Z 000000018001a2a0 f i json_parsing.obj
 0001:00019440       ??0?$vector@DV?$allocator@D@std@@@std@@QEAA@_KAEBV?$allocator@D@1@@Z 000000018001a440 f i json_parsing.obj
 0001:000194a0       ??1?$vector@_WV?$allocator@_W@std@@@std@@QEAA@XZ 000000018001a4a0 f i json_parsing.obj
 0001:00019500       ??$_Emplace_reallocate@V?$basic_string@_WU?$char_traits@_W@std@@V?$allocator@_W@2@@std@@Vvalue@json@web@@@?$vector@U?$pair@V?$basic_string@_WU?$char_traits@_W@std@@V?$allocator@_W@2@@std@@Vvalue@json@web@@@std@@V?$allocator@U?$pair@V?$basic_string@_WU?$char_traits@_W@std@@V?$allocator@_W@2@@std@@Vvalue@json@web@@@std@@@2@@std@@QEAAPEAU?$pair@V?$basic_string@_WU?$char_traits@_W@std@@V?$allocator@_W@2@@std@@Vvalue@json@web@@@1@QEAU21@$$QEAV?$basic_string@_WU?$char_traits@_W@std@@V?$allocator@_W@2@@1@$$QEAVvalue@json@web@@@Z 000000018001a500 f i json_parsing.obj
 0001:000196e0       ??$_Emplace_reallocate@Vvalue@json@web@@@?$vector@Vvalue@json@web@@V?$allocator@Vvalue@json@web@@@std@@@std@@QEAAPEAVvalue@json@web@@QEAV234@$$QEAV234@@Z 000000018001a6e0 f i json_parsing.obj
 0001:000198f0       ??$_Resize@V<lambda_0965ae3a6f2eda0c9be18e4c004bd2c1>@@@?$vector@DV?$allocator@D@std@@@std@@AEAAX_KV<lambda_0965ae3a6f2eda0c9be18e4c004bd2c1>@@@Z 000000018001a8f0 f i json_parsing.obj
 0001:00019a50       ??$_Emplace_reallocate@D@?$vector@DV?$allocator@D@std@@@std@@QEAAPEADQEAD$$QEAD@Z 000000018001aa50 f i json_parsing.obj
 0001:00019b90       ??$_Resize@V<lambda_00eee1204e9e38e59af6015522ac0aad>@@@?$vector@_WV?$allocator@_W@std@@@std@@AEAAX_KV<lambda_00eee1204e9e38e59af6015522ac0aad>@@@Z 000000018001ab90 f i json_parsing.obj
 0001:00019cf0       ?_Change_array@?$vector@DV?$allocator@D@std@@@std@@AEAAXQEAD_K1@Z 000000018001acf0 f i json_parsing.obj
 0001:00019d80       ?_Change_array@?$vector@_WV?$allocator@_W@std@@@std@@AEAAXQEA_W_K1@Z 000000018001ad80 f i json_parsing.obj
 0001:00019e0c       ??_E?$basic_ostringstream@_WU?$char_traits@_W@std@@V?$allocator@_W@2@@std@@$4PPPPPPPM@A@EAAPEAXI@Z 000000018001ae0c f i json_parsing.obj
 0001:00019e20       _swprintf_s_l              000000018001ae20 f i json_serialization.obj
 0001:00019e80       _sprintf_s_l               000000018001ae80 f i json_serialization.obj
 0001:00019ee0       ?format_string@details@json@web@@YAXAEBV?$basic_string@_WU?$char_traits@_W@std@@V?$allocator@_W@2@@std@@AEAV45@@Z 000000018001aee0 f   json_serialization.obj
 0001:00019fa0       ?format_string@details@json@web@@YAXAEBV?$basic_string@_WU?$char_traits@_W@std@@V?$allocator@_W@2@@std@@AEAV?$basic_string@DU?$char_traits@D@std@@V?$allocator@D@2@@5@@Z 000000018001afa0 f   json_serialization.obj
 0001:0001a0b0       ?format@_String@details@json@web@@MEBAXAEAV?$basic_string@DU?$char_traits@D@std@@V?$allocator@D@2@@std@@@Z 000000018001b0b0 f   json_serialization.obj
 0001:0001a220       ?format@_Number@details@json@web@@MEBAXAEAV?$basic_string@DU?$char_traits@D@std@@V?$allocator@D@2@@std@@@Z 000000018001b220 f   json_serialization.obj
 0001:0001a370       ?format@_String@details@json@web@@MEBAXAEAV?$basic_string@_WU?$char_traits@_W@std@@V?$allocator@_W@2@@std@@@Z 000000018001b370 f   json_serialization.obj
 0001:0001a450       ?format@_Number@details@json@web@@MEBAXAEAV?$basic_string@_WU?$char_traits@_W@std@@V?$allocator@_W@2@@std@@@Z 000000018001b450 f   json_serialization.obj
 0001:0001a5a0       ??$append_escape_string@_W@details@json@web@@YAXAEAV?$basic_string@_WU?$char_traits@_W@std@@V?$allocator@_W@2@@std@@AEBV34@@Z 000000018001b5a0 f i json_serialization.obj
 0001:0001ab60       ??$append_escape_string@D@details@json@web@@YAXAEAV?$basic_string@DU?$char_traits@D@std@@V?$allocator@D@2@@std@@AEBV34@@Z 000000018001bb60 f i json_serialization.obj
 0001:0001b0a0       ??1exception_ptr@std@@QEAA@XZ 000000018001c0a0 f i asyncrt_utils.obj
 0001:0001b0c0       ??0exception_ptr@std@@QEAA@AEBV01@@Z 000000018001c0c0 f i asyncrt_utils.obj
 0001:0001b0f0       ?_RethrowException@exception_ptr@std@@QEBAXXZ 000000018001c0f0 f i asyncrt_utils.obj
 0001:0001b100       ?rethrow_exception@std@@YAXVexception_ptr@1@@Z 000000018001c100 f i asyncrt_utils.obj
 0001:0001b120       ??0runtime_error@std@@QEAA@PEBD@Z 000000018001c120 f i asyncrt_utils.obj
 0001:0001b170       ??0range_error@std@@QEAA@PEBD@Z 000000018001c170 f i asyncrt_utils.obj
 0001:0001b1c0       ??0runtime_error@std@@QEAA@AEBV01@@Z 000000018001c1c0 f i asyncrt_utils.obj
 0001:0001b200       ?c_locale@scoped_c_thread_locale@details@utility@@SAPEAU__crt_locale_pointers@@XZ 000000018001c200 f   asyncrt_utils.obj
 0001:0001b2d0       ?utf8_to_utf16@conversions@utility@@YA?AV?$basic_string@_WU?$char_traits@_W@std@@V?$allocator@_W@2@@std@@AEBV?$basic_string@DU?$char_traits@D@std@@V?$allocator@D@2@@4@@Z 000000018001c2d0 f   asyncrt_utils.obj
 0001:0001b5c0       ??0range_error@std@@QEAA@AEBV01@@Z 000000018001c5c0 f i asyncrt_utils.obj
 0001:0001b600       ?utf16_to_utf8@conversions@utility@@YA?AV?$basic_string@DU?$char_traits@D@std@@V?$allocator@D@2@@std@@AEBV?$basic_string@_WU?$char_traits@_W@std@@V?$allocator@_W@2@@4@@Z 000000018001c600 f   asyncrt_utils.obj
 0001:0001b9c0       ?to_string_t@conversions@utility@@YA?AV?$basic_string@_WU?$char_traits@_W@std@@V?$allocator@_W@2@@std@@$$QEAV?$basic_string@DU?$char_traits@D@std@@V?$allocator@D@2@@4@@Z 000000018001c9c0 f   asyncrt_utils.obj
 0001:0001b9e0       ??$_Callback_once@V?$tuple@$$QEAV<lambda_be06702159ab0b9b163ca675bae932a8>@@AEAVexception_ptr@std@@@std@@U?$integer_sequence@_K$0A@@2@$00@std@@YAHPEAX0PEAPEAX@Z 000000018001c9e0 f i asyncrt_utils.obj
 0001:0001ba80       ?reconcile_libraries_with_targets@deps_json_t@@AEAAXAEBVvalue@json@web@@AEBV?$function@$$A6A_NAEBV?$basic_string@_WU?$char_traits@_W@std@@V?$allocator@_W@2@@std@@@Z@std@@AEBV?$function@$$A6AAEBV?$vector@V?$basic_string@_WU?$char_traits@_W@std@@V?$allocator@_W@2@@std@@V?$allocator@V?$basic_string@_WU?$char_traits@_W@std@@V?$allocator@_W@2@@std@@@2@@std@@AEBV?$basic_string@_WU?$char_traits@_W@std@@V?$allocator@_W@2@@2@HPEA_N@Z@6@@Z 000000018001ca80 f   deps_format.obj
 0001:0001c890       ?perform_rid_fallback@deps_json_t@@AEAA_NPEAUrid_specific_assets_t@1@AEBV?$unordered_map@V?$basic_string@_WU?$char_traits@_W@std@@V?$allocator@_W@2@@std@@V?$vector@V?$basic_string@_WU?$char_traits@_W@std@@V?$allocator@_W@2@@std@@V?$allocator@V?$basic_string@_WU?$char_traits@_W@std@@V?$allocator@_W@2@@std@@@2@@2@U?$hash@V?$basic_string@_WU?$char_traits@_W@std@@V?$allocator@_W@2@@std@@@2@U?$equal_to@V?$basic_string@_WU?$char_traits@_W@std@@V?$allocator@_W@2@@std@@@2@V?$allocator@U?$pair@$$CBV?$basic_string@_WU?$char_traits@_W@std@@V?$allocator@_W@2@@std@@V?$vector@V?$basic_string@_WU?$char_traits@_W@std@@V?$allocator@_W@2@@std@@V?$allocator@V?$basic_string@_WU?$char_traits@_W@std@@V?$allocator@_W@2@@std@@@2@@2@@std@@@2@@std@@@Z 000000018001d890 f   deps_format.obj
 0001:0001cf20       ?process_runtime_targets@deps_json_t@@AEAA_NAEBVvalue@json@web@@AEBV?$basic_string@_WU?$char_traits@_W@std@@V?$allocator@_W@2@@std@@AEBV?$unordered_map@V?$basic_string@_WU?$char_traits@_W@std@@V?$allocator@_W@2@@std@@V?$vector@V?$basic_string@_WU?$char_traits@_W@std@@V?$allocator@_W@2@@std@@V?$allocator@V?$basic_string@_WU?$char_traits@_W@std@@V?$allocator@_W@2@@std@@@2@@2@U?$hash@V?$basic_string@_WU?$char_traits@_W@std@@V?$allocator@_W@2@@std@@@2@U?$equal_to@V?$basic_string@_WU?$char_traits@_W@std@@V?$allocator@_W@2@@std@@@2@V?$allocator@U?$pair@$$CBV?$basic_string@_WU?$char_traits@_W@std@@V?$allocator@_W@2@@std@@V?$vector@V?$basic_string@_WU?$char_traits@_W@std@@V?$allocator@_W@2@@std@@V?$allocator@V?$basic_string@_WU?$char_traits@_W@std@@V?$allocator@_W@2@@std@@@2@@2@@std@@@2@@6@PEAUrid_specific_assets_t@1@@Z 000000018001df20 f   deps_format.obj
 0001:0001d560       ?process_targets@deps_json_t@@AEAA_NAEBVvalue@json@web@@AEBV?$basic_string@_WU?$char_traits@_W@std@@V?$allocator@_W@2@@std@@PEAUdeps_assets_t@1@@Z 000000018001e560 f   deps_format.obj
 0001:0001d8f0       ?load_portable@deps_json_t@@AEAA_NAEBVvalue@json@web@@AEBV?$basic_string@_WU?$char_traits@_W@std@@V?$allocator@_W@2@@std@@AEBV?$unordered_map@V?$basic_string@_WU?$char_traits@_W@std@@V?$allocator@_W@2@@std@@V?$vector@V?$basic_string@_WU?$char_traits@_W@std@@V?$allocator@_W@2@@std@@V?$allocator@V?$basic_string@_WU?$char_traits@_W@std@@V?$allocator@_W@2@@std@@@2@@2@U?$hash@V?$basic_string@_WU?$char_traits@_W@std@@V?$allocator@_W@2@@std@@@2@U?$equal_to@V?$basic_string@_WU?$char_traits@_W@std@@V?$allocator@_W@2@@std@@@2@V?$allocator@U?$pair@$$CBV?$basic_string@_WU?$char_traits@_W@std@@V?$allocator@_W@2@@std@@V?$vector@V?$basic_string@_WU?$char_traits@_W@std@@V?$allocator@_W@2@@std@@V?$allocator@V?$basic_string@_WU?$char_traits@_W@std@@V?$allocator@_W@2@@std@@@2@@2@@std@@@2@@6@@Z 000000018001e8f0 f   deps_format.obj
 0001:0001da70       ??1?$function@$$A6A?AV?$basic_string@_WU?$char_traits@_W@std@@V?$allocator@_W@2@@std@@AEBV12@@Z@std@@QEAA@XZ 000000018001ea70 f i deps_resolver.obj
 0001:0001da70       ??1?$function@$$A6A_NAEBV?$basic_string@_WU?$char_traits@_W@std@@V?$allocator@_W@2@@std@@@Z@std@@QEAA@XZ 000000018001ea70 f i deps_format.obj
 0001:0001da70       ??1?$function@$$A6AAEBV?$vector@V?$basic_string@_WU?$char_traits@_W@std@@V?$allocator@_W@2@@std@@V?$allocator@V?$basic_string@_WU?$char_traits@_W@std@@V?$allocator@_W@2@@std@@@2@@std@@AEBV?$basic_string@_WU?$char_traits@_W@std@@V?$allocator@_W@2@@2@HPEA_N@Z@std@@QEAA@XZ 000000018001ea70 f i deps_format.obj
 0001:0001daa0       ?load_standalone@deps_json_t@@AEAA_NAEBVvalue@json@web@@AEBV?$basic_string@_WU?$char_traits@_W@std@@V?$allocator@_W@2@@std@@@Z 000000018001eaa0 f   deps_format.obj
 0001:0001de20       ?has_package@deps_json_t@@QEBA_NAEBV?$basic_string@_WU?$char_traits@_W@std@@V?$allocator@_W@2@@std@@0@Z 000000018001ee20 f   deps_format.obj
 0001:0001dfd0       ?load@deps_json_t@@AEAA_N_NAEBV?$basic_string@_WU?$char_traits@_W@std@@V?$allocator@_W@2@@std@@AEBV?$unordered_map@V?$basic_string@_WU?$char_traits@_W@std@@V?$allocator@_W@2@@std@@V?$vector@V?$basic_string@_WU?$char_traits@_W@std@@V?$allocator@_W@2@@std@@V?$allocator@V?$basic_string@_WU?$char_traits@_W@std@@V?$allocator@_W@2@@std@@@2@@2@U?$hash@V?$basic_string@_WU?$char_traits@_W@std@@V?$allocator@_W@2@@std@@@2@U?$equal_to@V?$basic_string@_WU?$char_traits@_W@std@@V?$allocator@_W@2@@std@@@2@V?$allocator@U?$pair@$$CBV?$basic_string@_WU?$char_traits@_W@std@@V?$allocator@_W@2@@std@@V?$vector@V?$basic_string@_WU?$char_traits@_W@std@@V?$allocator@_W@2@@std@@V?$allocator@V?$basic_string@_WU?$char_traits@_W@std@@V?$allocator@_W@2@@std@@@2@@2@@std@@@2@@3@@Z 000000018001efd0 f   deps_format.obj
 0001:0001e4b0       ??A?$unordered_map@V?$basic_string@_WU?$char_traits@_W@std@@V?$allocator@_W@2@@std@@Urid_assets_t@deps_json_t@@U?$hash@V?$basic_string@_WU?$char_traits@_W@std@@V?$allocator@_W@2@@std@@@2@U?$equal_to@V?$basic_string@_WU?$char_traits@_W@std@@V?$allocator@_W@2@@std@@@2@V?$allocator@U?$pair@$$CBV?$basic_string@_WU?$char_traits@_W@std@@V?$allocator@_W@2@@std@@Urid_assets_t@deps_json_t@@@std@@@2@@std@@QEAAAEAUrid_assets_t@deps_json_t@@AEBV?$basic_string@_WU?$char_traits@_W@std@@V?$allocator@_W@2@@1@@Z 000000018001f4b0 f i deps_format.obj
 0001:0001e570       ??A?$unordered_map@V?$basic_string@_WU?$char_traits@_W@std@@V?$allocator@_W@2@@std@@Uassets_t@deps_json_t@@U?$hash@V?$basic_string@_WU?$char_traits@_W@std@@V?$allocator@_W@2@@std@@@2@U?$equal_to@V?$basic_string@_WU?$char_traits@_W@std@@V?$allocator@_W@2@@std@@@2@V?$allocator@U?$pair@$$CBV?$basic_string@_WU?$char_traits@_W@std@@V?$allocator@_W@2@@std@@Uassets_t@deps_json_t@@@std@@@2@@std@@QEAAAEAUassets_t@deps_json_t@@AEBV?$basic_string@_WU?$char_traits@_W@std@@V?$allocator@_W@2@@1@@Z 000000018001f570 f i deps_format.obj
 0001:0001e630       ??$erase@V?$_List_iterator@V?$_List_val@U?$_List_simple_types@U?$pair@$$CBV?$basic_string@_WU?$char_traits@_W@std@@V?$allocator@_W@2@@std@@Uassets_t@deps_json_t@@@std@@@std@@@std@@@std@@X@?$_Hash@V?$_Umap_traits@V?$basic_string@_WU?$char_traits@_W@std@@V?$allocator@_W@2@@std@@Uassets_t@deps_json_t@@V?$_Uhash_compare@V?$basic_string@_WU?$char_traits@_W@std@@V?$allocator@_W@2@@std@@U?$hash@V?$basic_string@_WU?$char_traits@_W@std@@V?$allocator@_W@2@@std@@@2@U?$equal_to@V?$basic_string@_WU?$char_traits@_W@std@@V?$allocator@_W@2@@std@@@2@@2@V?$allocator@U?$pair@$$CBV?$basic_string@_WU?$char_traits@_W@std@@V?$allocator@_W@2@@std@@Uassets_t@deps_json_t@@@std@@@2@$0A@@std@@@std@@QEAA?AV?$_List_iterator@V?$_List_val@U?$_List_simple_types@U?$pair@$$CBV?$basic_string@_WU?$char_traits@_W@std@@V?$allocator@_W@2@@std@@Uassets_t@deps_json_t@@@std@@@std@@@std@@@1@V21@@Z 000000018001f630 f i deps_format.obj
 0001:0001e730       ??$_Emplace_reallocate@AEBUdeps_entry_t@@@?$vector@Udeps_entry_t@@V?$allocator@Udeps_entry_t@@@std@@@std@@QEAAPEAUdeps_entry_t@@QEAU2@AEBU2@@Z 000000018001f730 f i deps_format.obj
 0001:0001e9a0       ??$_Uninitialized_move@PEAUdeps_entry_t@@PEAU1@V?$allocator@Udeps_entry_t@@@std@@@std@@YAPEAUdeps_entry_t@@QEAU1@0PEAU1@AEAV?$allocator@Udeps_entry_t@@@0@@Z 000000018001f9a0 f i deps_format.obj
 0001:0001eee0       ??$_Insert@AEAU?$pair@$$CBV?$basic_string@_WU?$char_traits@_W@std@@V?$allocator@_W@2@@std@@H@std@@V?$_List_unchecked_iterator@V?$_List_val@U?$_List_simple_types@U?$pair@$$CBV?$basic_string@_WU?$char_traits@_W@std@@V?$allocator@_W@2@@std@@H@std@@@std@@@std@@@2@@?$_Hash@V?$_Umap_traits@V?$basic_string@_WU?$char_traits@_W@std@@V?$allocator@_W@2@@std@@HV?$_Uhash_compare@V?$basic_string@_WU?$char_traits@_W@std@@V?$allocator@_W@2@@std@@U?$hash@V?$basic_string@_WU?$char_traits@_W@std@@V?$allocator@_W@2@@std@@@2@U?$equal_to@V?$basic_string@_WU?$char_traits@_W@std@@V?$allocator@_W@2@@std@@@2@@2@V?$allocator@U?$pair@$$CBV?$basic_string@_WU?$char_traits@_W@std@@V?$allocator@_W@2@@std@@H@std@@@2@$0A@@std@@@std@@IEAA?AU?$pair@V?$_List_iterator@V?$_List_val@U?$_List_simple_types@U?$pair@$$CBV?$basic_string@_WU?$char_traits@_W@std@@V?$allocator@_W@2@@std@@H@std@@@std@@@std@@@std@@_N@1@AEAU?$pair@$$CBV?$basic_string@_WU?$char_traits@_W@std@@V?$allocator@_W@2@@std@@H@1@V?$_List_unchecked_iterator@V?$_List_val@U?$_List_simple_types@U?$pair@$$CBV?$basic_string@_WU?$char_traits@_W@std@@V?$allocator@_W@2@@std@@H@std@@@std@@@std@@@1@@Z 000000018001fee0 f i deps_format.obj
 0001:0001f140       ??$_Insert@AEAU?$pair@$$CBV?$basic_string@_WU?$char_traits@_W@std@@V?$allocator@_W@2@@std@@Urid_assets_t@deps_json_t@@@std@@V?$_List_unchecked_iterator@V?$_List_val@U?$_List_simple_types@U?$pair@$$CBV?$basic_string@_WU?$char_traits@_W@std@@V?$allocator@_W@2@@std@@Urid_assets_t@deps_json_t@@@std@@@std@@@std@@@2@@?$_Hash@V?$_Umap_traits@V?$basic_string@_WU?$char_traits@_W@std@@V?$allocator@_W@2@@std@@Urid_assets_t@deps_json_t@@V?$_Uhash_compare@V?$basic_string@_WU?$char_traits@_W@std@@V?$allocator@_W@2@@std@@U?$hash@V?$basic_string@_WU?$char_traits@_W@std@@V?$allocator@_W@2@@std@@@2@U?$equal_to@V?$basic_string@_WU?$char_traits@_W@std@@V?$allocator@_W@2@@std@@@2@@2@V?$allocator@U?$pair@$$CBV?$basic_string@_WU?$char_traits@_W@std@@V?$allocator@_W@2@@std@@Urid_assets_t@deps_json_t@@@std@@@2@$0A@@std@@@std@@IEAA?AU?$pair@V?$_List_iterator@V?$_List_val@U?$_List_simple_types@U?$pair@$$CBV?$basic_string@_WU?$char_traits@_W@std@@V?$allocator@_W@2@@std@@Urid_assets_t@deps_json_t@@@std@@@std@@@std@@@std@@_N@1@AEAU?$pair@$$CBV?$basic_string@_WU?$char_traits@_W@std@@V?$allocator@_W@2@@std@@Urid_assets_t@deps_json_t@@@1@V?$_List_unchecked_iterator@V?$_List_val@U?$_List_simple_types@U?$pair@$$CBV?$basic_string@_WU?$char_traits@_W@std@@V?$allocator@_W@2@@std@@Urid_assets_t@deps_json_t@@@std@@@std@@@std@@@1@@Z 0000000180020140 f i deps_format.obj
 0001:0001f3c0       ??$_Insert@AEAU?$pair@$$CBV?$basic_string@_WU?$char_traits@_W@std@@V?$allocator@_W@2@@std@@Uassets_t@deps_json_t@@@std@@V?$_List_unchecked_iterator@V?$_List_val@U?$_List_simple_types@U?$pair@$$CBV?$basic_string@_WU?$char_traits@_W@std@@V?$allocator@_W@2@@std@@Uassets_t@deps_json_t@@@std@@@std@@@std@@@2@@?$_Hash@V?$_Umap_traits@V?$basic_string@_WU?$char_traits@_W@std@@V?$allocator@_W@2@@std@@Uassets_t@deps_json_t@@V?$_Uhash_compare@V?$basic_string@_WU?$char_traits@_W@std@@V?$allocator@_W@2@@std@@U?$hash@V?$basic_string@_WU?$char_traits@_W@std@@V?$allocator@_W@2@@std@@@2@U?$equal_to@V?$basic_string@_WU?$char_traits@_W@std@@V?$allocator@_W@2@@std@@@2@@2@V?$allocator@U?$pair@$$CBV?$basic_string@_WU?$char_traits@_W@std@@V?$allocator@_W@2@@std@@Uassets_t@deps_json_t@@@std@@@2@$0A@@std@@@std@@IEAA?AU?$pair@V?$_List_iterator@V?$_List_val@U?$_List_simple_types@U?$pair@$$CBV?$basic_string@_WU?$char_traits@_W@std@@V?$allocator@_W@2@@std@@Uassets_t@deps_json_t@@@std@@@std@@@std@@@std@@_N@1@AEAU?$pair@$$CBV?$basic_string@_WU?$char_traits@_W@std@@V?$allocator@_W@2@@std@@Uassets_t@deps_json_t@@@1@V?$_List_unchecked_iterator@V?$_List_val@U?$_List_simple_types@U?$pair@$$CBV?$basic_string@_WU?$char_traits@_W@std@@V?$allocator@_W@2@@std@@Uassets_t@deps_json_t@@@std@@@std@@@std@@@1@@Z 00000001800203c0 f i deps_format.obj
 0001:0001f640       ??$_Buynode@AEBUpiecewise_construct_t@std@@V?$tuple@AEBV?$basic_string@_WU?$char_traits@_W@std@@V?$allocator@_W@2@@std@@@2@V?$tuple@$$V@2@@?$_List_buy@U?$pair@$$CBV?$basic_string@_WU?$char_traits@_W@std@@V?$allocator@_W@2@@std@@H@std@@V?$allocator@U?$pair@$$CBV?$basic_string@_WU?$char_traits@_W@std@@V?$allocator@_W@2@@std@@H@std@@@2@@std@@QEAAPEAU?$_List_node@U?$pair@$$CBV?$basic_string@_WU?$char_traits@_W@std@@V?$allocator@_W@2@@std@@H@std@@PEAX@1@PEAU21@0AEBUpiecewise_construct_t@1@$$QEAV?$tuple@AEBV?$basic_string@_WU?$char_traits@_W@std@@V?$allocator@_W@2@@std@@@1@$$QEAV?$tuple@$$V@1@@Z 0000000180020640 f i deps_format.obj
 0001:0001f690       ??$erase@V?$_List_iterator@V?$_List_val@U?$_List_simple_types@U?$pair@$$CBV?$basic_string@_WU?$char_traits@_W@std@@V?$allocator@_W@2@@std@@H@std@@@std@@@std@@@std@@X@?$_Hash@V?$_Umap_traits@V?$basic_string@_WU?$char_traits@_W@std@@V?$allocator@_W@2@@std@@HV?$_Uhash_compare@V?$basic_string@_WU?$char_traits@_W@std@@V?$allocator@_W@2@@std@@U?$hash@V?$basic_string@_WU?$char_traits@_W@std@@V?$allocator@_W@2@@std@@@2@U?$equal_to@V?$basic_string@_WU?$char_traits@_W@std@@V?$allocator@_W@2@@std@@@2@@2@V?$allocator@U?$pair@$$CBV?$basic_string@_WU?$char_traits@_W@std@@V?$allocator@_W@2@@std@@H@std@@@2@$0A@@std@@@std@@QEAA?AV?$_List_iterator@V?$_List_val@U?$_List_simple_types@U?$pair@$$CBV?$basic_string@_WU?$char_traits@_W@std@@V?$allocator@_W@2@@std@@H@std@@@std@@@std@@@1@V21@@Z 0000000180020690 f i deps_format.obj
 0001:0001f780       ??$_Buynode@AEBUpiecewise_construct_t@std@@V?$tuple@AEBV?$basic_string@_WU?$char_traits@_W@std@@V?$allocator@_W@2@@std@@@2@V?$tuple@$$V@2@@?$_List_buy@U?$pair@$$CBV?$basic_string@_WU?$char_traits@_W@std@@V?$allocator@_W@2@@std@@Urid_assets_t@deps_json_t@@@std@@V?$allocator@U?$pair@$$CBV?$basic_string@_WU?$char_traits@_W@std@@V?$allocator@_W@2@@std@@Urid_assets_t@deps_json_t@@@std@@@2@@std@@QEAAPEAU?$_List_node@U?$pair@$$CBV?$basic_string@_WU?$char_traits@_W@std@@V?$allocator@_W@2@@std@@Urid_assets_t@deps_json_t@@@std@@PEAX@1@PEAU21@0AEBUpiecewise_construct_t@1@$$QEAV?$tuple@AEBV?$basic_string@_WU?$char_traits@_W@std@@V?$allocator@_W@2@@std@@@1@$$QEAV?$tuple@$$V@1@@Z 0000000180020780 f i deps_format.obj
 0001:0001f810       ??$erase@V?$_List_iterator@V?$_List_val@U?$_List_simple_types@U?$pair@$$CBV?$basic_string@_WU?$char_traits@_W@std@@V?$allocator@_W@2@@std@@Urid_assets_t@deps_json_t@@@std@@@std@@@std@@@std@@X@?$_Hash@V?$_Umap_traits@V?$basic_string@_WU?$char_traits@_W@std@@V?$allocator@_W@2@@std@@Urid_assets_t@deps_json_t@@V?$_Uhash_compare@V?$basic_string@_WU?$char_traits@_W@std@@V?$allocator@_W@2@@std@@U?$hash@V?$basic_string@_WU?$char_traits@_W@std@@V?$allocator@_W@2@@std@@@2@U?$equal_to@V?$basic_string@_WU?$char_traits@_W@std@@V?$allocator@_W@2@@std@@@2@@2@V?$allocator@U?$pair@$$CBV?$basic_string@_WU?$char_traits@_W@std@@V?$allocator@_W@2@@std@@Urid_assets_t@deps_json_t@@@std@@@2@$0A@@std@@@std@@QEAA?AV?$_List_iterator@V?$_List_val@U?$_List_simple_types@U?$pair@$$CBV?$basic_string@_WU?$char_traits@_W@std@@V?$allocator@_W@2@@std@@Urid_assets_t@deps_json_t@@@std@@@std@@@std@@@1@V21@@Z 0000000180020810 f i deps_format.obj
 0001:0001f910       ??$_Buynode@AEBUpiecewise_construct_t@std@@V?$tuple@AEBV?$basic_string@_WU?$char_traits@_W@std@@V?$allocator@_W@2@@std@@@2@V?$tuple@$$V@2@@?$_List_buy@U?$pair@$$CBV?$basic_string@_WU?$char_traits@_W@std@@V?$allocator@_W@2@@std@@Uassets_t@deps_json_t@@@std@@V?$allocator@U?$pair@$$CBV?$basic_string@_WU?$char_traits@_W@std@@V?$allocator@_W@2@@std@@Uassets_t@deps_json_t@@@std@@@2@@std@@QEAAPEAU?$_List_node@U?$pair@$$CBV?$basic_string@_WU?$char_traits@_W@std@@V?$allocator@_W@2@@std@@Uassets_t@deps_json_t@@@std@@PEAX@1@PEAU21@0AEBUpiecewise_construct_t@1@$$QEAV?$tuple@AEBV?$basic_string@_WU?$char_traits@_W@std@@V?$allocator@_W@2@@std@@@1@$$QEAV?$tuple@$$V@1@@Z 0000000180020910 f i deps_format.obj
 0001:0001f9a0       ?to_path@deps_entry_t@@QEBA_NAEBV?$basic_string@_WU?$char_traits@_W@std@@V?$allocator@_W@2@@std@@_NPEAV23@@Z 00000001800209a0 f   deps_entry.obj
 0001:0001fdf0       ?to_dir_path@deps_entry_t@@QEBA_NAEBV?$basic_string@_WU?$char_traits@_W@std@@V?$allocator@_W@2@@std@@PEAV23@@Z 0000000180020df0 f   deps_entry.obj
 0001:000201c0       ?to_full_path@deps_entry_t@@QEBA_NAEBV?$basic_string@_WU?$char_traits@_W@std@@V?$allocator@_W@2@@std@@PEAV23@@Z 00000001800211c0 f   deps_entry.obj
 0001:000202c0       ?to_hash_matched_path@deps_entry_t@@QEBA_NAEBV?$basic_string@_WU?$char_traits@_W@std@@V?$allocator@_W@2@@std@@PEAV23@@Z 00000001800212c0 f   deps_entry.obj
 0001:00020e60       ?replace@?$basic_string@DU?$char_traits@D@std@@V?$allocator@D@2@@std@@QEAAAEAV12@_K_KQEBD0@Z 0000000180021e60 f i deps_entry.obj
 0001:00021000       ??$_Reallocate_grow_by@V<lambda_16d2cb92461ac9818af78a76c749bd7f>@@_K_KPEBD_K@?$basic_string@DU?$char_traits@D@std@@V?$allocator@D@2@@std@@QEAAAEAV01@_KV<lambda_16d2cb92461ac9818af78a76c749bd7f>@@_K2PEBD2@Z 0000000180022000 f i deps_entry.obj
 0001:000211c0       ??$_Construct@V?$istreambuf_iterator@DU?$char_traits@D@std@@@std@@@?$basic_string@DU?$char_traits@D@std@@V?$allocator@D@2@@std@@QEAAXV?$istreambuf_iterator@DU?$char_traits@D@std@@@1@V21@Uinput_iterator_tag@1@@Z 00000001800221c0 f i deps_entry.obj
 0001:00021710       ?get_dir_assemblies@deps_resolver_t@@AEAAXAEBV?$basic_string@_WU?$char_traits@_W@std@@V?$allocator@_W@2@@std@@0PEAV?$unordered_map@V?$basic_string@_WU?$char_traits@_W@std@@V?$allocator@_W@2@@std@@V12@U?$hash@V?$basic_string@_WU?$char_traits@_W@std@@V?$allocator@_W@2@@std@@@2@U?$equal_to@V?$basic_string@_WU?$char_traits@_W@std@@V?$allocator@_W@2@@std@@@2@V?$allocator@U?$pair@$$CBV?$basic_string@_WU?$char_traits@_W@std@@V?$allocator@_W@2@@std@@V12@@std@@@2@@3@@Z 0000000180022710 f   deps_resolver.obj
 0001:00021f20       ?try_roll_forward@deps_resolver_t@@AEAA_NAEBUdeps_entry_t@@AEBV?$basic_string@_WU?$char_traits@_W@std@@V?$allocator@_W@2@@std@@_N2PEAV34@@Z 0000000180022f20 f   deps_resolver.obj
 0001:000224e0       ?setup_probe_config@deps_resolver_t@@QEAAXAEBUhostpolicy_init_t@@AEBUarguments_t@@@Z 00000001800234e0 f   deps_resolver.obj
 0001:00022af0       ?probe_entry_in_configs@deps_resolver_t@@AEAA_NAEBUdeps_entry_t@@PEAV?$basic_string@_WU?$char_traits@_W@std@@V?$allocator@_W@2@@std@@@Z 0000000180023af0 f   deps_resolver.obj
 0001:00022f10       ?probe_deps_entry@deps_resolver_t@@AEAA_NAEBUdeps_entry_t@@AEBV?$basic_string@_WU?$char_traits@_W@std@@V?$allocator@_W@2@@std@@PEAV34@@Z 0000000180023f10 f   deps_resolver.obj
 0001:00022f90       ?resolve_tpa_list@deps_resolver_t@@AEAA_NPEAV?$basic_string@_WU?$char_traits@_W@std@@V?$allocator@_W@2@@std@@PEAV?$unordered_set@V?$basic_string@_WU?$char_traits@_W@std@@V?$allocator@_W@2@@std@@U?$hash@V?$basic_string@_WU?$char_traits@_W@std@@V?$allocator@_W@2@@std@@@2@U?$equal_to@V?$basic_string@_WU?$char_traits@_W@std@@V?$allocator@_W@2@@std@@@2@V?$allocator@V?$basic_string@_WU?$char_traits@_W@std@@V?$allocator@_W@2@@std@@@2@@3@@Z 0000000180023f90 f   deps_resolver.obj
 0001:00023860       ?init_known_entry_path@deps_resolver_t@@QEAAXAEBUdeps_entry_t@@AEBV?$basic_string@_WU?$char_traits@_W@std@@V?$allocator@_W@2@@std@@@Z 0000000180024860 f   deps_resolver.obj
 0001:00023bf0       ?resolve_probe_dirs@deps_resolver_t@@AEAA_NW4asset_types@deps_entry_t@@PEAV?$basic_string@_WU?$char_traits@_W@std@@V?$allocator@_W@2@@std@@PEAV?$unordered_set@V?$basic_string@_WU?$char_traits@_W@std@@V?$allocator@_W@2@@std@@U?$hash@V?$basic_string@_WU?$char_traits@_W@std@@V?$allocator@_W@2@@std@@@2@U?$equal_to@V?$basic_string@_WU?$char_traits@_W@std@@V?$allocator@_W@2@@std@@@2@V?$allocator@V?$basic_string@_WU?$char_traits@_W@std@@V?$allocator@_W@2@@std@@@2@@5@@Z 0000000180024bf0 f   deps_resolver.obj
 0001:000248f0       ?resolve_probe_paths@deps_resolver_t@@QEAA_NPEAUprobe_paths_t@@PEAV?$unordered_set@V?$basic_string@_WU?$char_traits@_W@std@@V?$allocator@_W@2@@std@@U?$hash@V?$basic_string@_WU?$char_traits@_W@std@@V?$allocator@_W@2@@std@@@2@U?$equal_to@V?$basic_string@_WU?$char_traits@_W@std@@V?$allocator@_W@2@@std@@@2@V?$allocator@V?$basic_string@_WU?$char_traits@_W@std@@V?$allocator@_W@2@@std@@@2@@std@@@Z 00000001800258f0 f   deps_resolver.obj
 0001:000249c0       ?push_back@?$vector@Uprobe_config_t@@V?$allocator@Uprobe_config_t@@@std@@@std@@QEAAX$$QEAUprobe_config_t@@@Z 00000001800259c0 f i deps_resolver.obj
 0001:00024a40       ??A?$unordered_map@V?$basic_string@_WU?$char_traits@_W@std@@V?$allocator@_W@2@@std@@V12@U?$hash@V?$basic_string@_WU?$char_traits@_W@std@@V?$allocator@_W@2@@std@@@2@U?$equal_to@V?$basic_string@_WU?$char_traits@_W@std@@V?$allocator@_W@2@@std@@@2@V?$allocator@U?$pair@$$CBV?$basic_string@_WU?$char_traits@_W@std@@V?$allocator@_W@2@@std@@V12@@std@@@2@@std@@QEAAAEAV?$basic_string@_WU?$char_traits@_W@std@@V?$allocator@_W@2@@1@AEBV21@@Z 0000000180025a40 f i deps_resolver.obj
 0001:00024b00       ?equal_range@?$_Hash@V?$_Uset_traits@V?$basic_string@_WU?$char_traits@_W@std@@V?$allocator@_W@2@@std@@V?$_Uhash_compare@V?$basic_string@_WU?$char_traits@_W@std@@V?$allocator@_W@2@@std@@U?$hash@V?$basic_string@_WU?$char_traits@_W@std@@V?$allocator@_W@2@@std@@@2@U?$equal_to@V?$basic_string@_WU?$char_traits@_W@std@@V?$allocator@_W@2@@std@@@2@@2@V?$allocator@V?$basic_string@_WU?$char_traits@_W@std@@V?$allocator@_W@2@@std@@@2@$0A@@std@@@std@@QEBA?AU?$pair@V?$_List_const_iterator@V?$_List_val@U?$_List_simple_types@V?$basic_string@_WU?$char_traits@_W@std@@V?$allocator@_W@2@@std@@@std@@@std@@@std@@V12@@2@AEBV?$basic_string@_WU?$char_traits@_W@std@@V?$allocator@_W@2@@2@@Z 0000000180025b00 f i deps_resolver.obj
 0001:00024c90       ??$_Emplace_reallocate@Uprobe_config_t@@@?$vector@Uprobe_config_t@@V?$allocator@Uprobe_config_t@@@std@@@std@@QEAAPEAUprobe_config_t@@QEAU2@$$QEAU2@@Z 0000000180025c90 f i deps_resolver.obj
 0001:00024ef0       ??$_Insert@V?$basic_string@_WU?$char_traits@_W@std@@V?$allocator@_W@2@@std@@U_Not_a_node_tag@2@@?$_Hash@V?$_Uset_traits@V?$basic_string@_WU?$char_traits@_W@std@@V?$allocator@_W@2@@std@@V?$_Uhash_compare@V?$basic_string@_WU?$char_traits@_W@std@@V?$allocator@_W@2@@std@@U?$hash@V?$basic_string@_WU?$char_traits@_W@std@@V?$allocator@_W@2@@std@@@2@U?$equal_to@V?$basic_string@_WU?$char_traits@_W@std@@V?$allocator@_W@2@@std@@@2@@2@V?$allocator@V?$basic_string@_WU?$char_traits@_W@std@@V?$allocator@_W@2@@std@@@2@$0A@@std@@@std@@IEAA?AU?$pair@V?$_List_const_iterator@V?$_List_val@U?$_List_simple_types@V?$basic_string@_WU?$char_traits@_W@std@@V?$allocator@_W@2@@std@@@std@@@std@@@std@@_N@1@$$QEAV?$basic_string@_WU?$char_traits@_W@std@@V?$allocator@_W@2@@1@U_Not_a_node_tag@1@@Z 0000000180025ef0 f i deps_resolver.obj
 0001:000250f0       ??$_Insert@AEBV?$basic_string@_WU?$char_traits@_W@std@@V?$allocator@_W@2@@std@@U_Not_a_node_tag@2@@?$_Hash@V?$_Uset_traits@V?$basic_string@_WU?$char_traits@_W@std@@V?$allocator@_W@2@@std@@V?$_Uhash_compare@V?$basic_string@_WU?$char_traits@_W@std@@V?$allocator@_W@2@@std@@U?$hash@V?$basic_string@_WU?$char_traits@_W@std@@V?$allocator@_W@2@@std@@@2@U?$equal_to@V?$basic_string@_WU?$char_traits@_W@std@@V?$allocator@_W@2@@std@@@2@@2@V?$allocator@V?$basic_string@_WU?$char_traits@_W@std@@V?$allocator@_W@2@@std@@@2@$0A@@std@@@std@@IEAA?AU?$pair@V?$_List_const_iterator@V?$_List_val@U?$_List_simple_types@V?$basic_string@_WU?$char_traits@_W@std@@V?$allocator@_W@2@@std@@@std@@@std@@@std@@_N@1@AEBV?$basic_string@_WU?$char_traits@_W@std@@V?$allocator@_W@2@@1@U_Not_a_node_tag@1@@Z 00000001800260f0 f i deps_resolver.obj
 0001:000252b0       ??$_Insert@AEAU?$pair@$$CBV?$basic_string@_WU?$char_traits@_W@std@@V?$allocator@_W@2@@std@@V12@@std@@V?$_List_unchecked_iterator@V?$_List_val@U?$_List_simple_types@U?$pair@$$CBV?$basic_string@_WU?$char_traits@_W@std@@V?$allocator@_W@2@@std@@V12@@std@@@std@@@std@@@2@@?$_Hash@V?$_Umap_traits@V?$basic_string@_WU?$char_traits@_W@std@@V?$allocator@_W@2@@std@@V12@V?$_Uhash_compare@V?$basic_string@_WU?$char_traits@_W@std@@V?$allocator@_W@2@@std@@U?$hash@V?$basic_string@_WU?$char_traits@_W@std@@V?$allocator@_W@2@@std@@@2@U?$equal_to@V?$basic_string@_WU?$char_traits@_W@std@@V?$allocator@_W@2@@std@@@2@@2@V?$allocator@U?$pair@$$CBV?$basic_string@_WU?$char_traits@_W@std@@V?$allocator@_W@2@@std@@V12@@std@@@2@$0A@@std@@@std@@IEAA?AU?$pair@V?$_List_iterator@V?$_List_val@U?$_List_simple_types@U?$pair@$$CBV?$basic_string@_WU?$char_traits@_W@std@@V?$allocator@_W@2@@std@@V12@@std@@@std@@@std@@@std@@_N@1@AEAU?$pair@$$CBV?$basic_string@_WU?$char_traits@_W@std@@V?$allocator@_W@2@@std@@V12@@1@V?$_List_unchecked_iterator@V?$_List_val@U?$_List_simple_types@U?$pair@$$CBV?$basic_string@_WU?$char_traits@_W@std@@V?$allocator@_W@2@@std@@V12@@std@@@std@@@std@@@1@@Z 00000001800262b0 f i deps_resolver.obj
 0001:00025530       ??$_Uninitialized_move@PEAUprobe_config_t@@PEAU1@V?$allocator@Uprobe_config_t@@@std@@@std@@YAPEAUprobe_config_t@@QEAU1@0PEAU1@AEAV?$allocator@Uprobe_config_t@@@0@@Z 0000000180026530 f i deps_resolver.obj
 0001:00025620       ?_Check_size@?$_Hash@V?$_Uset_traits@V?$basic_string@_WU?$char_traits@_W@std@@V?$allocator@_W@2@@std@@V?$_Uhash_compare@V?$basic_string@_WU?$char_traits@_W@std@@V?$allocator@_W@2@@std@@U?$hash@V?$basic_string@_WU?$char_traits@_W@std@@V?$allocator@_W@2@@std@@@2@U?$equal_to@V?$basic_string@_WU?$char_traits@_W@std@@V?$allocator@_W@2@@std@@@2@@2@V?$allocator@V?$basic_string@_WU?$char_traits@_W@std@@V?$allocator@_W@2@@std@@@2@$0A@@std@@@std@@IEAAXXZ 0000000180026620 f i deps_resolver.obj
 0001:000256e0       ?erase@?$_Hash@V?$_Uset_traits@V?$basic_string@_WU?$char_traits@_W@std@@V?$allocator@_W@2@@std@@V?$_Uhash_compare@V?$basic_string@_WU?$char_traits@_W@std@@V?$allocator@_W@2@@std@@U?$hash@V?$basic_string@_WU?$char_traits@_W@std@@V?$allocator@_W@2@@std@@@2@U?$equal_to@V?$basic_string@_WU?$char_traits@_W@std@@V?$allocator@_W@2@@std@@@2@@2@V?$allocator@V?$basic_string@_WU?$char_traits@_W@std@@V?$allocator@_W@2@@std@@@2@$0A@@std@@@std@@QEAA?AV?$_List_const_iterator@V?$_List_val@U?$_List_simple_types@V?$basic_string@_WU?$char_traits@_W@std@@V?$allocator@_W@2@@std@@@std@@@std@@@2@V32@@Z 00000001800266e0 f i deps_resolver.obj
 0001:000257e0       ??$_Buynode@AEAV?$basic_string@_WU?$char_traits@_W@std@@V?$allocator@_W@2@@std@@AEAV12@@?$_List_buy@U?$pair@$$CBV?$basic_string@_WU?$char_traits@_W@std@@V?$allocator@_W@2@@std@@V12@@std@@V?$allocator@U?$pair@$$CBV?$basic_string@_WU?$char_traits@_W@std@@V?$allocator@_W@2@@std@@V12@@std@@@2@@std@@QEAAPEAU?$_List_node@U?$pair@$$CBV?$basic_string@_WU?$char_traits@_W@std@@V?$allocator@_W@2@@std@@V12@@std@@PEAX@1@PEAU21@0AEAV?$basic_string@_WU?$char_traits@_W@std@@V?$allocator@_W@2@@1@1@Z 00000001800267e0 f i deps_resolver.obj
 0001:00025850       ??$erase@V?$_List_iterator@V?$_List_val@U?$_List_simple_types@U?$pair@$$CBV?$basic_string@_WU?$char_traits@_W@std@@V?$allocator@_W@2@@std@@V12@@std@@@std@@@std@@@std@@X@?$_Hash@V?$_Umap_traits@V?$basic_string@_WU?$char_traits@_W@std@@V?$allocator@_W@2@@std@@V12@V?$_Uhash_compare@V?$basic_string@_WU?$char_traits@_W@std@@V?$allocator@_W@2@@std@@U?$hash@V?$basic_string@_WU?$char_traits@_W@std@@V?$allocator@_W@2@@std@@@2@U?$equal_to@V?$basic_string@_WU?$char_traits@_W@std@@V?$allocator@_W@2@@std@@@2@@2@V?$allocator@U?$pair@$$CBV?$basic_string@_WU?$char_traits@_W@std@@V?$allocator@_W@2@@std@@V12@@std@@@2@$0A@@std@@@std@@QEAA?AV?$_List_iterator@V?$_List_val@U?$_List_simple_types@U?$pair@$$CBV?$basic_string@_WU?$char_traits@_W@std@@V?$allocator@_W@2@@std@@V12@@std@@@std@@@std@@@1@V21@@Z 0000000180026850 f i deps_resolver.obj
 0001:00025aa0       ??$_Insert@AEBV?$basic_string@_WU?$char_traits@_W@std@@V?$allocator@_W@2@@std@@V?$_List_unchecked_const_iterator@V?$_List_val@U?$_List_simple_types@V?$basic_string@_WU?$char_traits@_W@std@@V?$allocator@_W@2@@std@@@std@@@std@@U_Iterator_base0@2@@2@@?$_Hash@V?$_Uset_traits@V?$basic_string@_WU?$char_traits@_W@std@@V?$allocator@_W@2@@std@@V?$_Uhash_compare@V?$basic_string@_WU?$char_traits@_W@std@@V?$allocator@_W@2@@std@@U?$hash@V?$basic_string@_WU?$char_traits@_W@std@@V?$allocator@_W@2@@std@@@2@U?$equal_to@V?$basic_string@_WU?$char_traits@_W@std@@V?$allocator@_W@2@@std@@@2@@2@V?$allocator@V?$basic_string@_WU?$char_traits@_W@std@@V?$allocator@_W@2@@std@@@2@$0A@@std@@@std@@IEAA?AU?$pair@V?$_List_const_iterator@V?$_List_val@U?$_List_simple_types@V?$basic_string@_WU?$char_traits@_W@std@@V?$allocator@_W@2@@std@@@std@@@std@@@std@@_N@1@AEBV?$basic_string@_WU?$char_traits@_W@std@@V?$allocator@_W@2@@1@V?$_List_unchecked_const_iterator@V?$_List_val@U?$_List_simple_types@V?$basic_string@_WU?$char_traits@_W@std@@V?$allocator@_W@2@@std@@@std@@@std@@U_Iterator_base0@2@@1@@Z 0000000180026aa0 f i deps_resolver.obj
 0001:00025c90       ?push_front@?$list@V?$basic_string@_WU?$char_traits@_W@std@@V?$allocator@_W@2@@std@@V?$allocator@V?$basic_string@_WU?$char_traits@_W@std@@V?$allocator@_W@2@@std@@@2@@std@@QEAAXAEBV?$basic_string@_WU?$char_traits@_W@std@@V?$allocator@_W@2@@2@@Z 0000000180026c90 f i deps_resolver.obj
 0001:00025d00       ??$_Buynode@AEBUpiecewise_construct_t@std@@V?$tuple@AEBV?$basic_string@_WU?$char_traits@_W@std@@V?$allocator@_W@2@@std@@@2@V?$tuple@$$V@2@@?$_List_buy@U?$pair@$$CBV?$basic_string@_WU?$char_traits@_W@std@@V?$allocator@_W@2@@std@@V12@@std@@V?$allocator@U?$pair@$$CBV?$basic_string@_WU?$char_traits@_W@std@@V?$allocator@_W@2@@std@@V12@@std@@@2@@std@@QEAAPEAU?$_List_node@U?$pair@$$CBV?$basic_string@_WU?$char_traits@_W@std@@V?$allocator@_W@2@@std@@V12@@std@@PEAX@1@PEAU21@0AEBUpiecewise_construct_t@1@$$QEAV?$tuple@AEBV?$basic_string@_WU?$char_traits@_W@std@@V?$allocator@_W@2@@std@@@1@$$QEAV?$tuple@$$V@1@@Z 0000000180026d00 f i deps_resolver.obj
 0001:00025d60       ??$_Buynode@AEBV?$basic_string@_WU?$char_traits@_W@std@@V?$allocator@_W@2@@std@@@?$_List_buy@V?$basic_string@_WU?$char_traits@_W@std@@V?$allocator@_W@2@@std@@V?$allocator@V?$basic_string@_WU?$char_traits@_W@std@@V?$allocator@_W@2@@std@@@2@@std@@QEAAPEAU?$_List_node@V?$basic_string@_WU?$char_traits@_W@std@@V?$allocator@_W@2@@std@@PEAX@1@PEAU21@0AEBV?$basic_string@_WU?$char_traits@_W@std@@V?$allocator@_W@2@@1@@Z 0000000180026d60 f i deps_resolver.obj
 0001:00025db0       ??$_Buynode@V?$basic_string@_WU?$char_traits@_W@std@@V?$allocator@_W@2@@std@@@?$_List_buy@V?$basic_string@_WU?$char_traits@_W@std@@V?$allocator@_W@2@@std@@V?$allocator@V?$basic_string@_WU?$char_traits@_W@std@@V?$allocator@_W@2@@std@@@2@@std@@QEAAPEAU?$_List_node@V?$basic_string@_WU?$char_traits@_W@std@@V?$allocator@_W@2@@std@@PEAX@1@PEAU21@0$$QEAV?$basic_string@_WU?$char_traits@_W@std@@V?$allocator@_W@2@@1@@Z 0000000180026db0 f i deps_resolver.obj
 0001:00025df0       ??0arguments_t@@QEAA@XZ    0000000180026df0 f   args.obj
 0001:00025f10       ?bind@coreclr@@YA_NAEBV?$basic_string@_WU?$char_traits@_W@std@@V?$allocator@_W@2@@std@@@Z 0000000180026f10 f   coreclr.obj
 0001:00026100       ?initialize@coreclr@@YAJPEBD0PEAPEBD1HPEAPEAXPEAI@Z 0000000180027100 f   coreclr.obj
 0001:00026180       ?create_delegate@coreclr@@YAJPEAXIPEBD11PEAPEAX@Z 0000000180027180 f   coreclr.obj
 0001:000261a0       ?get_runtime_config_paths_from_app@@YAXAEBV?$basic_string@_WU?$char_traits@_W@std@@V?$allocator@_W@2@@std@@PEAV12@1@Z 00000001800271a0 f   libhost.obj
 0001:00026510       ?try_patch_roll_forward_in_dir@@YAXAEBV?$basic_string@_WU?$char_traits@_W@std@@V?$allocator@_W@2@@std@@AEBUfx_ver_t@@PEAV12@@Z 0000000180027510 f   libhost.obj
 0001:00026aa0       ?try_prerelease_roll_forward_in_dir@@YAXAEBV?$basic_string@_WU?$char_traits@_W@std@@V?$allocator@_W@2@@std@@AEBUfx_ver_t@@PEAV12@@Z 0000000180027aa0 f   libhost.obj
 0001:00026fc0       ??0runtime_config_t@@QEAA@AEBV?$basic_string@_WU?$char_traits@_W@std@@V?$allocator@_W@2@@std@@0@Z 0000000180027fc0 f   runtime_config.obj
 0001:000270d0       ?parse_opts@runtime_config_t@@QEAA_NAEBVvalue@json@web@@@Z 00000001800280d0 f   runtime_config.obj
 0001:00027910       ?ensure_dev_config_parsed@runtime_config_t@@AEAA_NXZ 0000000180028910 f   runtime_config.obj
 0001:00027c40       ?ensure_parsed@runtime_config_t@@AEAA_NXZ 0000000180028c40 f   runtime_config.obj
 0001:00027f80       ?get_patch_roll_fwd@runtime_config_t@@QEBA_NXZ 0000000180028f80 f   runtime_config.obj
 0001:00027fd0       ?get_portable@runtime_config_t@@QEBA_NXZ 0000000180028fd0 f   runtime_config.obj
 0001:00027fe0       ?get_probe_paths@runtime_config_t@@QEBAAEBV?$list@V?$basic_string@_WU?$char_traits@_W@std@@V?$allocator@_W@2@@std@@V?$allocator@V?$basic_string@_WU?$char_traits@_W@std@@V?$allocator@_W@2@@std@@@2@@std@@XZ 0000000180028fe0 f   runtime_config.obj
 0001:00027ff0       ?setup_api_sets@pal@@YAXAEBV?$unordered_set@V?$basic_string@_WU?$char_traits@_W@std@@V?$allocator@_W@2@@std@@U?$hash@V?$basic_string@_WU?$char_traits@_W@std@@V?$allocator@_W@2@@std@@@2@U?$equal_to@V?$basic_string@_WU?$char_traits@_W@std@@V?$allocator@_W@2@@std@@@2@V?$allocator@V?$basic_string@_WU?$char_traits@_W@std@@V?$allocator@_W@2@@std@@@2@@std@@@Z 0000000180028ff0 f   pal.windows.obj
 0001:000281d0       ?getcwd@pal@@YA_NPEAV?$basic_string@_WU?$char_traits@_W@std@@V?$allocator@_W@2@@std@@@Z 00000001800291d0 f   pal.windows.obj
 0001:000283c0       ?getenv@pal@@YA_NPEB_WPEAV?$basic_string@_WU?$char_traits@_W@std@@V?$allocator@_W@2@@std@@@Z 00000001800293c0 f   pal.windows.obj
 0001:000285a0       ?pal_clrstring@pal@@YA_NAEBV?$basic_string@_WU?$char_traits@_W@std@@V?$allocator@_W@2@@std@@PEAV?$vector@DV?$allocator@D@std@@@3@@Z 00000001800295a0 f   pal.windows.obj
 0001:00028690       ?clr_palstring@pal@@YA_NPEBDPEAV?$basic_string@_WU?$char_traits@_W@std@@V?$allocator@_W@2@@std@@@Z 0000000180029690 f   pal.windows.obj
 0001:000286c0       ?realpath@pal@@YA_NPEAV?$basic_string@_WU?$char_traits@_W@std@@V?$allocator@_W@2@@std@@@Z 00000001800296c0 f   pal.windows.obj
 0001:00028750       ?file_exists@pal@@YA_NAEBV?$basic_string@_WU?$char_traits@_W@std@@V?$allocator@_W@2@@std@@@Z 0000000180029750 f   pal.windows.obj
 0001:000287e0       ?readdir@pal@@YAXAEBV?$basic_string@_WU?$char_traits@_W@std@@V?$allocator@_W@2@@std@@0PEAV?$vector@V?$basic_string@_WU?$char_traits@_W@std@@V?$allocator@_W@2@@std@@V?$allocator@V?$basic_string@_WU?$char_traits@_W@std@@V?$allocator@_W@2@@std@@@2@@3@@Z 00000001800297e0 f   pal.windows.obj
 0001:000289f0       ?readdir@pal@@YAXAEBV?$basic_string@_WU?$char_traits@_W@std@@V?$allocator@_W@2@@std@@PEAV?$vector@V?$basic_string@_WU?$char_traits@_W@std@@V?$allocator@_W@2@@std@@V?$allocator@V?$basic_string@_WU?$char_traits@_W@std@@V?$allocator@_W@2@@std@@@2@@3@@Z 00000001800299f0 f   pal.windows.obj
 0001:00028ac0       ??$_Resize@V<lambda_2e7f0845ff18668876e33ea5a50f4704>@@@?$vector@DV?$allocator@D@std@@@std@@AEAAX_KV<lambda_2e7f0845ff18668876e33ea5a50f4704>@@@Z 0000000180029ac0 f i pal.windows.obj
 0001:00028c05       ?_Lock@?$basic_streambuf@_WU?$char_traits@_W@std@@@std@@UEAAXXZ 0000000180029c05 f   msvcprt:MSVCP140.dll
 0001:00028c0b       ?_Unlock@?$basic_streambuf@_WU?$char_traits@_W@std@@@std@@UEAAXXZ 0000000180029c0b f   msvcprt:MSVCP140.dll
 0001:00028c11       ?showmanyc@?$basic_streambuf@_WU?$char_traits@_W@std@@@std@@MEAA_JXZ 0000000180029c11 f   msvcprt:MSVCP140.dll
 0001:00028c17       ?uflow@?$basic_streambuf@_WU?$char_traits@_W@std@@@std@@MEAAGXZ 0000000180029c17 f   msvcprt:MSVCP140.dll
 0001:00028c1d       ?xsgetn@?$basic_streambuf@_WU?$char_traits@_W@std@@@std@@MEAA_JPEA_W_J@Z 0000000180029c1d f   msvcprt:MSVCP140.dll
 0001:00028c23       ?xsputn@?$basic_streambuf@_WU?$char_traits@_W@std@@@std@@MEAA_JPEB_W_J@Z 0000000180029c23 f   msvcprt:MSVCP140.dll
 0001:00028c29       ?setbuf@?$basic_streambuf@_WU?$char_traits@_W@std@@@std@@MEAAPEAV12@PEA_W_J@Z 0000000180029c29 f   msvcprt:MSVCP140.dll
 0001:00028c2f       ?sync@?$basic_streambuf@_WU?$char_traits@_W@std@@@std@@MEAAHXZ 0000000180029c2f f   msvcprt:MSVCP140.dll
 0001:00028c35       ?imbue@?$basic_streambuf@_WU?$char_traits@_W@std@@@std@@MEAAXAEBVlocale@2@@Z 0000000180029c35 f   msvcprt:MSVCP140.dll
 0001:00028c3c       ??1_Fac_tidy_reg_t@std@@QEAA@XZ 0000000180029c3c f i msvcprt:locale0_implib.obj
 0001:00028ca4       ?_Facet_Register@std@@YAXPEAV_Facet_base@1@@Z 0000000180029ca4 f   msvcprt:locale0_implib.obj
 0001:00028cdc       ?showmanyc@?$basic_streambuf@DU?$char_traits@D@std@@@std@@MEAA_JXZ 0000000180029cdc f   msvcprt:MSVCP140.dll
 0001:00028d00       __security_check_cookie    0000000180029d00 f   MSVCRT:amdsecgs.obj
 0001:00028d24       ??2@YAPEAX_K@Z             0000000180029d24 f   MSVCRT:new_scalar.obj
 0001:00028d60       ??_V@YAXPEAX@Z             0000000180029d60 f   MSVCRT:delete_array.obj
 0001:00028d60       ??3@YAXPEAX_K@Z            0000000180029d60 f   MSVCRT:delete_scalar_size.obj
 0001:00028d68       ??_M@YAXPEAX_K1P6AX0@Z@Z   0000000180029d68 f   MSVCRT:ehvecdtr.obj
 0001:00028dd4       ?__ArrayUnwind@@YAXPEAX_K1P6AX0@Z@Z 0000000180029dd4 f   MSVCRT:ehvecdtr.obj
 0001:00028e38       ??_L@YAXPEAX_K1P6AX0@Z2@Z  0000000180029e38 f   MSVCRT:ehvecctr.obj
 0001:00029030       _Init_thread_footer        000000018002a030 f   MSVCRT:thread_safe_statics.obj
 0001:00029090       _Init_thread_header        000000018002a090 f   MSVCRT:thread_safe_statics.obj
 0001:000290f8       _Init_thread_notify        000000018002a0f8 f   MSVCRT:thread_safe_statics.obj
 0001:00029148       _Init_thread_wait          000000018002a148 f   MSVCRT:thread_safe_statics.obj
 0001:000291c0       __scrt_acquire_startup_lock 000000018002a1c0 f   MSVCRT:utility.obj
 0001:000291fc       __scrt_dllmain_after_initialize_c 000000018002a1fc f   MSVCRT:utility.obj
 0001:00029230       __scrt_dllmain_before_initialize_c 000000018002a230 f   MSVCRT:utility.obj
 0001:00029248       __scrt_dllmain_crt_thread_attach 000000018002a248 f   MSVCRT:utility.obj
 0001:00029270       __scrt_dllmain_crt_thread_detach 000000018002a270 f   MSVCRT:utility.obj
 0001:00029288       __scrt_dllmain_exception_filter 000000018002a288 f   MSVCRT:utility.obj
 0001:000292e8       __scrt_dllmain_uninitialize_c 000000018002a2e8 f   MSVCRT:utility.obj
 0001:00029318       __scrt_dllmain_uninitialize_critical 000000018002a318 f   MSVCRT:utility.obj
 0001:0002932c       __scrt_initialize_crt      000000018002a32c f   MSVCRT:utility.obj
 0001:00029378       __scrt_initialize_onexit_tables 000000018002a378 f   MSVCRT:utility.obj
 0001:00029450       __scrt_is_nonwritable_in_current_image 000000018002a450 f   MSVCRT:utility.obj
 0001:000294ec       __scrt_release_startup_lock 000000018002a4ec f   MSVCRT:utility.obj
 0001:00029510       __scrt_uninitialize_crt    000000018002a510 f   MSVCRT:utility.obj
 0001:0002953c       _onexit                    000000018002a53c f   MSVCRT:utility.obj
 0001:0002958c       atexit                     000000018002a58c f   MSVCRT:utility.obj
 0001:000295a4       ??_U@YAPEAX_K@Z            000000018002a5a4 f   MSVCRT:new_array.obj
 0001:000295ac       ??_Etype_info@@UEAAPEAXI@Z 000000018002a5ac f i MSVCRT:std_type_info_static.obj
 0001:000295ac       ??_Gtype_info@@UEAAPEAXI@Z 000000018002a5ac f i MSVCRT:std_type_info_static.obj
 0001:00029908       _DllMainCRTStartup         000000018002a908 f   MSVCRT:dll_dllmain.obj
 0001:00029948       __raise_securityfailure    000000018002a948 f   MSVCRT:gs_report.obj
 0001:0002997c       __report_gsfailure         000000018002a97c f   MSVCRT:gs_report.obj
 0001:00029ac4       ??0bad_alloc@std@@QEAA@AEBV01@@Z 000000018002aac4 f i MSVCRT:throw_bad_alloc.obj
 0001:00029b04       ??0bad_alloc@std@@QEAA@XZ  000000018002ab04 f i MSVCRT:throw_bad_alloc.obj
 0001:00029b24       ??0bad_array_new_length@std@@QEAA@AEBV01@@Z 000000018002ab24 f i MSVCRT:throw_bad_alloc.obj
 0001:00029b64       ??0bad_array_new_length@std@@QEAA@XZ 000000018002ab64 f i MSVCRT:throw_bad_alloc.obj
 0001:00029b84       ??1bad_array_new_length@std@@UEAA@XZ 000000018002ab84 f i MSVCRT:throw_bad_alloc.obj
 0001:00029b84       ??1bad_alloc@std@@UEAA@XZ  000000018002ab84 f i MSVCRT:throw_bad_alloc.obj
 0001:00029b98       ??_Ebad_array_new_length@std@@UEAAPEAXI@Z 000000018002ab98 f i MSVCRT:throw_bad_alloc.obj
 0001:00029b98       ??_Gbad_array_new_length@std@@UEAAPEAXI@Z 000000018002ab98 f i MSVCRT:throw_bad_alloc.obj
 0001:00029b98       ??_Ebad_alloc@std@@UEAAPEAXI@Z 000000018002ab98 f i MSVCRT:throw_bad_alloc.obj
 0001:00029b98       ??_Gbad_alloc@std@@UEAAPEAXI@Z 000000018002ab98 f i MSVCRT:throw_bad_alloc.obj
 0001:00029bdc       ?__scrt_throw_std_bad_alloc@@YAXXZ 000000018002abdc f   MSVCRT:throw_bad_alloc.obj
 0001:00029bfc       ?__scrt_throw_std_bad_array_new_length@@YAXXZ 000000018002abfc f   MSVCRT:throw_bad_alloc.obj
 0001:00029c1c       ??3@YAXPEAX@Z              000000018002ac1c f   MSVCRT:delete_scalar.obj
 0001:00029c24       __crt_debugger_hook        000000018002ac24 f   MSVCRT:utility_desktop.obj
 0001:00029c2c       __scrt_fastfail            000000018002ac2c f   MSVCRT:utility_desktop.obj
 0001:00029d78       __isa_available_init       000000018002ad78 f   MSVCRT:cpu_disp.obj
 0001:00029f34       __scrt_is_ucrt_dll_in_use  000000018002af34 f   MSVCRT:ucrt_detection.obj
 0001:00029f40       __security_init_cookie     000000018002af40 f   MSVCRT:gs_support.obj
 0001:00029fec       DllMain                    000000018002afec f   MSVCRT:dll_dllmain_stub.obj
 0001:0002a010       ?__scrt_initialize_type_info@@YAXXZ 000000018002b010 f   MSVCRT:tncleanup.obj
 0001:0002a020       ?__scrt_uninitialize_type_info@@YAXXZ 000000018002b020 f   MSVCRT:tncleanup.obj
 0001:0002a02c       __local_stdio_scanf_options 000000018002b02c f i MSVCRT:default_local_stdio_options.obj
 0001:0002a034       __scrt_initialize_default_local_stdio_options 000000018002b034 f   MSVCRT:default_local_stdio_options.obj
 0001:0002a050       __scrt_get_dyn_tls_init_callback 000000018002b050 f   MSVCRT:dyn_tls_init.obj
 0001:0002a058       _RTC_Initialize            000000018002b058 f   MSVCRT:initsect.obj
 0001:0002a094       _RTC_Terminate             000000018002b094 f   MSVCRT:initsect.obj
 0001:0002a0d0       __CxxFrameHandler3         000000018002b0d0 f   vcruntime:VCRUNTIME140.dll
 0001:0002a0d6       __std_terminate            000000018002b0d6 f   vcruntime:VCRUNTIME140.dll
 0001:0002a0dc       __std_exception_destroy    000000018002b0dc f   vcruntime:VCRUNTIME140.dll
 0001:0002a0e2       __std_exception_copy       000000018002b0e2 f   vcruntime:VCRUNTIME140.dll
 0001:0002a0e8       _purecall                  000000018002b0e8 f   vcruntime:VCRUNTIME140.dll
 0001:0002a0ee       __C_specific_handler       000000018002b0ee f   vcruntime:VCRUNTIME140.dll
 0001:0002a0f4       _CxxThrowException         000000018002b0f4 f   vcruntime:VCRUNTIME140.dll
 0001:0002a0fa       memset                     000000018002b0fa f   vcruntime:VCRUNTIME140.dll
 0001:0002a100       __std_type_info_destroy_list 000000018002b100 f   vcruntime:VCRUNTIME140.dll
 0001:0002a106       terminate                  000000018002b106 f   ucrt:api-ms-win-crt-runtime-l1-1-0.dll
 0001:0002a10c       _callnewh                  000000018002b10c f   ucrt:api-ms-win-crt-heap-l1-1-0.dll
 0001:0002a112       malloc                     000000018002b112 f   ucrt:api-ms-win-crt-heap-l1-1-0.dll
 0001:0002a118       _seh_filter_dll            000000018002b118 f   ucrt:api-ms-win-crt-runtime-l1-1-0.dll
 0001:0002a11e       _configure_narrow_argv     000000018002b11e f   ucrt:api-ms-win-crt-runtime-l1-1-0.dll
 0001:0002a124       _initialize_narrow_environment 000000018002b124 f   ucrt:api-ms-win-crt-runtime-l1-1-0.dll
 0001:0002a12a       _initialize_onexit_table   000000018002b12a f   ucrt:api-ms-win-crt-runtime-l1-1-0.dll
 0001:0002a130       _register_onexit_function  000000018002b130 f   ucrt:api-ms-win-crt-runtime-l1-1-0.dll
 0001:0002a136       _execute_onexit_table      000000018002b136 f   ucrt:api-ms-win-crt-runtime-l1-1-0.dll
 0001:0002a13c       _crt_atexit                000000018002b13c f   ucrt:api-ms-win-crt-runtime-l1-1-0.dll
 0001:0002a142       _cexit                     000000018002b142 f   ucrt:api-ms-win-crt-runtime-l1-1-0.dll
 0001:0002a148       _initterm                  000000018002b148 f   ucrt:api-ms-win-crt-runtime-l1-1-0.dll
 0001:0002a14e       _initterm_e                000000018002b14e f   ucrt:api-ms-win-crt-runtime-l1-1-0.dll
 0001:0002a154       free                       000000018002b154 f   ucrt:api-ms-win-crt-heap-l1-1-0.dll
 0001:0002a15a       IsProcessorFeaturePresent  000000018002b15a f   kernel32:KERNEL32.dll
 0001:0002a160       __acrt_initialize          000000018002b160 f   MSVCRT:ucrt_stubs.obj
 0001:0002a160       __acrt_uninitialize        000000018002b160 f   MSVCRT:ucrt_stubs.obj
 0001:0002a160       __vcrt_uninitialize_critical 000000018002b160 f   MSVCRT:ucrt_stubs.obj
 0001:0002a160       __vcrt_uninitialize        000000018002b160 f   MSVCRT:ucrt_stubs.obj
 0001:0002a160       __vcrt_thread_attach       000000018002b160 f   MSVCRT:ucrt_stubs.obj
 0001:0002a160       __scrt_stub_for_acrt_uninitialize_critical 000000018002b160 f   MSVCRT:ucrt_stubs.obj
 0001:0002a160       __vcrt_initialize          000000018002b160 f   MSVCRT:ucrt_stubs.obj
 0001:0002a160       __vcrt_thread_detach       000000018002b160 f   MSVCRT:ucrt_stubs.obj
 0001:0002a160       __acrt_uninitialize_critical 000000018002b160 f   MSVCRT:ucrt_stubs.obj
 0001:0002a160       __acrt_thread_attach       000000018002b160 f   MSVCRT:ucrt_stubs.obj
 0001:0002a160       __acrt_thread_detach       000000018002b160 f   MSVCRT:ucrt_stubs.obj
 0001:0002a160       __scrt_stub_for_acrt_thread_attach 000000018002b160 f   MSVCRT:ucrt_stubs.obj
 0001:0002a160       __scrt_stub_for_acrt_uninitialize 000000018002b160 f   MSVCRT:ucrt_stubs.obj
 0001:0002a160       __scrt_stub_for_acrt_thread_detach 000000018002b160 f   MSVCRT:ucrt_stubs.obj
 0001:0002a160       __scrt_stub_for_acrt_initialize 000000018002b160 f   MSVCRT:ucrt_stubs.obj
 0001:0002a164       __GSHandlerCheck           000000018002b164 f   MSVCRT:gshandler.obj
 0001:0002a184       __GSHandlerCheckCommon     000000018002b184 f   MSVCRT:gshandler.obj
 0001:0002a1e0       __GSHandlerCheck_EH        000000018002b1e0 f   MSVCRT:gshandlereh.obj
 0001:0002a270       __chkstk                   000000018002b270 f   MSVCRT:chkstk.obj
 0001:0002a270       _alloca_probe              000000018002b270 f   MSVCRT:chkstk.obj
 0001:0002a2c1       memcpy                     000000018002b2c1 f   vcruntime:VCRUNTIME140.dll
 0001:0002a2c7       memmove                    000000018002b2c7 f   vcruntime:VCRUNTIME140.dll
 0001:0002a2e0       _guard_dispatch_icall_nop  000000018002b2e0 f   MSVCRT:guard_dispatch.obj
 0002:00000000       __imp_GetCurrentThreadId   000000018002e000     kernel32:KERNEL32.dll
 0002:00000008       __imp_GetEnvironmentVariableA 000000018002e008     kernel32:KERNEL32.dll
 0002:00000010       __imp_GetModuleFileNameA   000000018002e010     kernel32:KERNEL32.dll
 0002:00000018       __imp_GetModuleHandleExA   000000018002e018     kernel32:KERNEL32.dll
 0002:00000020       __imp_GetVersionExA        000000018002e020     kernel32:KERNEL32.dll
 0002:00000028       __imp_FindFirstFileW       000000018002e028     kernel32:KERNEL32.dll
 0002:00000030       __imp_FindFirstFileExW     000000018002e030     kernel32:KERNEL32.dll
 0002:00000038       __imp_AddDllDirectory      000000018002e038     kernel32:KERNEL32.dll
 0002:00000040       __imp_GetFullPathNameW     000000018002e040     kernel32:KERNEL32.dll
 0002:00000048       __imp_FindNextFileW        000000018002e048     kernel32:KERNEL32.dll
 0002:00000050       __imp_GetModuleHandleExW   000000018002e050     kernel32:KERNEL32.dll
 0002:00000058       __imp_GetModuleFileNameW   000000018002e058     kernel32:KERNEL32.dll
 0002:00000060       __imp_SetEnvironmentVariableW 000000018002e060     kernel32:KERNEL32.dll
 0002:00000068       __imp_GetEnvironmentVariableW 000000018002e068     kernel32:KERNEL32.dll
 0002:00000070       __imp_FindClose            000000018002e070     kernel32:KERNEL32.dll
 0002:00000078       __imp_MultiByteToWideChar  000000018002e078     kernel32:KERNEL32.dll
 0002:00000080       __imp_GetLastError         000000018002e080     kernel32:KERNEL32.dll
 0002:00000088       __imp_CloseHandle          000000018002e088     kernel32:KERNEL32.dll
 0002:00000090       __imp_GetCurrentDirectoryW 000000018002e090     kernel32:KERNEL32.dll
 0002:00000098       __imp_GetProcAddress       000000018002e098     kernel32:KERNEL32.dll
 0002:000000a0       __imp_WideCharToMultiByte  000000018002e0a0     kernel32:KERNEL32.dll
 0002:000000a8       __imp_LoadLibraryExW       000000018002e0a8     kernel32:KERNEL32.dll
 0002:000000b0       __imp_EnterCriticalSection 000000018002e0b0     kernel32:KERNEL32.dll
 0002:000000b8       __imp_InitializeSListHead  000000018002e0b8     kernel32:KERNEL32.dll
 0002:000000c0       __imp_DisableThreadLibraryCalls 000000018002e0c0     kernel32:KERNEL32.dll
 0002:000000c8       __imp_GetSystemTimeAsFileTime 000000018002e0c8     kernel32:KERNEL32.dll
 0002:000000d0       __imp_GetCurrentProcessId  000000018002e0d0     kernel32:KERNEL32.dll
 0002:000000d8       __imp_QueryPerformanceCounter 000000018002e0d8     kernel32:KERNEL32.dll
 0002:000000e0       __imp_IsDebuggerPresent    000000018002e0e0     kernel32:KERNEL32.dll
 0002:000000e8       __imp_IsProcessorFeaturePresent 000000018002e0e8     kernel32:KERNEL32.dll
 0002:000000f0       __imp_TerminateProcess     000000018002e0f0     kernel32:KERNEL32.dll
 0002:000000f8       __imp_GetCurrentProcess    000000018002e0f8     kernel32:KERNEL32.dll
 0002:00000100       __imp_SetUnhandledExceptionFilter 000000018002e100     kernel32:KERNEL32.dll
 0002:00000108       __imp_UnhandledExceptionFilter 000000018002e108     kernel32:KERNEL32.dll
 0002:00000110       __imp_RtlVirtualUnwind     000000018002e110     kernel32:KERNEL32.dll
 0002:00000118       __imp_RtlLookupFunctionEntry 000000018002e118     kernel32:KERNEL32.dll
 0002:00000120       __imp_RtlCaptureContext    000000018002e120     kernel32:KERNEL32.dll
 0002:00000128       __imp_GetModuleHandleW     000000018002e128     kernel32:KERNEL32.dll
 0002:00000130       __imp_CreateEventW         000000018002e130     kernel32:KERNEL32.dll
 0002:00000138       __imp_WaitForSingleObjectEx 000000018002e138     kernel32:KERNEL32.dll
 0002:00000140       __imp_ResetEvent           000000018002e140     kernel32:KERNEL32.dll
 0002:00000148       __imp_SetEvent             000000018002e148     kernel32:KERNEL32.dll
 0002:00000150       __imp_DeleteCriticalSection 000000018002e150     kernel32:KERNEL32.dll
 0002:00000158       __imp_InitializeCriticalSectionAndSpinCount 000000018002e158     kernel32:KERNEL32.dll
 0002:00000160       __imp_LeaveCriticalSection 000000018002e160     kernel32:KERNEL32.dll
 0002:00000168       \177KERNEL32_NULL_THUNK_DATA 000000018002e168     kernel32:KERNEL32.dll
 0002:00000170       __imp_?_Xbad_function_call@std@@YAXXZ 000000018002e170     msvcprt:MSVCP140.dll
 0002:00000178       __imp_?__ExceptionPtrRethrow@@YAXPEBX@Z 000000018002e178     msvcprt:MSVCP140.dll
 0002:00000180       __imp_?__ExceptionPtrCurrentException@@YAXPEAX@Z 000000018002e180     msvcprt:MSVCP140.dll
 0002:00000188       __imp_?__ExceptionPtrDestroy@@YAXPEAX@Z 000000018002e188     msvcprt:MSVCP140.dll
 0002:00000190       __imp_?__ExceptionPtrToBool@@YA_NPEBX@Z 000000018002e190     msvcprt:MSVCP140.dll
 0002:00000198       __imp_?_XGetLastError@std@@YAXXZ 000000018002e198     msvcprt:MSVCP140.dll
 0002:000001a0       __imp_?__ExceptionPtrCopy@@YAXPEAXPEBX@Z 000000018002e1a0     msvcprt:MSVCP140.dll
 0002:000001a8       __imp_?__ExceptionPtrCreate@@YAXPEAX@Z 000000018002e1a8     msvcprt:MSVCP140.dll
 0002:000001b0       __imp_?__ExceptionPtrAssign@@YAXPEAXPEBX@Z 000000018002e1b0     msvcprt:MSVCP140.dll
 0002:000001b8       __imp_??1?$basic_ostream@_WU?$char_traits@_W@std@@@std@@UEAA@XZ 000000018002e1b8     msvcprt:MSVCP140.dll
 0002:000001c0       __imp_?sgetc@?$basic_streambuf@DU?$char_traits@D@std@@@std@@QEAAHXZ 000000018002e1c0     msvcprt:MSVCP140.dll
 0002:000001c8       __imp_?sbumpc@?$basic_streambuf@DU?$char_traits@D@std@@@std@@QEAAHXZ 000000018002e1c8     msvcprt:MSVCP140.dll
 0002:000001d0       __imp_??6?$basic_ostream@_WU?$char_traits@_W@std@@@std@@QEAAAEAV01@_K@Z 000000018002e1d0     msvcprt:MSVCP140.dll
 0002:000001d8       __imp_??0?$basic_ostream@_WU?$char_traits@_W@std@@@std@@QEAA@PEAV?$basic_streambuf@_WU?$char_traits@_W@std@@@1@_N@Z 000000018002e1d8     msvcprt:MSVCP140.dll
 0002:000001e0       __imp_?_Syserror_map@std@@YAPEBDH@Z 000000018002e1e0     msvcprt:MSVCP140.dll
 0002:000001e8       __imp_?_Winerror_map@std@@YAHH@Z 000000018002e1e8     msvcprt:MSVCP140.dll
 0002:000001f0       __imp_?_Winerror_message@std@@YAKKPEADK@Z 000000018002e1f0     msvcprt:MSVCP140.dll
 0002:000001f8       __imp_?_Execute_once@std@@YAHAEAUonce_flag@1@P6AHPEAX1PEAPEAX@Z1@Z 000000018002e1f8     msvcprt:MSVCP140.dll
 0002:00000200       __imp_??Bid@locale@std@@QEAA_KXZ 000000018002e200     msvcprt:MSVCP140.dll
 0002:00000208       __imp_?always_noconv@codecvt_base@std@@QEBA_NXZ 000000018002e208     msvcprt:MSVCP140.dll
 0002:00000210       __imp_??1?$basic_istream@DU?$char_traits@D@std@@@std@@UEAA@XZ 000000018002e210     msvcprt:MSVCP140.dll
 0002:00000218       __imp_?xsputn@?$basic_streambuf@DU?$char_traits@D@std@@@std@@MEAA_JPEBD_J@Z 000000018002e218     msvcprt:MSVCP140.dll
 0002:00000220       __imp_?xsgetn@?$basic_streambuf@DU?$char_traits@D@std@@@std@@MEAA_JPEAD_J@Z 000000018002e220     msvcprt:MSVCP140.dll
 0002:00000228       __imp_?showmanyc@?$basic_streambuf@DU?$char_traits@D@std@@@std@@MEAA_JXZ 000000018002e228     msvcprt:MSVCP140.dll
 0002:00000230       __imp_??1?$basic_streambuf@DU?$char_traits@D@std@@@std@@UEAA@XZ 000000018002e230     msvcprt:MSVCP140.dll
 0002:00000238       __imp_??1?$basic_ios@DU?$char_traits@D@std@@@std@@UEAA@XZ 000000018002e238     msvcprt:MSVCP140.dll
 0002:00000240       __imp_?out@?$codecvt@DDU_Mbstatet@@@std@@QEBAHAEAU_Mbstatet@@PEBD1AEAPEBDPEAD3AEAPEAD@Z 000000018002e240     msvcprt:MSVCP140.dll
 0002:00000248       __imp_?in@?$codecvt@DDU_Mbstatet@@@std@@QEBAHAEAU_Mbstatet@@PEBD1AEAPEBDPEAD3AEAPEAD@Z 000000018002e248     msvcprt:MSVCP140.dll
 0002:00000250       __imp_?_Pninc@?$basic_streambuf@DU?$char_traits@D@std@@@std@@IEAAPEADXZ 000000018002e250     msvcprt:MSVCP140.dll
 0002:00000258       __imp_?unshift@?$codecvt@DDU_Mbstatet@@@std@@QEBAHAEAU_Mbstatet@@PEAD1AEAPEAD@Z 000000018002e258     msvcprt:MSVCP140.dll
 0002:00000260       __imp_??0?$basic_istream@DU?$char_traits@D@std@@@std@@QEAA@PEAV?$basic_streambuf@DU?$char_traits@D@std@@@1@_N@Z 000000018002e260     msvcprt:MSVCP140.dll
 0002:00000268       __imp_?_Init@?$basic_streambuf@DU?$char_traits@D@std@@@std@@IEAAXXZ 000000018002e268     msvcprt:MSVCP140.dll
 0002:00000270       __imp_??0?$basic_ios@DU?$char_traits@D@std@@@std@@IEAA@XZ 000000018002e270     msvcprt:MSVCP140.dll
 0002:00000278       __imp_?setstate@?$basic_ios@DU?$char_traits@D@std@@@std@@QEAAXH_N@Z 000000018002e278     msvcprt:MSVCP140.dll
 0002:00000280       __imp_?getloc@?$basic_streambuf@DU?$char_traits@D@std@@@std@@QEBA?AVlocale@2@XZ 000000018002e280     msvcprt:MSVCP140.dll
 0002:00000288       __imp_??0?$basic_streambuf@DU?$char_traits@D@std@@@std@@IEAA@XZ 000000018002e288     msvcprt:MSVCP140.dll
 0002:00000290       __imp_?_Getcat@?$codecvt@DDU_Mbstatet@@@std@@SA_KPEAPEBVfacet@locale@2@PEBV42@@Z 000000018002e290     msvcprt:MSVCP140.dll
 0002:00000298       __imp_?_Xout_of_range@std@@YAXPEBD@Z 000000018002e298     msvcprt:MSVCP140.dll
 0002:000002a0       __imp_?_Xlength_error@std@@YAXPEBD@Z 000000018002e2a0     msvcprt:MSVCP140.dll
 0002:000002a8       __imp_?read@?$basic_istream@DU?$char_traits@D@std@@@std@@QEAAAEAV12@PEAD_J@Z 000000018002e2a8     msvcprt:MSVCP140.dll
 0002:000002b0       __imp_?peek@?$basic_istream@DU?$char_traits@D@std@@@std@@QEAAHXZ 000000018002e2b0     msvcprt:MSVCP140.dll
 0002:000002b8       __imp_?seekg@?$basic_istream@DU?$char_traits@D@std@@@std@@QEAAAEAV12@_JH@Z 000000018002e2b8     msvcprt:MSVCP140.dll
 0002:000002c0       __imp_?uncaught_exception@std@@YA_NXZ 000000018002e2c0     msvcprt:MSVCP140.dll
 0002:000002c8       __imp_?_Xinvalid_argument@std@@YAXPEBD@Z 000000018002e2c8     msvcprt:MSVCP140.dll
 0002:000002d0       __imp_?sputn@?$basic_streambuf@_WU?$char_traits@_W@std@@@std@@QEAA_JPEB_W_J@Z 000000018002e2d0     msvcprt:MSVCP140.dll
 0002:000002d8       __imp_?sputc@?$basic_streambuf@_WU?$char_traits@_W@std@@@std@@QEAAG_W@Z 000000018002e2d8     msvcprt:MSVCP140.dll
 0002:000002e0       __imp_??0?$basic_streambuf@_WU?$char_traits@_W@std@@@std@@IEAA@XZ 000000018002e2e0     msvcprt:MSVCP140.dll
 0002:000002e8       __imp_?_Osfx@?$basic_ostream@_WU?$char_traits@_W@std@@@std@@QEAAXXZ 000000018002e2e8     msvcprt:MSVCP140.dll
 0002:000002f0       __imp_?flush@?$basic_ostream@_WU?$char_traits@_W@std@@@std@@QEAAAEAV12@XZ 000000018002e2f0     msvcprt:MSVCP140.dll
 0002:000002f8       __imp_?setstate@?$basic_ios@_WU?$char_traits@_W@std@@@std@@QEAAXH_N@Z 000000018002e2f8     msvcprt:MSVCP140.dll
 0002:00000300       __imp_??0?$basic_ios@_WU?$char_traits@_W@std@@@std@@IEAA@XZ 000000018002e300     msvcprt:MSVCP140.dll
 0002:00000308       __imp_?_Pninc@?$basic_streambuf@_WU?$char_traits@_W@std@@@std@@IEAAPEA_WXZ 000000018002e308     msvcprt:MSVCP140.dll
 0002:00000310       __imp_??0?$basic_iostream@_WU?$char_traits@_W@std@@@std@@QEAA@PEAV?$basic_streambuf@_WU?$char_traits@_W@std@@@1@@Z 000000018002e310     msvcprt:MSVCP140.dll
 0002:00000318       __imp_??1?$basic_ios@_WU?$char_traits@_W@std@@@std@@UEAA@XZ 000000018002e318     msvcprt:MSVCP140.dll
 0002:00000320       __imp_??1?$basic_streambuf@_WU?$char_traits@_W@std@@@std@@UEAA@XZ 000000018002e320     msvcprt:MSVCP140.dll
 0002:00000328       __imp_?_Lock@?$basic_streambuf@_WU?$char_traits@_W@std@@@std@@UEAAXXZ 000000018002e328     msvcprt:MSVCP140.dll
 0002:00000330       __imp_?_Unlock@?$basic_streambuf@_WU?$char_traits@_W@std@@@std@@UEAAXXZ 000000018002e330     msvcprt:MSVCP140.dll
 0002:00000338       __imp_?showmanyc@?$basic_streambuf@_WU?$char_traits@_W@std@@@std@@MEAA_JXZ 000000018002e338     msvcprt:MSVCP140.dll
 0002:00000340       __imp_?uflow@?$basic_streambuf@_WU?$char_traits@_W@std@@@std@@MEAAGXZ 000000018002e340     msvcprt:MSVCP140.dll
 0002:00000348       __imp_?xsgetn@?$basic_streambuf@_WU?$char_traits@_W@std@@@std@@MEAA_JPEA_W_J@Z 000000018002e348     msvcprt:MSVCP140.dll
 0002:00000350       __imp_?xsputn@?$basic_streambuf@_WU?$char_traits@_W@std@@@std@@MEAA_JPEB_W_J@Z 000000018002e350     msvcprt:MSVCP140.dll
 0002:00000358       __imp_?setbuf@?$basic_streambuf@_WU?$char_traits@_W@std@@@std@@MEAAPEAV12@PEA_W_J@Z 000000018002e358     msvcprt:MSVCP140.dll
 0002:00000360       __imp_?sync@?$basic_streambuf@_WU?$char_traits@_W@std@@@std@@MEAAHXZ 000000018002e360     msvcprt:MSVCP140.dll
 0002:00000368       __imp_?imbue@?$basic_streambuf@_WU?$char_traits@_W@std@@@std@@MEAAXAEBVlocale@2@@Z 000000018002e368     msvcprt:MSVCP140.dll
 0002:00000370       __imp_??6?$basic_ostream@_WU?$char_traits@_W@std@@@std@@QEAAAEAV01@H@Z 000000018002e370     msvcprt:MSVCP140.dll
 0002:00000378       __imp_??1?$basic_iostream@_WU?$char_traits@_W@std@@@std@@UEAA@XZ 000000018002e378     msvcprt:MSVCP140.dll
 0002:00000380       __imp_??1_Lockit@std@@QEAA@XZ 000000018002e380     msvcprt:MSVCP140.dll
 0002:00000388       __imp_??0_Lockit@std@@QEAA@H@Z 000000018002e388     msvcprt:MSVCP140.dll
 0002:00000390       __imp_?_Getgloballocale@locale@std@@CAPEAV_Locimp@12@XZ 000000018002e390     msvcprt:MSVCP140.dll
 0002:00000398       __imp_?id@?$codecvt@DDU_Mbstatet@@@std@@2V0locale@2@A 000000018002e398     msvcprt:MSVCP140.dll
 0002:000003a0       __imp_?_Fiopen@std@@YAPEAU_iobuf@@PEB_WHH@Z 000000018002e3a0     msvcprt:MSVCP140.dll
 0002:000003a8       \177MSVCP140_NULL_THUNK_DATA 000000018002e3a8     msvcprt:MSVCP140.dll
 0002:000003b0       __imp_memcpy               000000018002e3b0     vcruntime:VCRUNTIME140.dll
 0002:000003b8       __imp___C_specific_handler 000000018002e3b8     vcruntime:VCRUNTIME140.dll
 0002:000003c0       __imp__purecall            000000018002e3c0     vcruntime:VCRUNTIME140.dll
 0002:000003c8       __imp___std_exception_copy 000000018002e3c8     vcruntime:VCRUNTIME140.dll
 0002:000003d0       __imp___std_exception_destroy 000000018002e3d0     vcruntime:VCRUNTIME140.dll
 0002:000003d8       __imp___std_terminate      000000018002e3d8     vcruntime:VCRUNTIME140.dll
 0002:000003e0       __imp___CxxFrameHandler3   000000018002e3e0     vcruntime:VCRUNTIME140.dll
 0002:000003e8       __imp_memmove              000000018002e3e8     vcruntime:VCRUNTIME140.dll
 0002:000003f0       __imp_memset               000000018002e3f0     vcruntime:VCRUNTIME140.dll
 0002:000003f8       __imp___std_type_info_destroy_list 000000018002e3f8     vcruntime:VCRUNTIME140.dll
 0002:00000400       __imp__CxxThrowException   000000018002e400     vcruntime:VCRUNTIME140.dll
 0002:00000408       \177VCRUNTIME140_NULL_THUNK_DATA 000000018002e408     vcruntime:VCRUNTIME140.dll
 0002:00000410       __imp__wtoi                000000018002e410     ucrt:api-ms-win-crt-convert-l1-1-0.dll
 0002:00000418       __imp_wcstoul              000000018002e418     ucrt:api-ms-win-crt-convert-l1-1-0.dll
 0002:00000420       __imp__strtod_l            000000018002e420     ucrt:api-ms-win-crt-convert-l1-1-0.dll
 0002:00000428       __imp__ui64tow_s           000000018002e428     ucrt:api-ms-win-crt-convert-l1-1-0.dll
 0002:00000430       __imp__ui64toa_s           000000018002e430     ucrt:api-ms-win-crt-convert-l1-1-0.dll
 0002:00000438       __imp__i64toa_s            000000018002e438     ucrt:api-ms-win-crt-convert-l1-1-0.dll
 0002:00000440       __imp__i64tow_s            000000018002e440     ucrt:api-ms-win-crt-convert-l1-1-0.dll
 0002:00000448       \177api-ms-win-crt-convert-l1-1-0_NULL_THUNK_DATA 000000018002e448     ucrt:api-ms-win-crt-convert-l1-1-0.dll
 0002:00000450       __imp__unlock_file         000000018002e450     ucrt:api-ms-win-crt-filesystem-l1-1-0.dll
 0002:00000458       __imp__lock_file           000000018002e458     ucrt:api-ms-win-crt-filesystem-l1-1-0.dll
 0002:00000460       \177api-ms-win-crt-filesystem-l1-1-0_NULL_THUNK_DATA 000000018002e460     ucrt:api-ms-win-crt-filesystem-l1-1-0.dll
 0002:00000468       __imp_malloc               000000018002e468     ucrt:api-ms-win-crt-heap-l1-1-0.dll
 0002:00000470       __imp_free                 000000018002e470     ucrt:api-ms-win-crt-heap-l1-1-0.dll
 0002:00000478       __imp__callnewh            000000018002e478     ucrt:api-ms-win-crt-heap-l1-1-0.dll
 0002:00000480       \177api-ms-win-crt-heap-l1-1-0_NULL_THUNK_DATA 000000018002e480     ucrt:api-ms-win-crt-heap-l1-1-0.dll
 0002:00000488       __imp__free_locale         000000018002e488     ucrt:api-ms-win-crt-locale-l1-1-0.dll
 0002:00000490       __imp__create_locale       000000018002e490     ucrt:api-ms-win-crt-locale-l1-1-0.dll
 0002:00000498       __imp___pctype_func        000000018002e498     ucrt:api-ms-win-crt-locale-l1-1-0.dll
 0002:000004a0       \177api-ms-win-crt-locale-l1-1-0_NULL_THUNK_DATA 000000018002e4a0     ucrt:api-ms-win-crt-locale-l1-1-0.dll
 0002:000004a8       __imp__initialize_narrow_environment 000000018002e4a8     ucrt:api-ms-win-crt-runtime-l1-1-0.dll
 0002:000004b0       __imp__initialize_onexit_table 000000018002e4b0     ucrt:api-ms-win-crt-runtime-l1-1-0.dll
 0002:000004b8       __imp__register_onexit_function 000000018002e4b8     ucrt:api-ms-win-crt-runtime-l1-1-0.dll
 0002:000004c0       __imp__configure_narrow_argv 000000018002e4c0     ucrt:api-ms-win-crt-runtime-l1-1-0.dll
 0002:000004c8       __imp__invalid_parameter_noinfo_noreturn 000000018002e4c8     ucrt:api-ms-win-crt-runtime-l1-1-0.dll
 0002:000004d0       __imp__cexit               000000018002e4d0     ucrt:api-ms-win-crt-runtime-l1-1-0.dll
 0002:000004d8       __imp_terminate            000000018002e4d8     ucrt:api-ms-win-crt-runtime-l1-1-0.dll
 0002:000004e0       __imp__initterm            000000018002e4e0     ucrt:api-ms-win-crt-runtime-l1-1-0.dll
 0002:000004e8       __imp__initterm_e          000000018002e4e8     ucrt:api-ms-win-crt-runtime-l1-1-0.dll
 0002:000004f0       __imp__seh_filter_dll      000000018002e4f0     ucrt:api-ms-win-crt-runtime-l1-1-0.dll
 0002:000004f8       __imp__execute_onexit_table 000000018002e4f8     ucrt:api-ms-win-crt-runtime-l1-1-0.dll
 0002:00000500       __imp__errno               000000018002e500     ucrt:api-ms-win-crt-runtime-l1-1-0.dll
 0002:00000508       __imp__crt_atexit          000000018002e508     ucrt:api-ms-win-crt-runtime-l1-1-0.dll
 0002:00000510       __imp__wassert             000000018002e510     ucrt:api-ms-win-crt-runtime-l1-1-0.dll
 0002:00000518       \177api-ms-win-crt-runtime-l1-1-0_NULL_THUNK_DATA 000000018002e518     ucrt:api-ms-win-crt-runtime-l1-1-0.dll
 0002:00000520       __imp_fgetpos              000000018002e520     ucrt:api-ms-win-crt-stdio-l1-1-0.dll
 0002:00000528       __imp_fwrite               000000018002e528     ucrt:api-ms-win-crt-stdio-l1-1-0.dll
 0002:00000530       __imp_fsetpos              000000018002e530     ucrt:api-ms-win-crt-stdio-l1-1-0.dll
 0002:00000538       __imp_fread                000000018002e538     ucrt:api-ms-win-crt-stdio-l1-1-0.dll
 0002:00000540       __imp_fgetc                000000018002e540     ucrt:api-ms-win-crt-stdio-l1-1-0.dll
 0002:00000548       __imp_setvbuf              000000018002e548     ucrt:api-ms-win-crt-stdio-l1-1-0.dll
 0002:00000550       __imp_fflush               000000018002e550     ucrt:api-ms-win-crt-stdio-l1-1-0.dll
 0002:00000558       __imp_fputc                000000018002e558     ucrt:api-ms-win-crt-stdio-l1-1-0.dll
 0002:00000560       __imp__fseeki64            000000018002e560     ucrt:api-ms-win-crt-stdio-l1-1-0.dll
 0002:00000568       __imp__get_stream_buffer_pointers 000000018002e568     ucrt:api-ms-win-crt-stdio-l1-1-0.dll
 0002:00000570       __imp___stdio_common_vfwprintf 000000018002e570     ucrt:api-ms-win-crt-stdio-l1-1-0.dll
 0002:00000578       __imp_fputws               000000018002e578     ucrt:api-ms-win-crt-stdio-l1-1-0.dll
 0002:00000580       __imp_fclose               000000018002e580     ucrt:api-ms-win-crt-stdio-l1-1-0.dll
 0002:00000588       __imp___stdio_common_vsnprintf_s 000000018002e588     ucrt:api-ms-win-crt-stdio-l1-1-0.dll
 0002:00000590       __imp___stdio_common_vsprintf 000000018002e590     ucrt:api-ms-win-crt-stdio-l1-1-0.dll
 0002:00000598       __imp___stdio_common_vswprintf_s 000000018002e598     ucrt:api-ms-win-crt-stdio-l1-1-0.dll
 0002:000005a0       __imp___stdio_common_vsprintf_s 000000018002e5a0     ucrt:api-ms-win-crt-stdio-l1-1-0.dll
 0002:000005a8       __imp_ungetc               000000018002e5a8     ucrt:api-ms-win-crt-stdio-l1-1-0.dll
 0002:000005b0       __imp___stdio_common_vfprintf 000000018002e5b0     ucrt:api-ms-win-crt-stdio-l1-1-0.dll
 0002:000005b8       __imp___acrt_iob_func      000000018002e5b8     ucrt:api-ms-win-crt-stdio-l1-1-0.dll
 0002:000005c0       \177api-ms-win-crt-stdio-l1-1-0_NULL_THUNK_DATA 000000018002e5c0     ucrt:api-ms-win-crt-stdio-l1-1-0.dll
 0002:000005c8       __imp__wcsnicmp            000000018002e5c8     ucrt:api-ms-win-crt-string-l1-1-0.dll
 0002:000005d0       __imp__wcsicmp             000000018002e5d0     ucrt:api-ms-win-crt-string-l1-1-0.dll
 0002:000005d8       __imp_strncpy              000000018002e5d8     ucrt:api-ms-win-crt-string-l1-1-0.dll
 0002:000005e0       __imp_iswspace             000000018002e5e0     ucrt:api-ms-win-crt-string-l1-1-0.dll
 0002:000005e8       __imp_wcsnlen              000000018002e5e8     ucrt:api-ms-win-crt-string-l1-1-0.dll
 0002:000005f0       __imp_strnlen              000000018002e5f0     ucrt:api-ms-win-crt-string-l1-1-0.dll
 0002:000005f8       __imp_towlower             000000018002e5f8     ucrt:api-ms-win-crt-string-l1-1-0.dll
 0002:00000600       __imp__isctype_l           000000018002e600     ucrt:api-ms-win-crt-string-l1-1-0.dll
 0002:00000608       \177api-ms-win-crt-string-l1-1-0_NULL_THUNK_DATA 000000018002e608     ucrt:api-ms-win-crt-string-l1-1-0.dll
 0002:00000610       __imp_?SetInternalField@Object@v8@@QEAAXHV?$Local@VValue@v8@@@2@@Z 000000018002e610     iojs:node.dll
 0002:00000618       __imp_?New@Function@v8@@SA?AV?$Local@VFunction@v8@@@2@PEAVIsolate@2@P6AXAEBV?$FunctionCallbackInfo@VValue@v8@@@2@@ZV?$Local@VValue@v8@@@2@H@Z 000000018002e618     iojs:node.dll
 0002:00000620       __imp_?SetInternalFieldCount@ObjectTemplate@v8@@QEAAXH@Z 000000018002e620     iojs:node.dll
 0002:00000628       __imp_?NewInstance@ObjectTemplate@v8@@QEAA?AV?$MaybeLocal@VObject@v8@@@2@V?$Local@VContext@v8@@@2@@Z 000000018002e628     iojs:node.dll
 0002:00000630       __imp_?New@ObjectTemplate@v8@@SA?AV?$Local@VObjectTemplate@v8@@@2@PEAVIsolate@2@V?$Local@VFunctionTemplate@v8@@@2@@Z 000000018002e630     iojs:node.dll
 0002:00000638       __imp_?MakeCallback@node@@YA?AV?$Local@VValue@v8@@@v8@@PEAVIsolate@3@V?$Local@VObject@v8@@@3@V?$Local@VFunction@v8@@@3@HPEAV23@@Z 000000018002e638     iojs:node.dll
 0002:00000640       __imp_??1EscapableHandleScope@v8@@QEAA@XZ 000000018002e640     iojs:node.dll
 0002:00000648       __imp_?GetFunction@FunctionTemplate@v8@@QEAA?AV?$Local@VFunction@v8@@@2@XZ 000000018002e648     iojs:node.dll
 0002:00000650       __imp_?New@FunctionTemplate@v8@@SA?AV?$Local@VFunctionTemplate@v8@@@2@PEAVIsolate@2@P6AXAEBV?$FunctionCallbackInfo@VValue@v8@@@2@@ZV?$Local@VValue@v8@@@2@V?$Local@VSignature@v8@@@2@HW4ConstructorBehavior@2@@Z 000000018002e650     iojs:node.dll
 0002:00000658       __imp_?NewFromUtf8@String@v8@@SA?AV?$MaybeLocal@VString@v8@@@2@PEAVIsolate@2@PEBDW4NewStringType@2@H@Z 000000018002e658     iojs:node.dll
 0002:00000660       __imp_?Set@Object@v8@@QEAA?AV?$Maybe@_N@2@V?$Local@VContext@v8@@@2@V?$Local@VValue@v8@@@2@1@Z 000000018002e660     iojs:node.dll
 0002:00000668       __imp_node_module_register 000000018002e668     iojs:node.dll
 0002:00000670       __imp_?New@Integer@v8@@SA?AV?$Local@VInteger@v8@@@2@PEAVIsolate@2@H@Z 000000018002e670     iojs:node.dll
 0002:00000678       __imp_?ThrowException@Isolate@v8@@QEAA?AV?$Local@VValue@v8@@@2@V32@@Z 000000018002e678     iojs:node.dll
 0002:00000680       __imp_?Error@Exception@v8@@SA?AV?$Local@VValue@v8@@@2@V?$Local@VString@v8@@@2@@Z 000000018002e680     iojs:node.dll
 0002:00000688       __imp_?New@Array@v8@@SA?AV?$Local@VArray@v8@@@2@PEAVIsolate@2@H@Z 000000018002e688     iojs:node.dll
 0002:00000690       __imp_?Length@Array@v8@@QEBAIXZ 000000018002e690     iojs:node.dll
 0002:00000698       __imp_?New@Date@v8@@SA?AV?$MaybeLocal@VValue@v8@@@2@V?$Local@VContext@v8@@@2@N@Z 000000018002e698     iojs:node.dll
 0002:000006a0       __imp_?MakeWeak@V8@v8@@CAXPEAPEAVObject@internal@2@PEAXP6AXAEBV?$WeakCallbackInfo@X@2@@ZW4WeakCallbackType@2@@Z 000000018002e6a0     iojs:node.dll
 0002:000006a8       __imp_?Int32Value@Value@v8@@QEBAHXZ 000000018002e6a8     iojs:node.dll
 0002:000006b0       __imp_?Uint32Value@Value@v8@@QEBAIXZ 000000018002e6b0     iojs:node.dll
 0002:000006b8       __imp_?NumberValue@Value@v8@@QEBANXZ 000000018002e6b8     iojs:node.dll
 0002:000006c0       __imp_?BooleanValue@Value@v8@@QEBA_NXZ 000000018002e6c0     iojs:node.dll
 0002:000006c8       __imp_?ToInteger@Value@v8@@QEBA?AV?$MaybeLocal@VInteger@v8@@@2@V?$Local@VContext@v8@@@2@@Z 000000018002e6c8     iojs:node.dll
 0002:000006d0       __imp_?IsDate@Value@v8@@QEBA_NXZ 000000018002e6d0     iojs:node.dll
 0002:000006d8       __imp_?IsUint32@Value@v8@@QEBA_NXZ 000000018002e6d8     iojs:node.dll
 0002:000006e0       __imp_?IsInt32@Value@v8@@QEBA_NXZ 000000018002e6e0     iojs:node.dll
 0002:000006e8       __imp_?IsNumber@Value@v8@@QEBA_NXZ 000000018002e6e8     iojs:node.dll
 0002:000006f0       __imp_?IsBoolean@Value@v8@@QEBA_NXZ 000000018002e6f0     iojs:node.dll
 0002:000006f8       __imp_?IsObject@Value@v8@@QEBA_NXZ 000000018002e6f8     iojs:node.dll
 0002:00000700       __imp_?IsArray@Value@v8@@QEBA_NXZ 000000018002e700     iojs:node.dll
 0002:00000708       __imp_?IsFunction@Value@v8@@QEBA_NXZ 000000018002e708     iojs:node.dll
 0002:00000710       __imp_?Run@Script@v8@@QEAA?AV?$Local@VValue@v8@@@2@XZ 000000018002e710     iojs:node.dll
 0002:00000718       __imp_?Compile@Script@v8@@SA?AV?$Local@VScript@v8@@@2@V?$Local@VString@v8@@@2@PEAVScriptOrigin@2@@Z 000000018002e718     iojs:node.dll
 0002:00000720       __imp_??1Utf8Value@String@v8@@QEAA@XZ 000000018002e720     iojs:node.dll
 0002:00000728       __imp_??0Utf8Value@String@v8@@QEAA@V?$Local@VValue@v8@@@2@@Z 000000018002e728     iojs:node.dll
 0002:00000730       __imp_?New@Number@v8@@SA?AV?$Local@VNumber@v8@@@2@PEAVIsolate@2@N@Z 000000018002e730     iojs:node.dll
 0002:00000738       __imp_?New@Object@v8@@SA?AV?$Local@VObject@v8@@@2@PEAVIsolate@2@@Z 000000018002e738     iojs:node.dll
 0002:00000740       __imp_?SetPrototype@Object@v8@@QEAA?AV?$Maybe@_N@2@V?$Local@VContext@v8@@@2@V?$Local@VValue@v8@@@2@@Z 000000018002e740     iojs:node.dll
 0002:00000748       __imp_?GetPropertyNames@Object@v8@@QEAA?AV?$Local@VArray@v8@@@2@XZ 000000018002e748     iojs:node.dll
 0002:00000750       __imp_?Get@Object@v8@@QEAA?AV?$Local@VValue@v8@@@2@V32@@Z 000000018002e750     iojs:node.dll
 0002:00000758       __imp_?Get@Object@v8@@QEAA?AV?$Local@VValue@v8@@@2@I@Z 000000018002e758     iojs:node.dll
 0002:00000760       __imp_?Set@Object@v8@@QEAA_NV?$Local@VValue@v8@@@2@0@Z 000000018002e760     iojs:node.dll
 0002:00000768       __imp_?Set@Object@v8@@QEAA_NIV?$Local@VValue@v8@@@2@@Z 000000018002e768     iojs:node.dll
 0002:00000770       __imp_?Call@Function@v8@@QEAA?AV?$MaybeLocal@VValue@v8@@@2@V?$Local@VContext@v8@@@2@V?$Local@VValue@v8@@@2@HQEAV52@@Z 000000018002e770     iojs:node.dll
 0002:00000778       __imp_?HasInstance@Buffer@node@@YA_NV?$Local@VValue@v8@@@v8@@@Z 000000018002e778     iojs:node.dll
 0002:00000780       __imp_?New@Buffer@node@@YA?AV?$MaybeLocal@VObject@v8@@@v8@@PEAVIsolate@4@_K@Z 000000018002e780     iojs:node.dll
 0002:00000788       __imp_?Data@Buffer@node@@YAPEADV?$Local@VObject@v8@@@v8@@@Z 000000018002e788     iojs:node.dll
 0002:00000790       __imp_?Copy@Buffer@node@@YA?AV?$MaybeLocal@VObject@v8@@@v8@@PEAVIsolate@4@PEBD_K@Z 000000018002e790     iojs:node.dll
 0002:00000798       __imp_?Length@Buffer@node@@YA_KV?$Local@VObject@v8@@@v8@@@Z 000000018002e798     iojs:node.dll
 0002:000007a0       __imp_?ToObject@Value@v8@@QEBA?AV?$Local@VObject@v8@@@2@XZ 000000018002e7a0     iojs:node.dll
 0002:000007a8       __imp_?SlowGetInternalField@Object@v8@@AEAA?AV?$Local@VValue@v8@@@2@H@Z 000000018002e7a8     iojs:node.dll
 0002:000007b0       __imp_?HasCaught@TryCatch@v8@@QEBA_NXZ 000000018002e7b0     iojs:node.dll
 0002:000007b8       __imp_??1TryCatch@v8@@QEAA@XZ 000000018002e7b8     iojs:node.dll
 0002:000007c0       __imp_??0TryCatch@v8@@QEAA@PEAVIsolate@1@@Z 000000018002e7c0     iojs:node.dll
 0002:000007c8       __imp_??0EscapableHandleScope@v8@@QEAA@PEAVIsolate@1@@Z 000000018002e7c8     iojs:node.dll
 0002:000007d0       __imp_?Escape@EscapableHandleScope@v8@@AEAAPEAPEAVObject@internal@2@PEAPEAV342@@Z 000000018002e7d0     iojs:node.dll
 0002:000007d8       __imp_?GlobalizeReference@V8@v8@@CAPEAPEAVObject@internal@2@PEAVIsolate@42@PEAPEAV342@@Z 000000018002e7d8     iojs:node.dll
 0002:000007e0       __imp_?DisposeGlobal@V8@v8@@CAXPEAPEAVObject@internal@2@@Z 000000018002e7e0     iojs:node.dll
 0002:000007e8       __imp_?ToLocalEmpty@V8@v8@@CAXXZ 000000018002e7e8     iojs:node.dll
 0002:000007f0       __imp_?CreateHandle@HandleScope@v8@@CAPEAPEAVObject@internal@2@PEAVHeapObject@42@PEAV342@@Z 000000018002e7f0     iojs:node.dll
 0002:000007f8       __imp_?CreateHandle@HandleScope@v8@@KAPEAPEAVObject@internal@2@PEAVIsolate@42@PEAV342@@Z 000000018002e7f8     iojs:node.dll
 0002:00000800       __imp_?GetCurrentContext@Isolate@v8@@QEAA?AV?$Local@VContext@v8@@@2@XZ 000000018002e800     iojs:node.dll
 0002:00000808       __imp_?New@External@v8@@SA?AV?$Local@VExternal@v8@@@2@PEAVIsolate@2@PEAX@Z 000000018002e808     iojs:node.dll
 0002:00000810       __imp_?Value@External@v8@@QEBAPEAXXZ 000000018002e810     iojs:node.dll
 0002:00000818       __imp_?Global@Context@v8@@QEAA?AV?$Local@VObject@v8@@@2@XZ 000000018002e818     iojs:node.dll
 0002:00000820       __imp_uv_default_loop      000000018002e820     iojs:node.dll
 0002:00000828       __imp_uv_sem_init          000000018002e828     iojs:node.dll
 0002:00000830       __imp_uv_async_init        000000018002e830     iojs:node.dll
 0002:00000838       __imp_uv_async_send        000000018002e838     iojs:node.dll
 0002:00000840       __imp_uv_sem_post          000000018002e840     iojs:node.dll
 0002:00000848       __imp_uv_close             000000018002e848     iojs:node.dll
 0002:00000850       __imp_??0HandleScope@v8@@QEAA@PEAVIsolate@1@@Z 000000018002e850     iojs:node.dll
 0002:00000858       __imp_??1HandleScope@v8@@QEAA@XZ 000000018002e858     iojs:node.dll
 0002:00000860       __imp_?GetCurrent@Isolate@v8@@SAPEAV12@XZ 000000018002e860     iojs:node.dll
 0002:00000868       __imp_uv_sem_wait          000000018002e868     iojs:node.dll
 0002:00000870       __imp_uv_unref             000000018002e870     iojs:node.dll
 0002:00000878       __imp_?FatalException@node@@YAXPEAVIsolate@v8@@AEBVTryCatch@3@@Z 000000018002e878     iojs:node.dll
 0002:00000880       __imp_?Exception@TryCatch@v8@@QEBA?AV?$Local@VValue@v8@@@2@XZ 000000018002e880     iojs:node.dll
 0002:00000888       __imp_?Call@Function@v8@@QEAA?AV?$Local@VValue@v8@@@2@V32@HQEAV32@@Z 000000018002e888     iojs:node.dll
 0002:00000890       \177node_NULL_THUNK_DATA   000000018002e890     iojs:node.dll
 0002:00000898       __guard_check_icall_fptr   000000018002e898     MSVCRT:guard_support.obj
 0002:000008a0       __guard_dispatch_icall_fptr 000000018002e8a0     MSVCRT:guard_support.obj
 0002:000008a8       __xc_a                     000000018002e8a8     MSVCRT:initializers.obj
 0002:000008b8       _register_edge_coreclr_    000000018002e8b8     edge.obj
 0002:000008d0       __xc_z                     000000018002e8d0     MSVCRT:initializers.obj
 0002:000008d8       __xi_a                     000000018002e8d8     MSVCRT:initializers.obj
 0002:000008e8       __xi_z                     000000018002e8e8     MSVCRT:initializers.obj
 0002:000008f0       __xl_a                     000000018002e8f0     MSVCRT:tlssup.obj
 0002:000008f8       __xl_z                     000000018002e8f8     MSVCRT:tlssup.obj
 0002:00000900       __xp_a                     000000018002e900     MSVCRT:initializers.obj
 0002:00000908       __xp_z                     000000018002e908     MSVCRT:initializers.obj
 0002:00000910       __xt_a                     000000018002e910     MSVCRT:initializers.obj
 0002:00000918       __xt_z                     000000018002e918     MSVCRT:initializers.obj
 0002:00000970       ??_C@_1EC@JIJBPKFM@?$AAa?$AAp?$AAi?$AA?9?$AAm?$AAs?$AA?9?$AAw?$AAi?$AAn?$AA?9?$AAc?$AAo?$AAr?$AAe@ 000000018002e970     MSVCRT:thread_safe_statics.obj
 0002:000009b8       ??_C@_1BK@MGMFAEKH@?$AAk?$AAe?$AAr?$AAn?$AAe?$AAl?$AA3?$AA2?$AA?4?$AAd?$AAl?$AAl@ 000000018002e9b8     MSVCRT:thread_safe_statics.obj
 0002:000009d8       ??_C@_0BM@HLJJNPAH@InitializeConditionVariable@ 000000018002e9d8     MSVCRT:thread_safe_statics.obj
 0002:000009f8       ??_C@_0BJ@JEBJOJFJ@SleepConditionVariableCS@ 000000018002e9f8     MSVCRT:thread_safe_statics.obj
 0002:00000a18       ??_C@_0BJ@PGPPEPCC@WakeAllConditionVariable@ 000000018002ea18     MSVCRT:thread_safe_statics.obj
 0002:00000a40       ??_7type_info@@6B@         000000018002ea40     MSVCRT:std_type_info_static.obj
 0002:00000a48       _pDefaultRawDllMain        000000018002ea48     MSVCRT:dll_dllmain.obj
 0002:00000a48       _pRawDllMain               000000018002ea48     MSVCRT:dll_dllmain.obj
 0002:00000a68       ??_7exception@std@@6B@     000000018002ea68     MSVCRT:throw_bad_alloc.obj
 0002:00000a80       ??_7bad_alloc@std@@6B@     000000018002ea80     MSVCRT:throw_bad_alloc.obj
 0002:00000a90       ??_C@_0P@GHFPNOJB@bad?5allocation@ 000000018002ea90     MSVCRT:throw_bad_alloc.obj
 0002:00000aa8       ??_7bad_array_new_length@std@@6B@ 000000018002eaa8     MSVCRT:throw_bad_alloc.obj
 0002:00000ab8       ??_C@_0BF@KINCDENJ@bad?5array?5new?5length@ 000000018002eab8     MSVCRT:throw_bad_alloc.obj
 0002:00000ad0       ??_C@_0BD@IIICBIPG@continueOnV8Thread@ 000000018002ead0     v8synchronizationcontext.obj
 0002:00000ae4       ??_C@_01EEMJAFIK@?6@       000000018002eae4     v8synchronizationcontext.obj
 0002:00000ae8       ??_C@_0CF@NBIIEHG@V8SynchronizationContext?3?3Initi@ 000000018002eae8     v8synchronizationcontext.obj
 0002:00000b10       ??_C@_0CA@GEGBHOOH@V8SynchronizationContext?3?3Unref@ 000000018002eb10     v8synchronizationcontext.obj
 0002:00000b30       ??_C@_0CJ@GHCFCBME@V8SynchronizationContext?3?3Regis@ 000000018002eb30     v8synchronizationcontext.obj
 0002:00000b60       ??_C@_0DG@JFAEAFDF@V8SynchronizationContext?3?3Regis@ 000000018002eb60     v8synchronizationcontext.obj
 0002:00000b98       ??_C@_0DH@KHELHDDP@V8SynchronizationContext?3?3Regis@ 000000018002eb98     v8synchronizationcontext.obj
 0002:00000bd0       ??_C@_0CI@BPHFDAEB@V8SynchronizationContext?3?3Execu@ 000000018002ebd0     v8synchronizationcontext.obj
 0002:00000bf8       ??_C@_0CH@IOBLEAG@V8SynchronizationContext?3?3Cance@ 000000018002ebf8     v8synchronizationcontext.obj
 0002:00000c20       ??_C@_0BL@KGOBFBBG@CallbackHelper?3?3Initialize@ 000000018002ec20     callbackhelper.obj
 0002:00000c40       ??_C@_0L@EKKNFNBB@EDGE_DEBUG@ 000000018002ec40     edge.obj
 0002:00000c50       ??_C@_0L@CHICJFFH@edge?3?3init@ 000000018002ec50     edge.obj
 0002:00000c60       ??_C@_0CN@GCNHABKO@Error?5occurred?5during?5CoreCLR?5i@ 000000018002ec60     edge.obj
 0002:00000c90       ??_C@_0CC@HGMALJDA@EDGE_ENABLE_SCRIPTIGNOREATTRIBU@ 000000018002ec90     edge.obj
 0002:00000cb8       ??_C@_0BJ@HEIPPCF@EDGE_MARSHAL_ENUM_AS_INT@ 000000018002ecb8     edge.obj
 0002:00000cd8       ??_C@_0BC@PHGCDEGB@initializeClrFunc@ 000000018002ecd8     edge.obj
 0002:00000cf0       ??_C@_0DA@OLPPAOKK@e?3?2bsh?2node_modules?2edge?9js?2src@ 000000018002ecf0     edge.obj
 0002:00000d20       ??_C@_0N@GKDMPLBB@edge_coreclr@ 000000018002ed20     edge.obj
 0002:00000d30       ??_C@_0BA@JFNIOLAK@string?5too?5long@ 000000018002ed30     coreclrembedding.obj
 0002:00000d40       ??_C@_19DOGDICKI@?$AA?4?$AAe?$AAx?$AAe@ 000000018002ed40     coreclrembedding.obj
 0002:00000d50       ??_C@_1II@GIBJFNFA@?$AAe?$AA?3?$AA?2?$AAb?$AAs?$AAh?$AA?2?$AAn?$AAo?$AAd?$AAe?$AA_?$AAm?$AAo?$AAd@ 000000018002ed50     coreclrembedding.obj
 0002:00000de0       ??_C@_1FA@JJMGCHKI@?$AAt?$AAy?$AAp?$AAe?$AA?5?$AA?$DM?$AA?5?$AAd?$AAe?$AAp?$AAs?$AA_?$AAe?$AAn?$AAt@ 000000018002ede0     coreclrembedding.obj
 0002:00000e30       ??_C@_1BO@FEIGGILH@?$AAh?$AAo?$AAs?$AAt?$AAp?$AAo?$AAl?$AAi?$AAc?$AAy?$AA?4?$AAd?$AAl?$AAl@ 000000018002ee30     coreclrembedding.obj
 0002:00000e50       ??_C@_1LI@HEKIGKPE@?$AAT?$AAh?$AAe?$AA?5?$AAv?$AAe?$AAr?$AAs?$AAi?$AAo?$AAn?$AA?5?$AAo?$AAf?$AA?5@ 000000018002ee50     coreclrembedding.obj
 0002:00000f10       ??_C@_1JM@ELGPCKBJ@?$AAT?$AAh?$AAe?$AA?5?$AAs?$AAi?$AAz?$AAe?$AA?5?$AAo?$AAf?$AA?5?$AAt?$AAh?$AAe@ 000000018002ef10     coreclrembedding.obj
 0002:00000fb0       ??_C@_1LG@JJJLDALB@?$AAR?$AAe?$AAa?$AAd?$AAi?$AAn?$AAg?$AA?5?$AAf?$AAr?$AAo?$AAm?$AA?5?$AAh?$AAo@ 000000018002efb0     coreclrembedding.obj
 0002:00001068       ??_C@_1CM@IIKCNBIL@?$AAU?$AAs?$AAi?$AAn?$AAg?$AA?5?$AA?$CF?$AAs?$AA?5?$AAF?$AAX?$AA?5?$AAd?$AAe?$AAp@ 000000018002f068     coreclrembedding.obj
 0002:00001098       ??_C@_1CG@OPJCMPEJ@?$AAU?$AAs?$AAi?$AAn?$AAg?$AA?5?$AA?$CF?$AAs?$AA?5?$AAd?$AAe?$AAp?$AAs?$AA?5?$AAf@ 000000018002f098     coreclrembedding.obj
 0002:000010c0       ??_C@_1EC@MBDPFHBF@?$AAA?$AAn?$AA?5?$AAe?$AAr?$AAr?$AAo?$AAr?$AA?5?$AAo?$AAc?$AAc?$AAu?$AAr?$AAr@ 000000018002f0c0     coreclrembedding.obj
 0002:00001110       ??_C@_1IE@DLJDNKBO@?$AAA?$AA?5?$AAf?$AAa?$AAt?$AAa?$AAl?$AA?5?$AAe?$AAr?$AAr?$AAo?$AAr?$AA?5?$AAw@ 000000018002f110     coreclrembedding.obj
 0002:00001198       ??_C@_1BG@IAKAALL@?$AA?4?$AAd?$AAe?$AAp?$AAs?$AA?4?$AAj?$AAs?$AAo?$AAn@ 000000018002f198     coreclrembedding.obj
 0002:000011b0       ??_C@_17MIEKGGLN@?$AAw?$AAi?$AAn@ 000000018002f1b0     coreclrembedding.obj
 0002:000011b8       ??_C@_17EIACCBPF@?$AAx?$AA6?$AA4@ 000000018002f1b8     coreclrembedding.obj
 0002:000011c0       ??_C@_13LDEHOAPL@?$AA7@    000000018002f1c0     coreclrembedding.obj
 0002:000011c4       ??_C@_13OLCEPAKN@?$AA8@    000000018002f1c4     coreclrembedding.obj
 0002:000011c8       ??_C@_15OOIDEEFI@?$AA8?$AA1@ 000000018002f1c8     coreclrembedding.obj
 0002:000011d0       ??_C@_15HBDAHCPF@?$AA1?$AA0@ 000000018002f1d0     coreclrembedding.obj
 0002:000011d8       ??_C@_11LOCGONAA@@         000000018002f1d8     coreclrembedding.obj
 0002:000011e0       ??_C@_1BG@KJNBIDOP@?$AAE?$AAD?$AAG?$AAE?$AA_?$AAD?$AAE?$AAB?$AAU?$AAG@ 000000018002f1e0     coreclrembedding.obj
 0002:00001200       ??_C@_1EO@FDPHJDN@?$AAC?$AAo?$AAr?$AAe?$AAC?$AAl?$AAr?$AAE?$AAm?$AAb?$AAe?$AAd?$AAd?$AAi?$AAn@ 000000018002f200     coreclrembedding.obj
 0002:00001250       ??_C@_13IMODFHAA@?$AA?9@   000000018002f250     coreclrembedding.obj
 0002:00001258       ??_C@_0CF@KEJBMJAG@Unable?5to?5get?5the?5current?5direc@ 000000018002f258     coreclrembedding.obj
 0002:00001280       ??_C@_1GI@OEOGPNMA@?$AAC?$AAo?$AAr?$AAe?$AAC?$AAl?$AAr?$AAE?$AAm?$AAb?$AAe?$AAd?$AAd?$AAi?$AAn@ 000000018002f280     coreclrembedding.obj
 0002:000012f0       ??_C@_1GE@PHHGDDLM@?$AAC?$AAo?$AAr?$AAe?$AAC?$AAl?$AAr?$AAE?$AAm?$AAb?$AAe?$AAd?$AAd?$AAi?$AAn@ 000000018002f2f0     coreclrembedding.obj
 0002:00001360       ??_C@_1HG@JPIBAAJN@?$AAC?$AAo?$AAr?$AAe?$AAC?$AAl?$AAr?$AAE?$AAm?$AAb?$AAe?$AAd?$AAd?$AAi?$AAn@ 000000018002f360     coreclrembedding.obj
 0002:000013d8       ??_C@_1BM@MHCBPDGI@?$AAE?$AAD?$AAG?$AAE?$AA_?$AAA?$AAP?$AAP?$AA_?$AAR?$AAO?$AAO?$AAT@ 000000018002f3d8     coreclrembedding.obj
 0002:000013f8       ??_C@_1CG@EDIBGAMC@?$AAE?$AAD?$AAG?$AAE?$AA_?$AAB?$AAO?$AAO?$AAT?$AAS?$AAT?$AAR?$AAA?$AAP?$AA_@ 000000018002f3f8     coreclrembedding.obj
 0002:00001420       ??_C@_1PE@MHGANPNB@?$AAC?$AAo?$AAr?$AAe?$AAC?$AAl?$AAr?$AAE?$AAm?$AAb?$AAe?$AAd?$AAd?$AAi?$AAn@ 000000018002f420     coreclrembedding.obj
 0002:00001520       ??_C@_1OA@PCCLMAKO@?$AAC?$AAo?$AAr?$AAe?$AAC?$AAl?$AAr?$AAE?$AAm?$AAb?$AAe?$AAd?$AAd?$AAi?$AAn@ 000000018002f520     coreclrembedding.obj
 0002:00001600       ??_C@_1MG@POECBGDF@?$AAC?$AAo?$AAr?$AAe?$AAC?$AAl?$AAr?$AAE?$AAm?$AAb?$AAe?$AAd?$AAd?$AAi?$AAn@ 000000018002f600     coreclrembedding.obj
 0002:000016c8       ??_C@_1BI@PGACHFLA@?$AA?$CK?$AA?4?$AAd?$AAe?$AAp?$AAs?$AA?4?$AAj?$AAs?$AAo?$AAn@ 000000018002f6c8     coreclrembedding.obj
 0002:000016e0       ??_C@_0GC@KPMHNIMJ@Multiple?5dependency?5manifest?5?$CI?$CK@ 000000018002f6e0     coreclrembedding.obj
 0002:00001750       ??_C@_1OG@EALCGPIJ@?$AAC?$AAo?$AAr?$AAe?$AAC?$AAl?$AAr?$AAE?$AAm?$AAb?$AAe?$AAd?$AAd?$AAi?$AAn@ 000000018002f750     coreclrembedding.obj
 0002:00001838       ??_C@_19BHIGINDB@?$AA?4?$AAd?$AAl?$AAl@ 000000018002f838     coreclrembedding.obj
 0002:00001848       ??_C@_19IJOJOJIB@?$AAP?$AAA?$AAT?$AAH@ 000000018002f848     coreclrembedding.obj
 0002:00001860       ??_C@_1FE@OBBOLJNB@?$AAC?$AAo?$AAr?$AAe?$AAC?$AAl?$AAr?$AAE?$AAm?$AAb?$AAe?$AAd?$AAd?$AAi?$AAn@ 000000018002f860     coreclrembedding.obj
 0002:000018b8       ??_C@_1O@GHFEELDK@?$AAd?$AAo?$AAt?$AAn?$AAe?$AAt@ 000000018002f8b8     coreclrembedding.obj
 0002:000018d0       ??_C@_1HC@NEKGHOIE@?$AAC?$AAo?$AAr?$AAe?$AAC?$AAl?$AAr?$AAE?$AAm?$AAb?$AAe?$AAd?$AAd?$AAi?$AAn@ 000000018002f8d0     coreclrembedding.obj
 0002:00001950       ??_C@_1GE@KJMEMFLJ@?$AAC?$AAo?$AAr?$AAe?$AAC?$AAl?$AAr?$AAE?$AAm?$AAb?$AAe?$AAd?$AAd?$AAi?$AAn@ 000000018002f950     coreclrembedding.obj
 0002:000019c0       ??_C@_0LL@KPLABOMI@This?5is?5not?5a?5published?0?5standa@ 000000018002f9c0     coreclrembedding.obj
 0002:00001a80       ??_C@_1BG@OFPPJFDC@?$AAd?$AAo?$AAt?$AAn?$AAe?$AAt?$AA?4?$AAd?$AAl?$AAl@ 000000018002fa80     coreclrembedding.obj
 0002:00001a98       ??_C@_1BO@NPAPHGKJ@?$AAN?$AAU?$AAG?$AAE?$AAT?$AA_?$AAP?$AAA?$AAC?$AAK?$AAA?$AAG?$AAE?$AAS@ 000000018002fa98     coreclrembedding.obj
 0002:00001ab8       ??_C@_1BI@FAOJLPH@?$AAU?$AAS?$AAE?$AAR?$AAP?$AAR?$AAO?$AAF?$AAI?$AAL?$AAE@ 000000018002fab8     coreclrembedding.obj
 0002:00001ad0       ??_C@_19HOKJLBCB@?$AAH?$AAO?$AAM?$AAE@ 000000018002fad0     coreclrembedding.obj
 0002:00001ae0       ??_C@_1O@JPPCFKCK@?$AA?4?$AAn?$AAu?$AAg?$AAe?$AAt@ 000000018002fae0     coreclrembedding.obj
 0002:00001af0       ??_C@_1BC@KKGBINGP@?$AAp?$AAa?$AAc?$AAk?$AAa?$AAg?$AAe?$AAs@ 000000018002faf0     coreclrembedding.obj
 0002:00001b08       ??_C@_1CA@PAGLNMLJ@?$AAC?$AAO?$AAR?$AAE?$AAC?$AAL?$AAR?$AA_?$AAV?$AAE?$AAR?$AAS?$AAI?$AAO?$AAN@ 000000018002fb08     coreclrembedding.obj
 0002:00001b30       ??_C@_1JM@GCEGBLBG@?$AAC?$AAo?$AAr?$AAe?$AAC?$AAl?$AAr?$AAE?$AAm?$AAb?$AAe?$AAd?$AAd?$AAi?$AAn@ 000000018002fb30     coreclrembedding.obj
 0002:00001bd0       ??_C@_1BCI@IHMHCIMA@?$AAC?$AAo?$AAr?$AAe?$AAC?$AAl?$AAr?$AAE?$AAm?$AAb?$AAe?$AAd?$AAd?$AAi?$AAn@ 000000018002fbd0     coreclrembedding.obj
 0002:00001d00       ??_C@_1HK@PCAMPKMI@?$AAC?$AAo?$AAr?$AAe?$AAC?$AAl?$AAr?$AAE?$AAm?$AAb?$AAe?$AAd?$AAd?$AAi?$AAn@ 000000018002fd00     coreclrembedding.obj
 0002:00001d80       ??_C@_1HK@MEHALNMD@?$AAC?$AAo?$AAr?$AAe?$AAC?$AAl?$AAr?$AAE?$AAm?$AAb?$AAe?$AAd?$AAd?$AAi?$AAn@ 000000018002fd80     coreclrembedding.obj
 0002:00001e00       ??_C@_1JK@CANIEANP@?$AAC?$AAo?$AAr?$AAe?$AAC?$AAl?$AAr?$AAE?$AAm?$AAb?$AAe?$AAd?$AAd?$AAi?$AAn@ 000000018002fe00     coreclrembedding.obj
 0002:00001ea0       ??_C@_0BM@IBJBBDKM@TRUSTED_PLATFORM_ASSEMBLIES@ 000000018002fea0     coreclrembedding.obj
 0002:00001ec0       ??_C@_09FNIJODON@APP_PATHS@ 000000018002fec0     coreclrembedding.obj
 0002:00001ed0       ??_C@_0N@KLDIAAKH@APP_NI_PATHS@ 000000018002fed0     coreclrembedding.obj
 0002:00001ee0       ??_C@_0BO@LIJIGDEG@NATIVE_DLL_SEARCH_DIRECTORIES@ 000000018002fee0     coreclrembedding.obj
 0002:00001f00       ??_C@_0BI@HDFGKOG@PLATFORM_RESOURCE_ROOTS@ 000000018002ff00     coreclrembedding.obj
 0002:00001f18       ??_C@_0BG@JKEJOHHM@AppDomainCompatSwitch@ 000000018002ff18     coreclrembedding.obj
 0002:00001f30       ??_C@_0BL@GGNJKJJO@APP_CONTEXT_BASE_DIRECTORY@ 000000018002ff30     coreclrembedding.obj
 0002:00001f50       ??_C@_0BH@HGCMLFON@APP_CONTEXT_DEPS_FILES@ 000000018002ff50     coreclrembedding.obj
 0002:00001f68       ??_C@_0N@EAGENMPN@FX_DEPS_FILE@ 000000018002ff68     coreclrembedding.obj
 0002:00001f78       ??_C@_13PJJBFPED@?$AA?$DL@ 000000018002ff78     coreclrembedding.obj
 0002:00001f80       ??_C@_0CF@NBCMLHCK@UseLatestBehaviorWhenTFMNotSpec@ 000000018002ff80     coreclrembedding.obj
 0002:00001fa8       ??_C@_08GHEHPHK@JIT_PATH@  000000018002ffa8     coreclrembedding.obj
 0002:00001fc0       ??_C@_1IM@HBECINEI@?$AAe?$AA?3?$AA?2?$AAb?$AAs?$AAh?$AA?2?$AAn?$AAo?$AAd?$AAe?$AA_?$AAm?$AAo?$AAd@ 000000018002ffc0     coreclrembedding.obj
 0002:00002050       ??_C@_1FO@GGFFFIBO@?$AAp?$AAr?$AAo?$AAp?$AAe?$AAr?$AAt?$AAy?$AA_?$AAk?$AAe?$AAy?$AAs?$AA?4?$AAs@ 0000000180030050     coreclrembedding.obj
 0002:000020b0       ??_C@_1IO@NBPHLIHJ@?$AAC?$AAo?$AAr?$AAe?$AAC?$AAl?$AAr?$AAE?$AAm?$AAb?$AAe?$AAd?$AAd?$AAi?$AAn@ 00000001800300b0     coreclrembedding.obj
 0002:00002140       ??_C@_1IC@EAKHHMOP@?$AAC?$AAo?$AAr?$AAe?$AAC?$AAl?$AAr?$AAE?$AAm?$AAb?$AAe?$AAd?$AAd?$AAi?$AAn@ 0000000180030140     coreclrembedding.obj
 0002:000021d0       ??_C@_1GA@DGJFFNGN@?$AAC?$AAo?$AAr?$AAe?$AAC?$AAl?$AAr?$AAE?$AAm?$AAb?$AAe?$AAd?$AAd?$AAi?$AAn@ 00000001800301d0     coreclrembedding.obj
 0002:00002230       ??_C@_04EIJIPNMI@Edge@     0000000180030230     coreclrembedding.obj
 0002:00002240       ??_C@_1JG@CFPDLKEG@?$AAC?$AAo?$AAr?$AAe?$AAC?$AAl?$AAr?$AAE?$AAm?$AAb?$AAe?$AAd?$AAd?$AAi?$AAn@ 0000000180030240     coreclrembedding.obj
 0002:000022e0       ??_C@_1IA@DLLKEEII@?$AAC?$AAo?$AAr?$AAe?$AAC?$AAl?$AAr?$AAE?$AAm?$AAb?$AAe?$AAd?$AAd?$AAi?$AAn@ 00000001800302e0     coreclrembedding.obj
 0002:00002360       ??_C@_1KG@CMPLFFPH@?$AAC?$AAo?$AAr?$AAe?$AAC?$AAl?$AAr?$AAE?$AAm?$AAb?$AAe?$AAd?$AAd?$AAi?$AAn@ 0000000180030360     coreclrembedding.obj
 0002:00002410       ??_C@_1BA@IFAPIGON@?$AAE?$AAd?$AAg?$AAe?$AA?4?$AAj?$AAs@ 0000000180030410     coreclrembedding.obj
 0002:00002420       ??_C@_07HHHDOEPO@GetFunc@  0000000180030420     coreclrembedding.obj
 0002:00002428       ??_C@_0BB@HDMMGCJG@CoreCLREmbedding@ 0000000180030428     coreclrembedding.obj
 0002:0000243c       ??_C@_06LJDALJFM@EdgeJs@   000000018003043c     coreclrembedding.obj
 0002:00002450       ??_C@_0EM@PBKAKPEI@Call?5to?5coreclr_create_delegate@ 0000000180030450     coreclrembedding.obj
 0002:000024a0       ??_C@_1JC@PMPIDIPO@?$AAC?$AAo?$AAr?$AAe?$AAC?$AAl?$AAr?$AAE?$AAm?$AAb?$AAe?$AAd?$AAd?$AAi?$AAn@ 00000001800304a0     coreclrembedding.obj
 0002:00002538       ??_C@_08FGEDLOAP@CallFunc@ 0000000180030538     coreclrembedding.obj
 0002:00002548       ??_C@_0N@BKHFFGKG@ContinueTask@ 0000000180030548     coreclrembedding.obj
 0002:00002558       ??_C@_0L@KJILEBBB@FreeHandle@ 0000000180030558     coreclrembedding.obj
 0002:00002568       ??_C@_0BA@IPNJFKCI@FreeMarshalData@ 0000000180030568     coreclrembedding.obj
 0002:00002578       ??_C@_0BK@FBNCMMAF@SetCallV8FunctionDelegate@ 0000000180030578     coreclrembedding.obj
 0002:00002598       ??_C@_0M@IIABFCJK@CompileFunc@ 0000000180030598     coreclrembedding.obj
 0002:000025a8       ??_C@_0L@KIAPHAEH@Initialize@ 00000001800305a8     coreclrembedding.obj
 0002:000025c0       ??_C@_1GI@HIDLJDGI@?$AAC?$AAo?$AAr?$AAe?$AAC?$AAl?$AAr?$AAE?$AAm?$AAb?$AAe?$AAd?$AAd?$AAi?$AAn@ 00000001800305c0     coreclrembedding.obj
 0002:00002630       ??_C@_1GK@ECCPICFO@?$AAC?$AAo?$AAr?$AAe?$AAC?$AAl?$AAr?$AAE?$AAm?$AAb?$AAe?$AAd?$AAd?$AAi?$AAn@ 0000000180030630     coreclrembedding.obj
 0002:000026a0       ??_C@_1HC@EGGFPLFP@?$AAC?$AAo?$AAr?$AAe?$AAC?$AAl?$AAr?$AAE?$AAm?$AAb?$AAe?$AAd?$AAd?$AAi?$AAn@ 00000001800306a0     coreclrembedding.obj
 0002:00002720       ??_C@_1IC@OIHCCBFP@?$AAC?$AAo?$AAr?$AAe?$AAC?$AAl?$AAr?$AAE?$AAm?$AAb?$AAe?$AAd?$AAd?$AAi?$AAn@ 0000000180030720     coreclrembedding.obj
 0002:000027b0       ??_C@_1JK@DEHCABCH@?$AAC?$AAo?$AAr?$AAe?$AAC?$AAl?$AAr?$AAE?$AAm?$AAb?$AAe?$AAd?$AAd?$AAi?$AAn@ 00000001800307b0     coreclrembedding.obj
 0002:00002850       ??_C@_1JA@LNLFBEGF@?$AAC?$AAo?$AAr?$AAe?$AAC?$AAl?$AAr?$AAE?$AAm?$AAb?$AAe?$AAd?$AAd?$AAi?$AAn@ 0000000180030850     coreclrembedding.obj
 0002:000028e0       ??_C@_1FC@JOPJGKLC@?$AAC?$AAo?$AAr?$AAe?$AAC?$AAl?$AAr?$AAE?$AAm?$AAb?$AAe?$AAd?$AAd?$AAi?$AAn@ 00000001800308e0     coreclrembedding.obj
 0002:00002940       ??_C@_1HE@GAHKPEGP@?$AAC?$AAo?$AAr?$AAe?$AAC?$AAl?$AAr?$AAE?$AAm?$AAb?$AAe?$AAd?$AAd?$AAi?$AAn@ 0000000180030940     coreclrembedding.obj
 0002:000029c0       ??_C@_1HE@DIFEAMJJ@?$AAC?$AAo?$AAr?$AAe?$AAC?$AAl?$AAr?$AAE?$AAm?$AAb?$AAe?$AAd?$AAd?$AAi?$AAn@ 00000001800309c0     coreclrembedding.obj
 0002:00002a38       ??_C@_1DM@LMLGPDMA@?$AAC?$AAo?$AAr?$AAe?$AAC?$AAl?$AAr?$AAE?$AAm?$AAb?$AAe?$AAd?$AAd?$AAi?$AAn@ 0000000180030a38     coreclrembedding.obj
 0002:00002a78       ??_C@_1DO@IKHMOBGI@?$AAC?$AAo?$AAr?$AAe?$AAC?$AAl?$AAr?$AAE?$AAm?$AAb?$AAe?$AAd?$AAd?$AAi?$AAn@ 0000000180030a78     coreclrembedding.obj
 0002:00002ab8       ??_C@_1DK@NLAMJDIB@?$AAC?$AAo?$AAr?$AAe?$AAC?$AAl?$AAr?$AAE?$AAm?$AAb?$AAe?$AAd?$AAd?$AAi?$AAn@ 0000000180030ab8     coreclrembedding.obj
 0002:00002b00       ??_C@_1EE@GIBGFPKF@?$AAC?$AAo?$AAr?$AAe?$AAC?$AAl?$AAr?$AAE?$AAm?$AAb?$AAe?$AAd?$AAd?$AAi?$AAn@ 0000000180030b00     coreclrembedding.obj
 0002:00002b50       ??_C@_1FC@LMNPFBNH@?$AAC?$AAo?$AAr?$AAe?$AAC?$AAl?$AAr?$AAE?$AAm?$AAb?$AAe?$AAd?$AAd?$AAi?$AAn@ 0000000180030b50     coreclrembedding.obj
 0002:00002bb0       ??_C@_1FC@OEPBKJCB@?$AAC?$AAo?$AAr?$AAe?$AAC?$AAl?$AAr?$AAE?$AAm?$AAb?$AAe?$AAd?$AAd?$AAi?$AAn@ 0000000180030bb0     coreclrembedding.obj
 0002:00002c08       ??_C@_0BD@OLBABOEK@vector?$DMT?$DO?5too?5long@ 0000000180030c08     coreclrembedding.obj
 0002:00002c20       ??_C@_0BI@CFPLBAOH@invalid?5string?5position@ 0000000180030c20     coreclrembedding.obj
 0002:00002c38       ??_C@_1DM@EEODBLEP@?$AAe?$AA?3?$AA?2?$AAb?$AAs?$AAh?$AA?2?$AAn?$AAo?$AAd?$AAe?$AA_?$AAm?$AAo?$AAd@ 0000000180030c38     coreclrfunc.obj
 0002:00002c80       ??_C@_1FM@LOELJOFK@?$AAs?$AAi?$AAz?$AAe?$AA?5?$AA?$DM?$AA?$DN?$AA?5?$AAi?$AAm?$AAp?$AA?3?$AA?3?$AAk?$AAM@ 0000000180030c80     coreclrfunc.obj
 0002:00002ce0       ??_C@_0BB@JCFIOHAE@coreClrFuncProxy@ 0000000180030ce0     coreclrfunc.obj
 0002:00002cf8       ??_C@_0CK@JOCBAKLJ@CoreClrFunc?3?3InitializeInstance@ 0000000180030cf8     coreclrfunc.obj
 0002:00002d28       ??_C@_0DJ@FECJNGLN@CoreClrFunc?3?3InitializeInstance@ 0000000180030d28     coreclrfunc.obj
 0002:00002d70       ??_C@_0EL@KKIBEIKK@?$CIfunction?5?$CIf?0?5ctx?$CJ?5?$HL?5return?5fun@ 0000000180030d70     coreclrfunc.obj
 0002:00002dc0       ??_C@_0CL@GMIKELAO@CoreClrFunc?3?3InitializeInstance@ 0000000180030dc0     coreclrfunc.obj
 0002:00002df0       ??_C@_0BM@PMFNGNMG@CoreClrFunc?3?3Call?5?9?5Started@ 0000000180030df0     coreclrfunc.obj
 0002:00002e10       ??_C@_0EI@NNHINKLJ@CoreClrFunc?3?3Call?5?9?5Marshalling@ 0000000180030e10     coreclrfunc.obj
 0002:00002e58       ??_C@_0DK@EOCDEGPD@CoreClrFunc?3?3Call?5?9?5Object?5type@ 0000000180030e58     coreclrfunc.obj
 0002:00002e98       ??_C@_0DM@BLKPFMHK@CoreClrFunc?3?3Call?5?9?5Calling?5Cor@ 0000000180030e98     coreclrfunc.obj
 0002:00002ee0       ??_C@_0FA@PBOGPILF@CoreClrFunc?3?3Call?5?9?5CoreClrEmbe@ 0000000180030ee0     coreclrfunc.obj
 0002:00002f30       ??_C@_0DL@PHNMDJII@CoreClrFunc?3?3Call?5?9?5Freeing?5the@ 0000000180030f30     coreclrfunc.obj
 0002:00002f70       ??_C@_0EH@MLJIDCAA@CoreClrFunc?3?3Call?5?9?5Task?5ran?5sy@ 0000000180030f70     coreclrfunc.obj
 0002:00002fc0       ??_C@_0FC@KGJNEELM@CoreClrFunc?3?3Call?5?9?5Task?5threw?5@ 0000000180030fc0     coreclrfunc.obj
 0002:00003020       ??_C@_0FK@FJFNGCEL@CoreClrFunc?3?3Call?5?9?5Task?5was?5ex@ 0000000180031020     coreclrfunc.obj
 0002:00003080       ??_C@_0KE@JHOINBKF@The?5JavaScript?5function?5was?5cal@ 0000000180031080     coreclrfunc.obj
 0002:00003130       ??_C@_0EG@OMFCGCBJ@CoreClrFunc?3?3Call?5?9?5Task?5runnin@ 0000000180031130     coreclrfunc.obj
 0002:00003178       ??_C@_0BN@KMFCFLME@CoreClrFunc?3?3Call?5?9?5Finished@ 0000000180031178     coreclrfunc.obj
 0002:00003198       ??_C@_0CD@NODFPGFF@CoreClrFunc?3?3Initialize?5?9?5Start@ 0000000180031198     coreclrfunc.obj
 0002:000031c0       ??_C@_0N@LHDHBBAP@assemblyFile@ 00000001800311c0     coreclrfunc.obj
 0002:000031d0       ??_C@_08IPCLAMCO@typeName@ 00000001800311d0     coreclrfunc.obj
 0002:000031e0       ??_C@_0L@EEPALDFA@methodName@ 00000001800311e0     coreclrfunc.obj
 0002:000031f0       ??_C@_0DC@KPOCHOBM@CoreClrFunc?3?3Initialize?5?9?5Loadi@ 00000001800311f0     coreclrfunc.obj
 0002:00003228       ??_C@_0DH@PBGFAFGM@CoreClrFunc?3?3Initialize?5?9?5Funct@ 0000000180031228     coreclrfunc.obj
 0002:00003260       ??_C@_0DM@KAFJCDFE@CoreClrFunc?3?3Initialize?5?9?5Callb@ 0000000180031260     coreclrfunc.obj
 0002:000032a0       ??_C@_0EM@FOBFJGOL@CoreClrFunc?3?3Initialize?5?9?5Error@ 00000001800312a0     coreclrfunc.obj
 0002:000032f0       ??_C@_0DK@BJALFLJM@CoreClrFunc?3?3Initialize?5?9?5Compi@ 00000001800312f0     coreclrfunc.obj
 0002:00003330       ??_C@_0DJ@JKFFAPPP@CoreClrFunc?3?3Initialize?5?9?5Funct@ 0000000180031330     coreclrfunc.obj
 0002:00003370       ??_C@_0CD@GNGBFAHH@CoreClrFunc?3?3Initialize?5?9?5Finis@ 0000000180031370     coreclrfunc.obj
 0002:00003394       ??_C@_05IANLDAEP@stack@    0000000180031394     coreclrfunc.obj
 0002:0000339c       ??_C@_04FABLJDN@Name@      000000018003139c     coreclrfunc.obj
 0002:000033a8       ??_C@_07BEIHKDLJ@Message@  00000001800313a8     coreclrfunc.obj
 0002:000033b0       ??_C@_07ONPBMBOP@message@  00000001800313b0     coreclrfunc.obj
 0002:000033b8       ??_C@_04MEMAJGDJ@name@     00000001800313b8     coreclrfunc.obj
 0002:000033c0       ??_C@_0DC@FBOMFLNO@Unsupported?5object?5type?5receive@ 00000001800313c0     coreclrfunc.obj
 0002:000033f8       ??_C@_0BK@NNABPODB@coreClrFuncProxyNearDeath@ 00000001800313f8     coreclrfunc.obj
 0002:00003418       ??_C@_0CF@NNKEAHHP@CoreClrNodejsFunc?3?3CoreClrNodej@ 0000000180031418     coreclrnodejsfunc.obj
 0002:00003440       ??_C@_0BI@PAGMKOFJ@CoreClrNodejsFunc?3?3Call@ 0000000180031440     coreclrnodejsfunc.obj
 0002:00003458       ??_C@_0DD@OGDMNEBK@CoreClrFuncInvokeContext?3?3CoreC@ 0000000180031458     coreclrfuncinvokecontext.obj
 0002:00003490       ??_C@_0DE@FDBAJEIA@CoreClrFuncInvokeContext?3?3?$HOCore@ 0000000180031490     coreclrfuncinvokecontext.obj
 0002:000034c8       ??_C@_0DD@FJJIBMLM@CoreClrFuncInvokeContext?3?3Initi@ 00000001800314c8     coreclrfuncinvokecontext.obj
 0002:00003500       ??_C@_0CH@OLDHIAPG@CoreClrFuncInvokeContext?3?3TaskC@ 0000000180031500     coreclrfuncinvokecontext.obj
 0002:00003528       ??_C@_0DC@OFOHDEFO@CoreClrFuncInvokeContext?3?3TaskC@ 0000000180031528     coreclrfuncinvokecontext.obj
 0002:00003560       ??_C@_0CJ@FIFAKIC@CoreClrFuncInvokeContext?3?3Invok@ 0000000180031560     coreclrfuncinvokecontext.obj
 0002:00003590       ??_C@_0EA@HIFALOAL@CoreClrFuncInvokeContext?3?3Invok@ 0000000180031590     coreclrfuncinvokecontext.obj
 0002:000035d0       ??_C@_0DP@JDDNAOCF@CoreClrFuncInvokeContext?3?3Invok@ 00000001800315d0     coreclrfuncinvokecontext.obj
 0002:00003610       ??_C@_0EB@JBAOPKAM@CoreClrFuncInvokeContext?3?3Invok@ 0000000180031610     coreclrfuncinvokecontext.obj
 0002:00003658       ??_C@_0DE@FCDGCCCJ@CoreClrFuncInvokeContext?3?3Invok@ 0000000180031658     coreclrfuncinvokecontext.obj
 0002:00003690       ??_C@_0BG@HEOIFONN@coreClrV8FuncCallback@ 0000000180031690     coreclrnodejsfuncinvokecontext.obj
 0002:000036a8       ??_C@_0DP@COGDDMEG@CoreClrNodejsFuncInvokeContext?3@ 00000001800316a8     coreclrnodejsfuncinvokecontext.obj
 0002:000036e8       ??_C@_0CJ@ENAFMLAI@CoreClrNodejsFuncInvokeContext?3@ 00000001800316e8     coreclrnodejsfuncinvokecontext.obj
 0002:00003718       ??_C@_0CP@JCLJGOBO@CoreClrNodejsFuncInvokeContext?3@ 0000000180031718     coreclrnodejsfuncinvokecontext.obj
 0002:00003750       ??_C@_0EL@LNNJMAII@?$CIfunction?5?$CIcb?0?5ctx?$CJ?5?$HL?5return?5fu@ 0000000180031750     coreclrnodejsfuncinvokecontext.obj
 0002:000037a0       ??_C@_0EN@MPLBIHPL@CoreClrNodejsFuncInvokeContext?3@ 00000001800317a0     coreclrnodejsfuncinvokecontext.obj
 0002:000037f0       ??_C@_0EM@MPOBHPMH@CoreClrNodejsFuncInvokeContext?3@ 00000001800317f0     coreclrnodejsfuncinvokecontext.obj
 0002:00003840       ??_C@_0EN@BIIBMAJ@CoreClrNodejsFuncInvokeContext?3@ 0000000180031840     coreclrnodejsfuncinvokecontext.obj
 0002:00003890       ??_C@_0EK@GDILFCAM@CoreClrNodejsFuncInvokeContext?3@ 0000000180031890     coreclrnodejsfuncinvokecontext.obj
 0002:000038e0       ??_C@_1BI@DBHPJHNN@?$AAc?$AAo?$AAr?$AAe?$AAc?$AAl?$AAr?$AA?4?$AAd?$AAl?$AAl@ 00000001800318e0     pal_utils.obj
 0002:00003900       ??_C@_1EK@GKBCANMH@?$AAC?$AAh?$AAe?$AAc?$AAk?$AAi?$AAn?$AAg?$AA?5?$AAi?$AAf?$AA?5?$AAC?$AAo?$AAr@ 0000000180031900     pal_utils.obj
 0002:0000394c       ??_C@_15DJBMFJKF@?$AA?1?$AA?2@ 000000018003194c     pal_utils.obj
 0002:00003958       ??_C@_0BB@MOGOBHAF@list?$DMT?$DO?5too?5long@ 0000000180031958     pal_utils.obj
 0002:00003980       ?s_known_asset_types@deps_entry_t@@2V?$array@PEB_W$02@std@@B 0000000180031980     deps_format.obj
 0002:00003998       ??_C@_15JNBOKNOG@?$AA?$AN?$AA?6@ 0000000180031998     trace.obj
 0002:000039a0       ??_C@_1BO@BJOHMCMD@?$AAC?$AAO?$AAR?$AAE?$AAH?$AAO?$AAS?$AAT?$AA_?$AAT?$AAR?$AAA?$AAC?$AAE@ 00000001800319a0     trace.obj
 0002:000039c0       ??_C@_1CA@HFJPHJMK@?$AAT?$AAr?$AAa?$AAc?$AAi?$AAn?$AAg?$AA?5?$AAe?$AAn?$AAa?$AAb?$AAl?$AAe?$AAd@ 00000001800319c0     trace.obj
 0002:000039e0       ??_C@_0BH@DPNNDOEK@invalid?5stoul?5argument@ 00000001800319e0     fx_ver.obj
 0002:000039f8       ??_C@_0BM@MOLGGFGJ@stoul?5argument?5out?5of?5range@ 00000001800319f8     fx_ver.obj
 0002:00003a14       ??_C@_13JOFGPIOO@?$AA?4@   0000000180031a14     fx_ver.obj
 0002:00003a18       ??_C@_13KJIIAINM@?$AA?$CL@ 0000000180031a18     fx_ver.obj
 0002:00003a1c       ??_C@_15DKIAAHOO@?$AA?9?$AA?$CK@ 0000000180031a1c     fx_ver.obj
 0002:00003a24       ??_C@_15LMBEHFEA@?$AA?4?$AA?$CK@ 0000000180031a24     fx_ver.obj
 0002:00003a30       ??_C@_1BG@PGBNDIAE@?$AA0?$AA1?$AA2?$AA3?$AA4?$AA5?$AA6?$AA7?$AA8?$AA9@ 0000000180031a30     fx_ver.obj
 0002:00003a50       ??_C@_1IA@JHBJEBLA@?$AAe?$AA?3?$AA?2?$AAb?$AAs?$AAh?$AA?2?$AAn?$AAo?$AAd?$AAe?$AA_?$AAm?$AAo?$AAd@ 0000000180031a50     fx_ver.obj
 0002:00003ad0       ??_C@_1EE@HLGJIJEM@?$AA?$CB?$AAv?$AAa?$AAl?$AAi?$AAd?$AA?5?$AA?$HM?$AA?$HM?$AA?5?$AAf?$AAx?$AA_?$AAv?$AAe@ 0000000180031ad0     fx_ver.obj
 0002:00003b18       ??_8?$basic_stringstream@_WU?$char_traits@_W@std@@V?$allocator@_W@2@@std@@7B?$basic_istream@_WU?$char_traits@_W@std@@@1@@ 0000000180031b18     fx_ver.obj
 0002:00003b20       ??_8?$basic_ostringstream@_WU?$char_traits@_W@std@@V?$allocator@_W@2@@std@@7B@ 0000000180031b20     json_parsing.obj
 0002:00003b20       ??_8?$basic_stringstream@_WU?$char_traits@_W@std@@V?$allocator@_W@2@@std@@7B?$basic_ostream@_WU?$char_traits@_W@std@@@1@@ 0000000180031b20     fx_ver.obj
 0002:00003b30       ??_7?$basic_stringbuf@_WU?$char_traits@_W@std@@V?$allocator@_W@2@@std@@6B@ 0000000180031b30     fx_ver.obj
 0002:00003bb0       ??_7?$basic_stringstream@_WU?$char_traits@_W@std@@V?$allocator@_W@2@@std@@6B@ 0000000180031bb0     fx_ver.obj
 0002:00003bb8       ??_C@_0BC@EOODALEL@Unknown?5exception@ 0000000180031bb8     fx_muxer.obj
 0002:00003bd0       ??_C@_08EPJLHIJG@bad?5cast@ 0000000180031bd0     fx_muxer.obj
 0002:00003be0       ??_C@_1BM@IDCDCAHB@?$AAK?$AAe?$AAy?$AA?5?$AAn?$AAo?$AAt?$AA?5?$AAf?$AAo?$AAu?$AAn?$AAd@ 0000000180031be0     fx_muxer.obj
 0002:00003c00       ??_C@_1EK@HLLJJOF@?$AAU?$AAT?$AAF?$AA?9?$AA8?$AA?5?$AAB?$AAO?$AAM?$AA?5?$AAs?$AAk?$AAi?$AAp?$AAp@ 0000000180031c00     fx_muxer.obj
 0002:00003c50       ??_C@_1BE@JGMPJPM@?$AAl?$AAi?$AAb?$AAr?$AAa?$AAr?$AAi?$AAe?$AAs@ 0000000180031c50     fx_muxer.obj
 0002:00003c70       ??_C@_1FM@BKOBLKLM@?$AAA?$AA?5?$AAJ?$AAS?$AAO?$AAN?$AA?5?$AAp?$AAa?$AAr?$AAs?$AAi?$AAn?$AAg?$AA?5@ 0000000180031c70     fx_muxer.obj
 0002:00003cd0       ??_C@_19LMGJOGM@?$AAp?$AAk?$AAg?$AAs@ 0000000180031cd0     fx_muxer.obj
 0002:00003ce0       ??_C@_1IE@DNCNJABK@?$AAe?$AA?3?$AA?2?$AAb?$AAs?$AAh?$AA?2?$AAn?$AAo?$AAd?$AAe?$AA_?$AAm?$AAo?$AAd@ 0000000180031ce0     fx_muxer.obj
 0002:00003d70       ??_C@_1EA@DKDKNEMK@?$AAm?$AAo?$AAd?$AAe?$AA?5?$AA?$CB?$AA?$DN?$AA?5?$AAh?$AAo?$AAs?$AAt?$AA_?$AAm?$AAo@ 0000000180031d70     fx_muxer.obj
 0002:00003db0       ??_C@_1DG@BHMABGLL@?$AAm?$AAo?$AAd?$AAe?$AA?5?$AA?$DN?$AA?$DN?$AA?5?$AAh?$AAo?$AAs?$AAt?$AA_?$AAm?$AAo@ 0000000180031db0     fx_muxer.obj
 0002:00003df0       ??_C@_1HO@MIANHIJE@?$AA?9?$AA?9?$AA?9?$AA?5?$AAR?$AAe?$AAs?$AAo?$AAl?$AAv?$AAi?$AAn?$AAg?$AA?5?$AAF@ 0000000180031df0     fx_muxer.obj
 0002:00003e70       ??_C@_1HC@NPCCCLOD@?$AAT?$AAh?$AAe?$AA?5?$AAs?$AAp?$AAe?$AAc?$AAi?$AAf?$AAi?$AAe?$AAd?$AA?5?$AAf@ 0000000180031e70     fx_muxer.obj
 0002:00003ee8       ??_C@_1O@KKDJANEO@?$AAs?$AAh?$AAa?$AAr?$AAe?$AAd@ 0000000180031ee8     fx_muxer.obj
 0002:00003f00       ??_C@_1KG@KFIKLOEM@?$AAD?$AAi?$AAd?$AA?5?$AAn?$AAo?$AAt?$AA?5?$AAr?$AAo?$AAl?$AAl?$AA?5?$AAf?$AAo@ 0000000180031f00     fx_muxer.obj
 0002:00003fb0       ??_C@_1FM@FHNKMGNB@?$AAA?$AAt?$AAt?$AAe?$AAm?$AAp?$AAt?$AAi?$AAn?$AAg?$AA?5?$AAF?$AAX?$AA?5?$AAr@ 0000000180031fb0     fx_muxer.obj
 0002:00004010       ??_C@_1DG@EGLPHMD@?$AAI?$AAn?$AAs?$AAp?$AAe?$AAc?$AAt?$AAi?$AAn?$AAg?$AA?5?$AAv?$AAe?$AAr?$AAs@ 0000000180032010     fx_muxer.obj
 0002:00004048       ??_C@_1CM@KBDCCCDI@?$AAC?$AAh?$AAo?$AAs?$AAe?$AA?5?$AAF?$AAX?$AA?5?$AAv?$AAe?$AAr?$AAs?$AAi?$AAo@ 0000000180032048     fx_muxer.obj
 0002:00004080       ??_C@_1GA@ILDCEBNG@?$AA?9?$AA?9?$AA?9?$AA?5?$AAR?$AAe?$AAs?$AAo?$AAl?$AAv?$AAi?$AAn?$AAg?$AA?5?$AAC@ 0000000180032080     fx_muxer.obj
 0002:000040e0       ??_C@_1CI@GHCJFCHE@?$AA?$FL?$AA?$CF?$AAs?$AA?$FN?$AA?5?$AAd?$AAo?$AAe?$AAs?$AA?5?$AAn?$AAo?$AAt?$AA?5?$AAe@ 00000001800320e0     fx_muxer.obj
 0002:00004108       ??_C@_1DC@HMFEFGCK@?$AA?$FL?$AA?$CF?$AAs?$AA?$FN?$AA?5?$AAc?$AAo?$AAu?$AAl?$AAd?$AA?5?$AAn?$AAo?$AAt?$AA?5@ 0000000180032108     fx_muxer.obj
 0002:00004140       ??_C@_17MHEAILKL@?$AAs?$AAd?$AAk@ 0000000180032140     fx_muxer.obj
 0002:00004150       ??_C@_1GE@HDEPOMBB@?$AAC?$AAL?$AAI?$AA?5?$AA?8?$AA?1?$AAs?$AAd?$AAk?$AA?1?$AAv?$AAe?$AAr?$AAs?$AAi@ 0000000180032150     fx_muxer.obj
 0002:000041b8       ??_C@_1BA@KPDNCIMM@?$AAv?$AAe?$AAr?$AAs?$AAi?$AAo?$AAn@ 00000001800321b8     fx_muxer.obj
 0002:000041d0       ??_C@_1GC@HHFCMBHP@?$AAC?$AAL?$AAI?$AA?5?$AA?8?$AAs?$AAd?$AAk?$AA?1?$AAv?$AAe?$AAr?$AAs?$AAi?$AAo@ 00000001800321d0     fx_muxer.obj
 0002:00004240       ??_C@_1FK@JPICIND@?$AAC?$AAL?$AAI?$AA?5?$AAv?$AAe?$AAr?$AAs?$AAi?$AAo?$AAn?$AA?5?$AAi?$AAs?$AA?5@ 0000000180032240     fx_muxer.obj
 0002:000042a0       ??_C@_1FI@BMDGDHCE@?$AA?9?$AA?9?$AA?9?$AA?5?$AAR?$AAe?$AAs?$AAo?$AAl?$AAv?$AAi?$AAn?$AAg?$AA?5?$AAS@ 00000001800322a0     fx_muxer.obj
 0002:000042f8       ??_C@_1DI@GIKKHFLI@?$AAC?$AAo?$AAn?$AAs?$AAi?$AAd?$AAe?$AAr?$AAi?$AAn?$AAg?$AA?5?$AAv?$AAe?$AAr@ 00000001800322f8     fx_muxer.obj
 0002:00004330       ??_C@_1HA@FMIEDFEG@?$AAN?$AAo?$AA?5?$AAp?$AAr?$AAo?$AAd?$AAu?$AAc?$AAt?$AAi?$AAo?$AAn?$AA?5?$AAv@ 0000000180032330     fx_muxer.obj
 0002:000043a0       ??_C@_1FC@MGKKDJCI@?$AAC?$AAh?$AAe?$AAc?$AAk?$AAi?$AAn?$AAg?$AA?5?$AAi?$AAf?$AA?5?$AAr?$AAe?$AAs@ 00000001800323a0     fx_muxer.obj
 0002:000043f8       ??_C@_1DC@PMGAJKIO@?$AAR?$AAe?$AAs?$AAo?$AAl?$AAv?$AAe?$AAd?$AA?5?$AAS?$AAD?$AAK?$AA?5?$AAd?$AAi@ 00000001800323f8     fx_muxer.obj
 0002:00004430       ??_C@_1EM@HBECIEAC@?$AA?9?$AA?9?$AA?9?$AA?5?$AAR?$AAe?$AAs?$AAo?$AAl?$AAv?$AAi?$AAn?$AAg?$AA?5?$AAd@ 0000000180032430     fx_muxer.obj
 0002:00004480       ??_C@_1BI@KFNLBEAN@?$AAg?$AAl?$AAo?$AAb?$AAa?$AAl?$AA?4?$AAj?$AAs?$AAo?$AAn@ 0000000180032480     fx_muxer.obj
 0002:000044a0       ??_C@_1EE@FFDCNFDF@?$AAP?$AAr?$AAo?$AAb?$AAi?$AAn?$AAg?$AA?5?$AAp?$AAa?$AAt?$AAh?$AA?5?$AA?$FL?$AA?$CF@ 00000001800324a0     fx_muxer.obj
 0002:000044e8       ??_C@_1CO@DEIIOIMN@?$AAF?$AAo?$AAu?$AAn?$AAd?$AA?5?$AAg?$AAl?$AAo?$AAb?$AAa?$AAl?$AA?4?$AAj?$AAs@ 00000001800324e8     fx_muxer.obj
 0002:00004520       ??_C@_1EO@HPIFGGLI@?$AAT?$AAe?$AAr?$AAm?$AAi?$AAn?$AAa?$AAt?$AAi?$AAn?$AAg?$AA?5?$AAg?$AAl?$AAo@ 0000000180032520     fx_muxer.obj
 0002:00004570       ??_C@_1EK@PBFLLEAG@?$AAF?$AAa?$AAi?$AAl?$AAe?$AAd?$AA?5?$AAt?$AAo?$AA?5?$AAo?$AAb?$AAt?$AAa?$AAi@ 0000000180032570     fx_muxer.obj
 0002:000045c0       ??_C@_1FG@KEEKBNDN@?$AAC?$AAL?$AAI?$AA?5?$AAd?$AAi?$AAr?$AAe?$AAc?$AAt?$AAo?$AAr?$AAy?$AA?5?$AA?$FL@ 00000001800325c0     fx_muxer.obj
 0002:00004620       ??_C@_1GE@KBJOEBNB@?$AAC?$AAL?$AAI?$AA?5?$AAd?$AAi?$AAr?$AAe?$AAc?$AAt?$AAo?$AAr?$AAy?$AA?5?$AA?$FL@ 0000000180032620     fx_muxer.obj
 0002:00004688       ??_C@_1CK@PGEGEECO@?$AAF?$AAo?$AAu?$AAn?$AAd?$AA?5?$AAC?$AAL?$AAI?$AA?5?$AAS?$AAD?$AAK?$AA?5?$AAi@ 0000000180032688     fx_muxer.obj
 0002:000046c0       ??_7json_exception@json@web@@6B@ 00000001800326c0     fx_muxer.obj
 0002:000046d8       ??_7?$basic_filebuf@DU?$char_traits@D@std@@@std@@6B@ 00000001800326d8     fx_muxer.obj
 0002:00004758       ??_7bad_cast@std@@6B@      0000000180032758     fx_muxer.obj
 0002:00004768       ??_8?$basic_ifstream@DU?$char_traits@D@std@@@std@@7B@ 0000000180032768     fx_muxer.obj
 0002:00004778       ??_7?$basic_ifstream@DU?$char_traits@D@std@@@std@@6B@ 0000000180032778     fx_muxer.obj
 0002:00004780       ??_C@_05LAPONLG@false@     0000000180032780     json.obj
 0002:00004788       ??_C@_04LOAJBDKD@true@     0000000180032788     json.obj
 0002:00004790       ??_C@_04CLCAKCEI@json@     0000000180032790     json.obj
 0002:00004798       ??_C@_0DK@MKOMAHJK@Left?9over?5characters?5in?5stream?5@ 0000000180032798     json.obj
 0002:000047d8       ??_C@_0BI@EEFEMBBG@Malformed?5array?5literal@ 00000001800327d8     json.obj
 0002:000047f0       ??_C@_0BC@OFPEDGMK@Malformed?5comment@ 00000001800327f0     json.obj
 0002:00004808       ??_C@_0BC@PCELJIM@Malformed?5literal@ 0000000180032808     json.obj
 0002:00004820       ??_C@_0BJ@IBMMOHGA@Malformed?5object?5literal@ 0000000180032820     json.obj
 0002:00004840       ??_C@_0BK@DBJOEEBL@Malformed?5numeric?5literal@ 0000000180032840     json.obj
 0002:00004860       ??_C@_0BJ@PCCIOJML@Malformed?5string?5literal@ 0000000180032860     json.obj
 0002:00004880       ??_C@_0BA@EAGGNBJD@Malformed?5token@ 0000000180032880     json.obj
 0002:00004890       ??_C@_0BC@HHAHEAE@Mismatched?5braces@ 0000000180032890     json.obj
 0002:000048a8       ??_C@_0BB@CMIABPIE@Nesting?5too?5deep@ 00000001800328a8     json.obj
 0002:000048c0       ??_C@_0BB@FKAIECKK@Unexpected?5token@ 00000001800328c0     json.obj
 0002:000048d8       ??_C@_0BD@HDNBPLHL@Unknown?5json?5error@ 00000001800328d8     json.obj
 0002:000048f0       ??_C@_1BM@CFCIKPNI@?$AAn?$AAo?$AAt?$AA?5?$AAa?$AAn?$AA?5?$AAo?$AAb?$AAj?$AAe?$AAc?$AAt@ 00000001800328f0     json.obj
 0002:00004910       ??_C@_1BK@EBBAPMJJ@?$AAn?$AAo?$AAt?$AA?5?$AAa?$AAn?$AA?5?$AAa?$AAr?$AAr?$AAa?$AAy@ 0000000180032910     json.obj
 0002:00004930       ??_C@_1BK@CMFOKGGD@?$AAn?$AAo?$AAt?$AA?5?$AAa?$AA?5?$AAn?$AAu?$AAm?$AAb?$AAe?$AAr@ 0000000180032930     json.obj
 0002:00004950       ??_C@_1BM@MOILHJPB@?$AAn?$AAo?$AAt?$AA?5?$AAa?$AA?5?$AAb?$AAo?$AAo?$AAl?$AAe?$AAa?$AAn@ 0000000180032950     json.obj
 0002:00004970       ??_C@_1BK@OAHMDHGG@?$AAn?$AAo?$AAt?$AA?5?$AAa?$AA?5?$AAs?$AAt?$AAr?$AAi?$AAn?$AAg@ 0000000180032970     json.obj
 0002:0000498c       ??_C@_04MLLLIHIP@null@     000000018003298c     json.obj
 0002:00004998       ??_C@_19DJCNLLCE@?$AAn?$AAu?$AAl?$AAl@ 0000000180032998     json.obj
 0002:000049a8       ??_C@_19FKLFLPMF@?$AAt?$AAr?$AAu?$AAe@ 00000001800329a8     json.obj
 0002:000049b8       ??_C@_1M@HLGKFCJM@?$AAf?$AAa?$AAl?$AAs?$AAe@ 00000001800329b8     json.obj
 0002:000049d0       ??_7_Object@details@json@web@@6B@ 00000001800329d0     json.obj
 0002:00004ab0       ??_7_Value@details@json@web@@6B@ 0000000180032ab0     json.obj
 0002:00004b90       ??_7_Boolean@details@json@web@@6B@ 0000000180032b90     json.obj
 0002:00004c70       ??_7json_error_category_impl@details@json@web@@6B@ 0000000180032c70     json.obj
 0002:00004ca8       ??_7_String@details@json@web@@6B@ 0000000180032ca8     json.obj
 0002:00004d88       ??_7_Array@details@json@web@@6B@ 0000000180032d88     json.obj
 0002:00004e68       ??_7_Null@details@json@web@@6B@ 0000000180032e68     json.obj
 0002:00004f48       ??_7_Number@details@json@web@@6B@ 0000000180032f48     json.obj
 0002:00005020       ??_C@_07DCLBNMLN@generic@  0000000180033020     json_parsing.obj
 0002:00005028       ??_C@_06FHFOAHML@system@   0000000180033028     json_parsing.obj
 0002:00005030       ??_C@_0O@BFJCFAAK@unknown?5error@ 0000000180033030     json_parsing.obj
 0002:00005040       ??_C@_05OINFJHGD@?$CFI64u@ 0000000180033040     json_parsing.obj
 0002:00005050       ??_C@_1HE@JEHILNMK@?$AAL?$AAe?$AAf?$AAt?$AA?9?$AAo?$AAv?$AAe?$AAr?$AA?5?$AAc?$AAh?$AAa?$AAr?$AAa@ 0000000180033050     json_parsing.obj
 0002:000050c8       ??_C@_1CA@ECFFOAKN@?$AA?5?$AAS?$AAy?$AAn?$AAt?$AAa?$AAx?$AA?5?$AAe?$AAr?$AAr?$AAo?$AAr?$AA?3?$AA?5@ 00000001800330c8     json_parsing.obj
 0002:000050e8       ??_C@_1BE@FNEDNDFO@?$AA?0?$AA?5?$AAC?$AAo?$AAl?$AAu?$AAm?$AAn?$AA?5@ 00000001800330e8     json_parsing.obj
 0002:00005100       ??_C@_1BA@BIFNFLLG@?$AA?$CK?$AA?5?$AAL?$AAi?$AAn?$AAe?$AA?5@ 0000000180033100     json_parsing.obj
 0002:00005118       ??_7_Generic_error_category@std@@6B@ 0000000180033118     json_parsing.obj
 0002:00005150       ??_7?$basic_ostringstream@_WU?$char_traits@_W@std@@V?$allocator@_W@2@@std@@6B@ 0000000180033150     json_parsing.obj
 0002:00005160       ??_7?$JSON_StreamParser@D@details@json@web@@6B@ 0000000180033160     json_parsing.obj
 0002:00005188       ??_7_System_error_category@std@@6B@ 0000000180033188     json_parsing.obj
 0002:000051b8       ??_C@_04GPHHEOMN@?$CF?4?$CKg@ 00000001800331b8     json_serialization.obj
 0002:000051c0       ??_C@_19FJDLMGJD@?$AA?$CF?$AA?4?$AA?$CK?$AAg@ 00000001800331c0     json_serialization.obj
 0002:000051d0       ?intToHex@?L@???$append_escape_string@D@details@json@web@@YAXAEAV?$basic_string@DU?$char_traits@D@std@@V?$allocator@D@2@@std@@AEBV45@@Z@4V?$array@D$0BA@@5@B 00000001800331d0     json_serialization.obj
 0002:000051e0       ?intToHex@?L@???$append_escape_string@_W@details@json@web@@YAXAEAV?$basic_string@_WU?$char_traits@_W@std@@V?$allocator@_W@2@@std@@AEBV45@@Z@4V?$array@_W$0BA@@5@B 00000001800331e0     json_serialization.obj
 0002:00005200       ??_C@_01GFHCPBMG@C@        0000000180033200     asyncrt_utils.obj
 0002:00005208       ??_C@_0BN@OKOBAODO@Unable?5to?5create?5?8C?8?5locale?4@ 0000000180033208     asyncrt_utils.obj
 0002:00005228       ??_C@_0DF@BAMDPNHD@UTF?98?5string?5character?5can?5neve@ 0000000180033228     asyncrt_utils.obj
 0002:00005260       ??_C@_0CM@MNDJELFD@UTF?98?5string?5has?5invalid?5Unicod@ 0000000180033260     asyncrt_utils.obj
 0002:00005290       ??_C@_0CL@MOEKFC@UTF?98?5string?5is?5missing?5bytes?5i@ 0000000180033290     asyncrt_utils.obj
 0002:000052c0       ??_C@_0DA@OAONAKMF@UTF?98?5continuation?5byte?5is?5miss@ 00000001800332c0     asyncrt_utils.obj
 0002:000052f0       ??_C@_0CH@OOEEBHBJ@UTF?916?5string?5is?5missing?5low?5su@ 00000001800332f0     asyncrt_utils.obj
 0002:00005318       ??_C@_0CI@HBKFOCNJ@UTF?916?5string?5has?5invalid?5low?5s@ 0000000180033318     asyncrt_utils.obj
 0002:00005348       ??_7range_error@std@@6B@   0000000180033348     asyncrt_utils.obj
 0002:00005360       ??_7runtime_error@std@@6B@ 0000000180033360     asyncrt_utils.obj
 0002:00005370       ??_C@_1BE@OLHCEJMH@?$AAr?$AAe?$AAs?$AAo?$AAu?$AAr?$AAc?$AAe?$AAs@ 0000000180033370     deps_format.obj
 0002:00005388       ??_C@_1BA@GMLJMFCJ@?$AAr?$AAu?$AAn?$AAt?$AAi?$AAm?$AAe@ 0000000180033388     deps_format.obj
 0002:00005398       ??_C@_1CO@MNDBJEAF@?$AAR?$AAe?$AAc?$AAo?$AAn?$AAc?$AAi?$AAl?$AAi?$AAn?$AAg?$AA?5?$AAl?$AAi?$AAb@ 0000000180033398     deps_format.obj
 0002:000053c8       ??_C@_1O@DLHAALGJ@?$AAn?$AAa?$AAt?$AAi?$AAv?$AAe@ 00000001800333c8     deps_format.obj
 0002:000053d8       ??_C@_19FHBCDCCA@?$AAt?$AAy?$AAp?$AAe@ 00000001800333d8     deps_format.obj
 0002:000053f0       ??_C@_1BA@KOHDLAGF@?$AAp?$AAa?$AAc?$AAk?$AAa?$AAg?$AAe@ 00000001800333f0     deps_format.obj
 0002:00005400       ??_C@_1DE@JGANAJCE@?$AAL?$AAi?$AAb?$AAr?$AAa?$AAr?$AAy?$AA?5?$AA?$CF?$AAs?$AA?5?$AAd?$AAo?$AAe?$AAs@ 0000000180033400     deps_format.obj
 0002:00005438       ??_C@_1DI@MJKPMIKP@?$AAL?$AAi?$AAb?$AAr?$AAa?$AAr?$AAy?$AA?5?$AA?$CF?$AAs?$AA?5?$AAi?$AAs?$AA?5?$AAn@ 0000000180033438     deps_format.obj
 0002:00005470       ??_C@_1BI@BDFDJGJD@?$AAs?$AAe?$AAr?$AAv?$AAi?$AAc?$AAe?$AAa?$AAb?$AAl?$AAe@ 0000000180033470     deps_format.obj
 0002:00005488       ??_C@_1O@PABINMCF@?$AAs?$AAh?$AAa?$AA5?$AA1?$AA2@ 0000000180033488     deps_format.obj
 0002:00005498       ??_C@_13CGOKJPIL@?$AA?1@   0000000180033498     deps_format.obj
 0002:000054a0       ??_C@_17CPBIGFB@?$AA?4?$AAn?$AAi@ 00000001800334a0     deps_format.obj
 0002:000054b0       ??_C@_1PK@CJGKIBJL@?$AAT?$AAh?$AAe?$AA?5?$AAt?$AAa?$AAr?$AAg?$AAe?$AAt?$AAe?$AAd?$AA?5?$AAf?$AAr@ 00000001800334b0     deps_format.obj
 0002:000055b0       ??_C@_1FC@FIINNLON@?$AAA?$AAd?$AAd?$AAe?$AAd?$AA?5?$AA?$CF?$AAs?$AA?5?$AA?$CF?$AAs?$AA?5?$AAd?$AAe?$AAp@ 00000001800335b0     deps_format.obj
 0002:00005608       ??_C@_1BA@IDLJMLHD@?$AAt?$AAa?$AAr?$AAg?$AAe?$AAt?$AAs@ 0000000180033608     deps_format.obj
 0002:00005620       ??_C@_1HM@LEMNPAGH@?$AAC?$AAh?$AAo?$AAs?$AAe?$AA?5?$AA?$CF?$AAs?$AA?0?$AA?5?$AAs?$AAo?$AA?5?$AAr?$AAe@ 0000000180033620     deps_format.obj
 0002:000056a0       ??_C@_1BE@EEABBMFO@?$AAa?$AAs?$AAs?$AAe?$AAt?$AAT?$AAy?$AAp?$AAe@ 00000001800336a0     deps_format.obj
 0002:000056b8       ??_C@_1BO@FHLBODBJ@?$AAr?$AAu?$AAn?$AAt?$AAi?$AAm?$AAe?$AAT?$AAa?$AAr?$AAg?$AAe?$AAt?$AAs@ 00000001800336b8     deps_format.obj
 0002:000056d8       ??_C@_1DG@CMDPDFBC@?$AAA?$AAd?$AAd?$AAi?$AAn?$AAg?$AA?5?$AA?$CF?$AAs?$AA?5?$AAa?$AAs?$AAs?$AAe?$AAt@ 00000001800336d8     deps_format.obj
 0002:00005710       ??_C@_17OPBHIILN@?$AAr?$AAi?$AAd@ 0000000180033710     deps_format.obj
 0002:00005718       ??_C@_1BC@NGMCMKBP@?$AAr?$AAu?$AAn?$AAt?$AAi?$AAm?$AAe?$AAs@ 0000000180033718     deps_format.obj
 0002:00005730       ??_C@_1FG@LPPHDACH@?$AAT?$AAh?$AAe?$AAr?$AAe?$AA?5?$AAw?$AAe?$AAr?$AAe?$AA?5?$AAn?$AAo?$AA?5?$AAr@ 0000000180033730     deps_format.obj
 0002:00005788       ??_C@_1BA@OGPHJKPF@?$AA?$CF?$AAs?$AA?5?$AA?$DN?$AA?$DO?$AA?5?$AA?$FL@ 0000000180033788     deps_format.obj
 0002:00005798       ??_C@_1DK@EHJFEELJ@?$AAT?$AAh?$AAe?$AA?5?$AAr?$AAi?$AAd?$AA?5?$AAf?$AAa?$AAl?$AAl?$AAb?$AAa?$AAc@ 0000000180033798     deps_format.obj
 0002:000057d4       ??_C@_13OHNMPHJM@?$AA?$FN@ 00000001800337d4     deps_format.obj
 0002:000057d8       ??_C@_19EHICKDBN@?$AA?$CF?$AAs?$AA?0?$AA?5@ 00000001800337d8     deps_format.obj
 0002:000057f0       ??_C@_1LE@OMOBMAFC@?$AAC?$AAo?$AAu?$AAl?$AAd?$AA?5?$AAn?$AAo?$AAt?$AA?5?$AAl?$AAo?$AAc?$AAa?$AAt@ 00000001800337f0     deps_format.obj
 0002:000058a4       ??_C@_13EHOOFIKC@?$AA?$HN@ 00000001800338a4     deps_format.obj
 0002:000058a8       ??_C@_1BM@IEHEICNM@?$AAr?$AAu?$AAn?$AAt?$AAi?$AAm?$AAe?$AAT?$AAa?$AAr?$AAg?$AAe?$AAt@ 00000001800338a8     deps_format.obj
 0002:000058d0       ??_C@_1FO@JNBCOELJ@?$AAC?$AAo?$AAu?$AAl?$AAd?$AA?5?$AAn?$AAo?$AAt?$AA?5?$AAo?$AAp?$AAe?$AAn?$AA?5@ 00000001800338d0     deps_format.obj
 0002:00005930       ??_C@_1FC@JNIHPKHH@?$AAL?$AAo?$AAa?$AAd?$AAi?$AAn?$AAg?$AA?5?$AAd?$AAe?$AAp?$AAs?$AA?5?$AAf?$AAi@ 0000000180033930     deps_format.obj
 0002:00005988       ??_C@_19HHIIBINK@?$AAn?$AAa?$AAm?$AAe@ 0000000180033988     deps_format.obj
 0002:00005a78       ??_C@_1BC@LOFMGOCE@?$AAR?$AAe?$AAl?$AAa?$AAt?$AAi?$AAv?$AAe@ 0000000180033a78     deps_entry.obj
 0002:00005a90       ??_C@_1M@HNJDKPAA@?$AAL?$AAo?$AAc?$AAa?$AAl@ 0000000180033a90     deps_entry.obj
 0002:00005aa0       ??_C@_1DI@ICAEJJHF@?$AA?5?$AA?5?$AA?5?$AA?5?$AA?$CF?$AAs?$AA?5?$AAp?$AAa?$AAt?$AAh?$AA?5?$AAq?$AAu?$AAe@ 0000000180033aa0     deps_entry.obj
 0002:00005ae0       ??_C@_1EG@HHNMMAMM@?$AA?5?$AA?5?$AA?5?$AA?5?$AA?$CF?$AAs?$AA?5?$AAp?$AAa?$AAt?$AAh?$AA?5?$AAq?$AAu?$AAe@ 0000000180033ae0     deps_entry.obj
 0002:00005b30       ??_C@_1FM@EHJENIEC@?$AAI?$AAn?$AAv?$AAa?$AAl?$AAi?$AAd?$AA?5?$AAh?$AAa?$AAs?$AAh?$AA?5?$AA?$CF?$AAs@ 0000000180033b30     deps_entry.obj
 0002:00005b90       ??_C@_1JO@HIODNDNJ@?$AAD?$AAe?$AAt?$AAe?$AAc?$AAt?$AAe?$AAd?$AA?5?$AAa?$AA?5?$AAr?$AAe?$AAs?$AAo@ 0000000180033b90     deps_entry.obj
 0002:00005c30       ??_C@_1DM@OHPNBDJE@?$AAT?$AAh?$AAe?$AA?5?$AAh?$AAa?$AAs?$AAh?$AA?5?$AAf?$AAi?$AAl?$AAe?$AA?5?$AAi@ 0000000180033c30     deps_entry.obj
 0002:00005c70       ??_C@_1BA@PBICMLKL@?$AA?4?$AAn?$AAu?$AAp?$AAk?$AAg?$AA?4@ 0000000180033c70     deps_entry.obj
 0002:00005c80       ??_C@_1HC@JAECPBJD@?$AAT?$AAh?$AAe?$AA?5?$AAf?$AAi?$AAl?$AAe?$AA?5?$AAh?$AAa?$AAs?$AAh?$AA?5?$AA?$FL@ 0000000180033c80     deps_entry.obj
 0002:00005d00       ??_C@_1NO@NCBCKNOM@?$AAp?$AAr?$AAo?$AAb?$AAe?$AA_?$AAc?$AAo?$AAn?$AAf?$AAi?$AAg?$AA_?$AAt?$AA?3@ 0000000180033d00     deps_resolver.obj
 0002:00005de0       ??_C@_1CM@DCIJJIHM@?$AAA?$AAd?$AAd?$AAi?$AAn?$AAg?$AA?5?$AAt?$AAo?$AA?5?$AA?$CF?$AAs?$AA?5?$AAp?$AAa@ 0000000180033de0     deps_resolver.obj
 0002:00005e10       ??_C@_1CK@JMHMODCI@?$AAA?$AAd?$AAd?$AAi?$AAn?$AAg?$AA?5?$AAt?$AAp?$AAa?$AA?5?$AAe?$AAn?$AAt?$AAr@ 0000000180033e10     deps_resolver.obj
 0002:00005e40       ??_C@_1BA@NNLHKPPE@?$AA?4?$AAn?$AAi?$AA?4?$AAd?$AAl?$AAl@ 0000000180033e40     deps_resolver.obj
 0002:00005e50       ??_C@_1DI@INEGPHNL@?$AAA?$AAd?$AAd?$AAi?$AAn?$AAg?$AA?5?$AAf?$AAi?$AAl?$AAe?$AAs?$AA?5?$AAf?$AAr@ 0000000180033e50     deps_resolver.obj
 0002:00005e90       ??_C@_1HG@KIAAMJMM@?$AAS?$AAk?$AAi?$AAp?$AAp?$AAi?$AAn?$AAg?$AA?5?$AA?$CF?$AAs?$AA?5?$AAb?$AAe?$AAc@ 0000000180033e90     deps_resolver.obj
 0002:00005f08       ??_C@_1BA@PEFCKAGN@?$AA?4?$AAn?$AAi?$AA?4?$AAe?$AAx?$AAe@ 0000000180033f08     deps_resolver.obj
 0002:00005f20       ??_C@_1GC@HFPFCOLM@?$AAA?$AAt?$AAt?$AAe?$AAm?$AAp?$AAt?$AAi?$AAn?$AAg?$AA?5?$AAa?$AA?5?$AAr?$AAo@ 0000000180033f20     deps_resolver.obj
 0002:00005f90       ??_C@_1EK@PHKDDHAO@?$AAA?$AAd?$AAd?$AAi?$AAn?$AAg?$AA?5?$AA?$CF?$AAs?$AA?5?$AAt?$AAo?$AA?5?$AA?$CF?$AAs@ 0000000180033f90     deps_resolver.obj
 0002:00005fe0       ??_C@_1FO@JAFLLKL@?$AAF?$AAo?$AAu?$AAn?$AAd?$AA?5?$AAc?$AAa?$AAc?$AAh?$AAe?$AAd?$AA?5?$AAr?$AAo@ 0000000180033fe0     deps_resolver.obj
 0002:00006040       ??_C@_1HM@CMMMBPHE@?$AAN?$AAo?$AA?5?$AAr?$AAo?$AAl?$AAl?$AA?5?$AAf?$AAo?$AAr?$AAw?$AAa?$AAr?$AAd@ 0000000180034040     deps_resolver.obj
 0002:000060c0       ??_C@_1GE@PKGAIFJJ@?$AA?5?$AA?5?$AAC?$AAo?$AAn?$AAs?$AAi?$AAd?$AAe?$AAr?$AAi?$AAn?$AAg?$AA?5?$AAe@ 00000001800340c0     deps_resolver.obj
 0002:00006130       ??_C@_1EG@BHCMBKBC@?$AA?9?$AA?9?$AA?5?$AAL?$AAi?$AAs?$AAt?$AAi?$AAn?$AAg?$AA?5?$AAp?$AAr?$AAo?$AAb@ 0000000180034130     deps_resolver.obj
 0002:00006180       ??_C@_1EE@BOAJHEOM@?$AA?5?$AA?5?$AA?5?$AA?5?$AAS?$AAk?$AAi?$AAp?$AAp?$AAi?$AAn?$AAg?$AA?4?$AA?4?$AA?4@ 0000000180034180     deps_resolver.obj
 0002:000061d0       ??_C@_1EM@NEHBKAPM@?$AA?5?$AA?5?$AA?5?$AA?5?$AAS?$AAk?$AAi?$AAp?$AAp?$AAi?$AAn?$AAg?$AA?4?$AA?4?$AA?4@ 00000001800341d0     deps_resolver.obj
 0002:00006220       ??_C@_1DE@EJMLPMAF@?$AA?$CB?$AAc?$AAo?$AAn?$AAf?$AAi?$AAg?$AA?4?$AAi?$AAs?$AA_?$AAr?$AAo?$AAl?$AAl@ 0000000180034220     deps_resolver.obj
 0002:00006260       ??_C@_1JA@DPOBCBFK@?$AAe?$AA?3?$AA?2?$AAb?$AAs?$AAh?$AA?2?$AAn?$AAo?$AAd?$AAe?$AA_?$AAm?$AAo?$AAd@ 0000000180034260     deps_resolver.obj
 0002:000062f0       ??_C@_1EE@JNEFANKJ@?$AA?5?$AA?5?$AA?5?$AA?5?$AAS?$AAk?$AAi?$AAp?$AAp?$AAi?$AAn?$AAg?$AA?4?$AA?4?$AA?4@ 00000001800342f0     deps_resolver.obj
 0002:00006338       ??_C@_1DE@GGCBALEE@?$AA?5?$AA?5?$AA?5?$AA?5?$AAM?$AAa?$AAt?$AAc?$AAh?$AAe?$AAd?$AA?5?$AAh?$AAa?$AAs@ 0000000180034338     deps_resolver.obj
 0002:00006370       ??_C@_1FE@KOJBALOF@?$AA?5?$AA?5?$AA?5?$AA?5?$AAS?$AAk?$AAi?$AAp?$AAp?$AAi?$AAn?$AAg?$AA?4?$AA?4?$AA?4@ 0000000180034370     deps_resolver.obj
 0002:000063d0       ??_C@_1EM@GOAHMHGI@?$AA?5?$AA?5?$AA?5?$AA?5?$AAP?$AAr?$AAo?$AAb?$AAe?$AAd?$AA?5?$AAd?$AAe?$AAp?$AAs@ 00000001800343d0     deps_resolver.obj
 0002:00006420       ??_C@_1EO@EMHPMKAG@?$AA?5?$AA?5?$AA?5?$AA?5?$AAS?$AAk?$AAi?$AAp?$AAp?$AAi?$AAn?$AAg?$AA?4?$AA?4?$AA?4@ 0000000180034420     deps_resolver.obj
 0002:00006470       ??_C@_1FI@DPHHFEN@?$AA?5?$AA?5?$AA?5?$AA?5?$AAS?$AAp?$AAe?$AAc?$AAi?$AAf?$AAi?$AAe?$AAd?$AA?5?$AAn@ 0000000180034470     deps_resolver.obj
 0002:000064d0       ??_C@_1HM@FFNCAIIC@?$AA?5?$AA?5?$AA?5?$AA?5?$AAS?$AAk?$AAi?$AAp?$AAp?$AAi?$AAn?$AAg?$AA?4?$AA?4?$AA?4@ 00000001800344d0     deps_resolver.obj
 0002:00006550       ??_C@_1FC@LHKPKHIF@?$AA?5?$AA?5?$AA?5?$AA?5?$AAS?$AAp?$AAe?$AAc?$AAi?$AAf?$AAi?$AAe?$AAd?$AA?5?$AAr@ 0000000180034550     deps_resolver.obj
 0002:000065a8       ??_C@_19IAONFFAM@?$AA?1?$AA_?$AA?4?$AA_@ 00000001800345a8     deps_resolver.obj
 0002:000065b4       ??_C@_13DEFPDAGF@?$AA?0@   00000001800345b4     deps_resolver.obj
 0002:000065c0       ??_C@_1BC@BLHMOICC@?$AAm?$AAs?$AAc?$AAo?$AAr?$AAl?$AAi?$AAb@ 00000001800345c0     deps_resolver.obj
 0002:000065e0       ??_C@_1FG@MNPENDLO@?$AAP?$AAr?$AAo?$AAc?$AAe?$AAs?$AAs?$AAi?$AAn?$AAg?$AA?5?$AAT?$AAP?$AAA?$AA?5@ 00000001800345e0     deps_resolver.obj
 0002:00006638       ??_C@_1M@GFKCHEPI@?$AAl?$AAo?$AAc?$AAa?$AAl@ 0000000180034638     deps_resolver.obj
 0002:00006650       ??_C@_1OC@FFEMONHI@?$AAE?$AAr?$AAr?$AAo?$AAr?$AA?3?$AA?5?$AAa?$AAs?$AAs?$AAe?$AAm?$AAb?$AAl?$AAy@ 0000000180034650     deps_resolver.obj
 0002:00006740       ??_C@_1GM@JIGGGCLI@?$AAP?$AAr?$AAo?$AAc?$AAe?$AAs?$AAs?$AAi?$AAn?$AAg?$AA?5?$AAn?$AAa?$AAt?$AAi@ 0000000180034740     deps_resolver.obj
 0002:000067b0       ??_C@_1BG@NPDHIHJH@?$AAc?$AAl?$AAr?$AAj?$AAi?$AAt?$AA?4?$AAd?$AAl?$AAl@ 00000001800347b0     deps_resolver.obj
 0002:000067d0       ??_C@_1OG@IFBCLPMB@?$AAW?$AAa?$AAr?$AAn?$AAi?$AAn?$AAg?$AA?3?$AA?5?$AAa?$AAs?$AAs?$AAe?$AAm?$AAb@ 00000001800347d0     deps_resolver.obj
 0002:000068b8       ??_C@_1DM@IGJEFBGN@?$AA?4?$AAM?$AAi?$AAc?$AAr?$AAo?$AAs?$AAo?$AAf?$AAt?$AA?4?$AAN?$AAE?$AAT?$AAC@ 00000001800348b8     deps_resolver.obj
 0002:00006900       ??_C@_1IA@PGBDMGGO@?$AAi?$AAs?$AA_?$AAr?$AAe?$AAs?$AAo?$AAu?$AAr?$AAc?$AAe?$AAs?$AA?5?$AA?$HM?$AA?$HM@ 0000000180034900     deps_resolver.obj
 0002:00006980       ??_C@_1EE@GNAAIHFE@?$AAM?$AAi?$AAc?$AAr?$AAo?$AAs?$AAo?$AAf?$AAt?$AA?4?$AAN?$AAE?$AAT?$AAC?$AAo@ 0000000180034980     deps_resolver.obj
 0002:00006a38       ??_C@_1CK@MGIKNGHE@?$AAg?$AA_?$AAc?$AAo?$AAr?$AAe?$AAc?$AAl?$AAr?$AA?5?$AA?$DN?$AA?$DN?$AA?5?$AAn?$AAu@ 0000000180034a38     coreclr.obj
 0002:00006a70       ??_C@_1IE@KKFLPPCP@?$AAe?$AA?3?$AA?2?$AAb?$AAs?$AAh?$AA?2?$AAn?$AAo?$AAd?$AAe?$AA_?$AAm?$AAo?$AAd@ 0000000180034a70     coreclr.obj
 0002:00006af8       ??_C@_0BB@DGKEDJID@coreclr_shutdown@ 0000000180034af8     coreclr.obj
 0002:00006b10       ??_C@_0BD@NEMOMELH@coreclr_initialize@ 0000000180034b10     coreclr.obj
 0002:00006b28       ??_C@_0BI@IIHBMDHD@coreclr_create_delegate@ 0000000180034b28     coreclr.obj
 0002:00006b40       ??_C@_0BJ@JLIPOMIL@coreclr_execute_assembly@ 0000000180034b40     coreclr.obj
 0002:00006b60       ??_C@_1GM@JAECAJKE@?$AAg?$AA_?$AAc?$AAo?$AAr?$AAe?$AAc?$AAl?$AAr?$AA?5?$AA?$CB?$AA?$DN?$AA?5?$AAn?$AAu@ 0000000180034b60     coreclr.obj
 0002:00006bd0       ??_C@_1CI@BIGIEGKG@?$AA?4?$AAr?$AAu?$AAn?$AAt?$AAi?$AAm?$AAe?$AAc?$AAo?$AAn?$AAf?$AAi?$AAg?$AA?4@ 0000000180034bd0     libhost.obj
 0002:00006c00       ??_C@_1EA@CGCMBHMM@?$AAR?$AAu?$AAn?$AAt?$AAi?$AAm?$AAe?$AA?5?$AAc?$AAo?$AAn?$AAf?$AAi?$AAg?$AA?5@ 0000000180034c00     libhost.obj
 0002:00006c40       ??_C@_1DA@GNJDPBGG@?$AA?4?$AAr?$AAu?$AAn?$AAt?$AAi?$AAm?$AAe?$AAc?$AAo?$AAn?$AAf?$AAi?$AAg?$AA?4@ 0000000180034c40     libhost.obj
 0002:00006c70       ??_C@_1IG@EMAILNGL@?$AAR?$AAe?$AAa?$AAd?$AAi?$AAn?$AAg?$AA?5?$AAp?$AAa?$AAt?$AAc?$AAh?$AA?5?$AAr@ 0000000180034c70     libhost.obj
 0002:00006d00       ??_C@_1FE@BBLLAGFM@?$AAP?$AAa?$AAt?$AAc?$AAh?$AA?5?$AAr?$AAo?$AAl?$AAl?$AA?5?$AAf?$AAo?$AAr?$AAw@ 0000000180034d00     libhost.obj
 0002:00006d60       ??_C@_1GM@CEDECNNH@?$AAC?$AAo?$AAn?$AAs?$AAi?$AAd?$AAe?$AAr?$AAi?$AAn?$AAg?$AA?5?$AAp?$AAa?$AAt@ 0000000180034d60     libhost.obj
 0002:00006dd0       ??_C@_1HG@IGGPEAKI@?$AAC?$AAo?$AAn?$AAs?$AAi?$AAd?$AAe?$AAr?$AAi?$AAn?$AAg?$AA?5?$AAp?$AAr?$AAe@ 0000000180034dd0     libhost.obj
 0002:00006e50       ??_C@_1JA@NILHPNEA@?$AAR?$AAe?$AAa?$AAd?$AAi?$AAn?$AAg?$AA?5?$AAp?$AAr?$AAe?$AAr?$AAe?$AAl?$AAe@ 0000000180034e50     libhost.obj
 0002:00006ee0       ??_C@_1FO@FMCIIHMM@?$AAP?$AAr?$AAe?$AAr?$AAe?$AAl?$AAe?$AAa?$AAs?$AAe?$AA?5?$AAr?$AAo?$AAl?$AAl@ 0000000180034ee0     libhost.obj
 0002:00006f40       ??_C@_1EE@GBNKOCFJ@?$AAR?$AAu?$AAn?$AAt?$AAi?$AAm?$AAe?$AA?5?$AAc?$AAo?$AAn?$AAf?$AAi?$AAg?$AA?5@ 0000000180034f40     runtime_config.obj
 0002:00006f88       ??_C@_1CO@IALOKKFN@?$AAa?$AAd?$AAd?$AAi?$AAt?$AAi?$AAo?$AAn?$AAa?$AAl?$AAP?$AAr?$AAo?$AAb?$AAi@ 0000000180034f88     runtime_config.obj
 0002:00006fb8       ??_C@_1CC@GFEPEAPE@?$AAc?$AAo?$AAn?$AAf?$AAi?$AAg?$AAP?$AAr?$AAo?$AAp?$AAe?$AAr?$AAt?$AAi?$AAe@ 0000000180034fb8     runtime_config.obj
 0002:00006fe0       ??_C@_1CM@PINHPNE@?$AAp?$AAr?$AAe?$AAR?$AAe?$AAl?$AAe?$AAa?$AAs?$AAe?$AAR?$AAo?$AAl?$AAl?$AAF@ 0000000180034fe0     runtime_config.obj
 0002:00007010       ??_C@_1BK@JLLFHIHK@?$AAa?$AAp?$AAp?$AAl?$AAy?$AAP?$AAa?$AAt?$AAc?$AAh?$AAe?$AAs@ 0000000180035010     runtime_config.obj
 0002:00007030       ??_C@_1FE@NDPGCKCC@?$AAA?$AAt?$AAt?$AAe?$AAm?$AAp?$AAt?$AAi?$AAn?$AAg?$AA?5?$AAt?$AAo?$AA?5?$AAr@ 0000000180035030     runtime_config.obj
 0002:00007088       ??_C@_1BE@DMNNPODD@?$AAf?$AAr?$AAa?$AAm?$AAe?$AAw?$AAo?$AAr?$AAk@ 0000000180035088     runtime_config.obj
 0002:000070a0       ??_C@_1BO@NCIJIDEG@?$AAr?$AAu?$AAn?$AAt?$AAi?$AAm?$AAe?$AAO?$AAp?$AAt?$AAi?$AAo?$AAn?$AAs@ 00000001800350a0     runtime_config.obj
 0002:000070c0       ??_C@_1DA@CBLCIAMP@?$AAF?$AAi?$AAl?$AAe?$AA?5?$AAs?$AAt?$AAr?$AAe?$AAa?$AAm?$AA?5?$AAn?$AAo?$AAt@ 00000001800350c0     runtime_config.obj
 0002:000070f0       ??_C@_1GM@DICMCJDF@?$AAD?$AAi?$AAd?$AA?5?$AAn?$AAo?$AAt?$AA?5?$AAs?$AAu?$AAc?$AAc?$AAe?$AAs?$AAs@ 00000001800350f0     runtime_config.obj
 0002:00007160       ??_C@_1EM@NGDNEJEF@?$AAA?$AAt?$AAt?$AAe?$AAm?$AAp?$AAt?$AAi?$AAn?$AAg?$AA?5?$AAt?$AAo?$AA?5?$AAr@ 0000000180035160     runtime_config.obj
 0002:000071b0       ??_C@_1BA@LLHJMEHH@?$AAm?$AA_?$AAv?$AAa?$AAl?$AAi?$AAd@ 00000001800351b0     runtime_config.obj
 0002:000071c0       ??_C@_1JC@MBENDBOA@?$AAe?$AA?3?$AA?2?$AAb?$AAs?$AAh?$AA?2?$AAn?$AAo?$AAd?$AAe?$AA_?$AAm?$AAo?$AAd@ 00000001800351c0     runtime_config.obj
 0002:00007258       ??_C@_1CA@PJDGBGEG@?$AAS?$AAe?$AAt?$AAt?$AAi?$AAn?$AAg?$AA?5?$AAP?$AAA?$AAT?$AAH?$AA?$DN?$AA?$CF?$AAs@ 0000000180035258     pal.windows.obj
 0002:00007278       ??_C@_1CK@JFDNHCJI@?$AAr?$AAe?$AAs?$AAu?$AAl?$AAt?$AA?5?$AA?$DM?$AA?$DN?$AA?5?$AAs?$AAt?$AAr?$AA?4?$AAs@ 0000000180035278     pal.windows.obj
 0002:000072b0       ??_C@_1IK@CGGANBJM@?$AAe?$AA?3?$AA?2?$AAb?$AAs?$AAh?$AA?2?$AAn?$AAo?$AAd?$AAe?$AA_?$AAm?$AAo?$AAd@ 00000001800352b0     pal.windows.obj
 0002:00007340       ??_C@_1GE@IGNADPON@?$AAF?$AAa?$AAi?$AAl?$AAe?$AAd?$AA?5?$AAt?$AAo?$AA?5?$AAo?$AAb?$AAt?$AAa?$AAi@ 0000000180035340     pal.windows.obj
 0002:000073a8       ??_C@_1CE@BHIJJHLH@?$AAp?$AAa?$AAl?$AA?3?$AA?3?$AAl?$AAo?$AAa?$AAd?$AA_?$AAl?$AAi?$AAb?$AAr?$AAa@ 00000001800353a8     pal.windows.obj
 0002:000073d0       ??_C@_1GA@INCEJPHP@?$AAF?$AAa?$AAi?$AAl?$AAe?$AAd?$AA?5?$AAt?$AAo?$AA?5?$AAl?$AAo?$AAa?$AAd?$AA?5@ 00000001800353d0     pal.windows.obj
 0002:00007430       ??_C@_1CO@FBBMJJLK@?$AAL?$AAo?$AAa?$AAd?$AAe?$AAd?$AA?5?$AAl?$AAi?$AAb?$AAr?$AAa?$AAr?$AAy?$AA?5@ 0000000180035430     pal.windows.obj
 0002:00007460       ??_C@_1EG@FJOKPLAF@?$AAF?$AAa?$AAi?$AAl?$AAe?$AAd?$AA?5?$AAt?$AAo?$AA?5?$AAp?$AAi?$AAn?$AA?5?$AAl@ 0000000180035460     pal.windows.obj
 0002:000074b0       ??_C@_1HA@ICALBJIL@?$AAF?$AAa?$AAi?$AAl?$AAe?$AAd?$AA?5?$AAt?$AAo?$AA?5?$AAr?$AAe?$AAa?$AAd?$AA?5@ 00000001800354b0     pal.windows.obj
 0002:00007520       ??_C@_13BBDEGPLJ@?$AA?$CK@ 0000000180035520     pal.windows.obj
 0002:00007528       ??_C@_1CA@FDCOCBNE@?$AAl?$AAi?$AAs?$AAt?$AA?5?$AA?$CB?$AA?$DN?$AA?5?$AAn?$AAu?$AAl?$AAl?$AAp?$AAt?$AAr@ 0000000180035528     pal.windows.obj
 0002:00007570       __real@3f800000            0000000180035570     deps_resolver.obj
 0002:00007578       __real@3fe6666666666666    0000000180035578     asyncrt_utils.obj
 0002:00007580       __real@43e0000000000000    0000000180035580     asyncrt_utils.obj
 0002:00007588       __real@43f0000000000000    0000000180035588     json.obj
 0002:00007590       __real@5f800000            0000000180035590     deps_resolver.obj
 0002:000075a0       __xmm@00000000000000070000000000000000 00000001800355a0     json_parsing.obj
 0002:000075b0       __xmm@000000000000000f0000000000000000 00000001800355b0     deps_entry.obj
 0002:000075c0       __xmm@80000000000000008000000000000000 00000001800355c0     json_parsing.obj
 0002:00008df0       _load_config_used          0000000180036df0     MSVCRT:loadcfg.obj
 0002:00008ef0       _tls_used                  0000000180036ef0     MSVCRT:tlssup.obj
 0002:00008f20       ??_R4type_info@@6B@        0000000180036f20     MSVCRT:std_type_info_static.obj
 0002:00008f48       ??_R3type_info@@8          0000000180036f48     MSVCRT:std_type_info_static.obj
 0002:00008f60       ??_R2type_info@@8          0000000180036f60     MSVCRT:std_type_info_static.obj
 0002:00008f70       ??_R1A@?0A@EA@type_info@@8 0000000180036f70     MSVCRT:std_type_info_static.obj
 0002:00008f98       ??_R4bad_alloc@std@@6B@    0000000180036f98     MSVCRT:throw_bad_alloc.obj
 0002:00008fc0       ??_R3bad_alloc@std@@8      0000000180036fc0     MSVCRT:throw_bad_alloc.obj
 0002:00008fd8       ??_R2bad_alloc@std@@8      0000000180036fd8     MSVCRT:throw_bad_alloc.obj
 0002:00008ff0       ??_R1A@?0A@EA@bad_alloc@std@@8 0000000180036ff0     MSVCRT:throw_bad_alloc.obj
 0002:00009018       ??_R4bad_array_new_length@std@@6B@ 0000000180037018     MSVCRT:throw_bad_alloc.obj
 0002:00009040       ??_R3bad_array_new_length@std@@8 0000000180037040     MSVCRT:throw_bad_alloc.obj
 0002:00009058       ??_R2bad_array_new_length@std@@8 0000000180037058     MSVCRT:throw_bad_alloc.obj
 0002:00009078       ??_R1A@?0A@EA@bad_array_new_length@std@@8 0000000180037078     MSVCRT:throw_bad_alloc.obj
 0002:000090a0       ??_R2?$basic_streambuf@_WU?$char_traits@_W@std@@@std@@8 00000001800370a0     fx_ver.obj
 0002:000090b0       ??_R4?$basic_stringbuf@_WU?$char_traits@_W@std@@V?$allocator@_W@2@@std@@6B@ 00000001800370b0     fx_ver.obj
 0002:000090d8       ??_R3?$basic_stringstream@_WU?$char_traits@_W@std@@V?$allocator@_W@2@@std@@8 00000001800370d8     fx_ver.obj
 0002:000090f0       ??_R2?$basic_ostream@_WU?$char_traits@_W@std@@@std@@8 00000001800370f0     fx_ver.obj
 0002:00009118       ??_R3?$basic_iostream@_WU?$char_traits@_W@std@@@std@@8 0000000180037118     fx_ver.obj
 0002:00009130       ??_R17A@3EA@?$_Iosb@H@std@@8 0000000180037130     fx_ver.obj
 0002:00009160       ??_R2?$basic_stringstream@_WU?$char_traits@_W@std@@V?$allocator@_W@2@@std@@8 0000000180037160     fx_ver.obj
 0002:000091b8       ??_R1A@?0A@EA@?$basic_stringbuf@_WU?$char_traits@_W@std@@V?$allocator@_W@2@@std@@8 00000001800371b8     fx_ver.obj
 0002:000091e0       ??_R1A@?0A@EA@?$basic_stringstream@_WU?$char_traits@_W@std@@V?$allocator@_W@2@@std@@8 00000001800371e0     fx_ver.obj
 0002:00009210       ??_R2?$basic_iostream@_WU?$char_traits@_W@std@@@std@@8 0000000180037210     fx_ver.obj
 0002:00009260       ??_R1A@?0A@EA@?$basic_istream@_WU?$char_traits@_W@std@@@std@@8 0000000180037260     fx_ver.obj
 0002:00009288       ??_R4?$basic_stringstream@_WU?$char_traits@_W@std@@V?$allocator@_W@2@@std@@6B@ 0000000180037288     fx_ver.obj
 0002:000092b0       ??_R2?$basic_ios@_WU?$char_traits@_W@std@@@std@@8 00000001800372b0     fx_ver.obj
 0002:000092d0       ??_R3?$basic_stringbuf@_WU?$char_traits@_W@std@@V?$allocator@_W@2@@std@@8 00000001800372d0     fx_ver.obj
 0002:000092e8       ??_R1A@?0A@EA@?$basic_iostream@_WU?$char_traits@_W@std@@@std@@8 00000001800372e8     fx_ver.obj
 0002:00009310       ??_R3?$basic_ios@_WU?$char_traits@_W@std@@@std@@8 0000000180037310     fx_ver.obj
 0002:00009328       ??_R1A@?0A@EA@ios_base@std@@8 0000000180037328     fx_ver.obj
 0002:00009350       ??_R2?$basic_stringbuf@_WU?$char_traits@_W@std@@V?$allocator@_W@2@@std@@8 0000000180037350     fx_ver.obj
 0002:00009368       ??_R1A@?0A@EA@?$_Iosb@H@std@@8 0000000180037368     fx_ver.obj
 0002:00009390       ??_R1A@?0A@EA@?$basic_streambuf@_WU?$char_traits@_W@std@@@std@@8 0000000180037390     fx_ver.obj
 0002:000093b8       ??_R3?$basic_istream@_WU?$char_traits@_W@std@@@std@@8 00000001800373b8     fx_ver.obj
 0002:000093d0       ??_R1BA@?0A@EA@?$basic_ostream@_WU?$char_traits@_W@std@@@std@@8 00000001800373d0     fx_ver.obj
 0002:000093f8       ??_R2?$basic_istream@_WU?$char_traits@_W@std@@@std@@8 00000001800373f8     fx_ver.obj
 0002:00009420       ??_R1A@?0A@EA@?$basic_ostream@_WU?$char_traits@_W@std@@@std@@8 0000000180037420     fx_ver.obj
 0002:00009448       ??_R2ios_base@std@@8       0000000180037448     fx_ver.obj
 0002:00009460       ??_R3?$basic_streambuf@_WU?$char_traits@_W@std@@@std@@8 0000000180037460     fx_ver.obj
 0002:00009478       ??_R1A@A@3FA@?$basic_ios@_WU?$char_traits@_W@std@@@std@@8 0000000180037478     fx_ver.obj
 0002:000094a0       ??_R3ios_base@std@@8       00000001800374a0     fx_ver.obj
 0002:000094b8       ??_R1A@?0A@EA@?$basic_ios@_WU?$char_traits@_W@std@@@std@@8 00000001800374b8     fx_ver.obj
 0002:000094e0       ??_R2?$_Iosb@H@std@@8      00000001800374e0     fx_ver.obj
 0002:000094f0       ??_R1A@A@3EA@ios_base@std@@8 00000001800374f0     fx_ver.obj
 0002:00009518       ??_R3?$_Iosb@H@std@@8      0000000180037518     fx_ver.obj
 0002:00009530       ??_R17?0A@EA@?$_Iosb@H@std@@8 0000000180037530     fx_ver.obj
 0002:00009558       ??_R3?$basic_ostream@_WU?$char_traits@_W@std@@@std@@8 0000000180037558     fx_ver.obj
 0002:00009570       ??_R3?$basic_istream@DU?$char_traits@D@std@@@std@@8 0000000180037570     fx_muxer.obj
 0002:00009588       ??_R4exception@std@@6B@    0000000180037588     fx_muxer.obj
 0002:000095b0       ??_R1A@?0A@EA@?$basic_istream@DU?$char_traits@D@std@@@std@@8 00000001800375b0     fx_muxer.obj
 0002:000095d8       ??_R4json_exception@json@web@@6B@ 00000001800375d8     fx_muxer.obj
 0002:00009600       ??_R1A@?0A@EA@bad_cast@std@@8 0000000180037600     fx_muxer.obj
 0002:00009628       ??_R3?$basic_ifstream@DU?$char_traits@D@std@@@std@@8 0000000180037628     fx_muxer.obj
 0002:00009640       ??_R1A@?0A@EA@?$basic_ifstream@DU?$char_traits@D@std@@@std@@8 0000000180037640     fx_muxer.obj
 0002:00009668       ??_R1A@?0A@EA@exception@std@@8 0000000180037668     fx_muxer.obj
 0002:00009690       ??_R1A@?0A@EA@?$basic_streambuf@DU?$char_traits@D@std@@@std@@8 0000000180037690     fx_muxer.obj
 0002:000096b8       ??_R2?$basic_istream@DU?$char_traits@D@std@@@std@@8 00000001800376b8     fx_muxer.obj
 0002:000096e0       ??_R2bad_cast@std@@8       00000001800376e0     fx_muxer.obj
 0002:000096f8       ??_R2exception@std@@8      00000001800376f8     fx_muxer.obj
 0002:00009708       ??_R3?$basic_ios@DU?$char_traits@D@std@@@std@@8 0000000180037708     fx_muxer.obj
 0002:00009720       ??_R2json_exception@json@web@@8 0000000180037720     fx_muxer.obj
 0002:00009738       ??_R4?$basic_ifstream@DU?$char_traits@D@std@@@std@@6B@ 0000000180037738     fx_muxer.obj
 0002:00009760       ??_R3exception@std@@8      0000000180037760     fx_muxer.obj
 0002:00009778       ??_R4?$basic_filebuf@DU?$char_traits@D@std@@@std@@6B@ 0000000180037778     fx_muxer.obj
 0002:000097a0       ??_R2?$basic_streambuf@DU?$char_traits@D@std@@@std@@8 00000001800377a0     fx_muxer.obj
 0002:000097b0       ??_R1A@?0A@EA@json_exception@json@web@@8 00000001800377b0     fx_muxer.obj
 0002:000097d8       ??_R3bad_cast@std@@8       00000001800377d8     fx_muxer.obj
 0002:000097f0       ??_R4bad_cast@std@@6B@     00000001800377f0     fx_muxer.obj
 0002:00009818       ??_R3json_exception@json@web@@8 0000000180037818     fx_muxer.obj
 0002:00009830       ??_R1A@?0A@EA@?$basic_filebuf@DU?$char_traits@D@std@@@std@@8 0000000180037830     fx_muxer.obj
 0002:00009858       ??_R1A@A@3FA@?$basic_ios@DU?$char_traits@D@std@@@std@@8 0000000180037858     fx_muxer.obj
 0002:00009880       ??_R3?$basic_filebuf@DU?$char_traits@D@std@@@std@@8 0000000180037880     fx_muxer.obj
 0002:00009898       ??_R2?$basic_filebuf@DU?$char_traits@D@std@@@std@@8 0000000180037898     fx_muxer.obj
 0002:000098b0       ??_R3?$basic_streambuf@DU?$char_traits@D@std@@@std@@8 00000001800378b0     fx_muxer.obj
 0002:000098c8       ??_R1A@?0A@EA@?$basic_ios@DU?$char_traits@D@std@@@std@@8 00000001800378c8     fx_muxer.obj
 0002:000098f0       ??_R2?$basic_ifstream@DU?$char_traits@D@std@@@std@@8 00000001800378f0     fx_muxer.obj
 0002:00009920       ??_R2?$basic_ios@DU?$char_traits@D@std@@@std@@8 0000000180037920     fx_muxer.obj
 0002:00009940       ??_R2_Boolean@details@json@web@@8 0000000180037940     json.obj
 0002:00009958       ??_R3_Value@details@json@web@@8 0000000180037958     json.obj
 0002:00009970       ??_R3json_error_category_impl@details@json@web@@8 0000000180037970     json.obj
 0002:00009988       ??_R3_Null@details@json@web@@8 0000000180037988     json.obj
 0002:000099a0       ??_R1A@?0A@EA@_Object@details@json@web@@8 00000001800379a0     json.obj
 0002:000099c8       ??_R1A@?0A@EA@json_error_category_impl@details@json@web@@8 00000001800379c8     json.obj
 0002:000099f0       ??_R3_Number@details@json@web@@8 00000001800379f0     json.obj
 0002:00009a08       ??_R3_Array@details@json@web@@8 0000000180037a08     json.obj
 0002:00009a20       ??_R1A@?0A@EA@_Array@details@json@web@@8 0000000180037a20     json.obj
 0002:00009a48       ??_R1A@?0A@EA@_Boolean@details@json@web@@8 0000000180037a48     json.obj
 0002:00009a70       ??_R1A@?0A@EA@_Number@details@json@web@@8 0000000180037a70     json.obj
 0002:00009a98       ??_R4_Array@details@json@web@@6B@ 0000000180037a98     json.obj
 0002:00009ac0       ??_R4_String@details@json@web@@6B@ 0000000180037ac0     json.obj
 0002:00009ae8       ??_R2_Null@details@json@web@@8 0000000180037ae8     json.obj
 0002:00009b00       ??_R3_Object@details@json@web@@8 0000000180037b00     json.obj
 0002:00009b18       ??_R2json_error_category_impl@details@json@web@@8 0000000180037b18     json.obj
 0002:00009b30       ??_R4json_error_category_impl@details@json@web@@6B@ 0000000180037b30     json.obj
 0002:00009b58       ??_R2_String@details@json@web@@8 0000000180037b58     json.obj
 0002:00009b70       ??_R2error_category@std@@8 0000000180037b70     json.obj
 0002:00009b80       ??_R4_Value@details@json@web@@6B@ 0000000180037b80     json.obj
 0002:00009ba8       ??_R4_Null@details@json@web@@6B@ 0000000180037ba8     json.obj
 0002:00009bd0       ??_R1A@?0A@EA@_String@details@json@web@@8 0000000180037bd0     json.obj
 0002:00009bf8       ??_R2_Number@details@json@web@@8 0000000180037bf8     json.obj
 0002:00009c10       ??_R4_Number@details@json@web@@6B@ 0000000180037c10     json.obj
 0002:00009c38       ??_R1A@?0A@EA@_Value@details@json@web@@8 0000000180037c38     json.obj
 0002:00009c60       ??_R4_Object@details@json@web@@6B@ 0000000180037c60     json.obj
 0002:00009c88       ??_R3_Boolean@details@json@web@@8 0000000180037c88     json.obj
 0002:00009ca0       ??_R3error_category@std@@8 0000000180037ca0     json.obj
 0002:00009cb8       ??_R3_String@details@json@web@@8 0000000180037cb8     json.obj
 0002:00009cd0       ??_R2_Value@details@json@web@@8 0000000180037cd0     json.obj
 0002:00009ce0       ??_R1A@?0A@EA@_Null@details@json@web@@8 0000000180037ce0     json.obj
 0002:00009d08       ??_R2_Object@details@json@web@@8 0000000180037d08     json.obj
 0002:00009d20       ??_R2_Array@details@json@web@@8 0000000180037d20     json.obj
 0002:00009d38       ??_R4_Boolean@details@json@web@@6B@ 0000000180037d38     json.obj
 0002:00009d60       ??_R1A@?0A@EA@error_category@std@@8 0000000180037d60     json.obj
 0002:00009d88       ??_R4?$JSON_StreamParser@D@details@json@web@@6B@ 0000000180037d88     json_parsing.obj
 0002:00009db0       ??_R4_System_error_category@std@@6B@ 0000000180037db0     json_parsing.obj
 0002:00009dd8       ??_R4_Generic_error_category@std@@6B@ 0000000180037dd8     json_parsing.obj
 0002:00009e00       ??_R1A@?0A@EA@?$basic_ostringstream@_WU?$char_traits@_W@std@@V?$allocator@_W@2@@std@@8 0000000180037e00     json_parsing.obj
 0002:00009e28       ??_R1A@?0A@EA@_Generic_error_category@std@@8 0000000180037e28     json_parsing.obj
 0002:00009e50       ??_R2_System_error_category@std@@8 0000000180037e50     json_parsing.obj
 0002:00009e68       ??_R3?$basic_ostringstream@_WU?$char_traits@_W@std@@V?$allocator@_W@2@@std@@8 0000000180037e68     json_parsing.obj
 0002:00009e80       ??_R3_Generic_error_category@std@@8 0000000180037e80     json_parsing.obj
 0002:00009e98       ??_R2?$JSON_Parser@D@details@json@web@@8 0000000180037e98     json_parsing.obj
 0002:00009ea8       ??_R3?$JSON_StreamParser@D@details@json@web@@8 0000000180037ea8     json_parsing.obj
 0002:00009ec0       ??_R2_Generic_error_category@std@@8 0000000180037ec0     json_parsing.obj
 0002:00009ed8       ??_R2?$basic_ostringstream@_WU?$char_traits@_W@std@@V?$allocator@_W@2@@std@@8 0000000180037ed8     json_parsing.obj
 0002:00009f08       ??_R3?$JSON_Parser@D@details@json@web@@8 0000000180037f08     json_parsing.obj
 0002:00009f20       ??_R3_System_error_category@std@@8 0000000180037f20     json_parsing.obj
 0002:00009f38       ??_R2?$JSON_StreamParser@D@details@json@web@@8 0000000180037f38     json_parsing.obj
 0002:00009f50       ??_R1A@?0A@EA@?$JSON_Parser@D@details@json@web@@8 0000000180037f50     json_parsing.obj
 0002:00009f78       ??_R1A@?0A@EA@?$JSON_StreamParser@D@details@json@web@@8 0000000180037f78     json_parsing.obj
 0002:00009fa0       ??_R1A@?0A@EA@_System_error_category@std@@8 0000000180037fa0     json_parsing.obj
 0002:00009fc8       ??_R4?$basic_ostringstream@_WU?$char_traits@_W@std@@V?$allocator@_W@2@@std@@6B@ 0000000180037fc8     json_parsing.obj
 0002:00009ff0       ??_R4runtime_error@std@@6B@ 0000000180037ff0     asyncrt_utils.obj
 0002:0000a018       ??_R1A@?0A@EA@runtime_error@std@@8 0000000180038018     asyncrt_utils.obj
 0002:0000a040       ??_R2range_error@std@@8    0000000180038040     asyncrt_utils.obj
 0002:0000a060       ??_R1A@?0A@EA@range_error@std@@8 0000000180038060     asyncrt_utils.obj
 0002:0000a088       ??_R2runtime_error@std@@8  0000000180038088     asyncrt_utils.obj
 0002:0000a0a0       ??_R3range_error@std@@8    00000001800380a0     asyncrt_utils.obj
 0002:0000a0b8       ??_R4range_error@std@@6B@  00000001800380b8     asyncrt_utils.obj
 0002:0000a0e0       ??_R3runtime_error@std@@8  00000001800380e0     asyncrt_utils.obj
 0002:0000a150       ??_R3?$_Func_base@AEBV?$vector@V?$basic_string@_WU?$char_traits@_W@std@@V?$allocator@_W@2@@std@@V?$allocator@V?$basic_string@_WU?$char_traits@_W@std@@V?$allocator@_W@2@@std@@@2@@std@@AEBV?$basic_string@_WU?$char_traits@_W@std@@V?$allocator@_W@2@@2@HPEA_N@std@@8 0000000180038150     deps_format.obj
 0002:0000a190       ??_R2?$_Func_base@_NAEBV?$basic_string@_WU?$char_traits@_W@std@@V?$allocator@_W@2@@std@@@std@@8 0000000180038190     deps_format.obj
 0002:0000a1f0       ??_R1A@?0A@EA@?$_Func_base@_NAEBV?$basic_string@_WU?$char_traits@_W@std@@V?$allocator@_W@2@@std@@@std@@8 00000001800381f0     deps_format.obj
 0002:0000a218       ??_R3?$_Func_base@_NAEBV?$basic_string@_WU?$char_traits@_W@std@@V?$allocator@_W@2@@std@@@std@@8 0000000180038218     deps_format.obj
 0002:0000a2a0       ??_R1A@?0A@EA@?$_Func_base@AEBV?$vector@V?$basic_string@_WU?$char_traits@_W@std@@V?$allocator@_W@2@@std@@V?$allocator@V?$basic_string@_WU?$char_traits@_W@std@@V?$allocator@_W@2@@std@@@2@@std@@AEBV?$basic_string@_WU?$char_traits@_W@std@@V?$allocator@_W@2@@2@HPEA_N@std@@8 00000001800382a0     deps_format.obj
 0002:0000a2c8       ??_R2?$_Func_base@AEBV?$vector@V?$basic_string@_WU?$char_traits@_W@std@@V?$allocator@_W@2@@std@@V?$allocator@V?$basic_string@_WU?$char_traits@_W@std@@V?$allocator@_W@2@@std@@@2@@std@@AEBV?$basic_string@_WU?$char_traits@_W@std@@V?$allocator@_W@2@@2@HPEA_N@std@@8 00000001800382c8     deps_format.obj
 0002:0000a398       ??_R1A@?0A@EA@?$_Func_base@V?$basic_string@_WU?$char_traits@_W@std@@V?$allocator@_W@2@@std@@AEBV12@@std@@8 0000000180038398     deps_resolver.obj
 0002:0000a3c0       ??_R2?$_Func_base@V?$basic_string@_WU?$char_traits@_W@std@@V?$allocator@_W@2@@std@@AEBV12@@std@@8 00000001800383c0     deps_resolver.obj
 0002:0000a410       ??_R3?$_Func_base@V?$basic_string@_WU?$char_traits@_W@std@@V?$allocator@_W@2@@std@@AEBV12@@std@@8 0000000180038410     deps_resolver.obj
 0002:0000a898       __rtc_iaa                  0000000180038898     MSVCRT:initsect.obj
 0002:0000a8a0       __rtc_izz                  00000001800388a0     MSVCRT:initsect.obj
 0002:0000a8a8       __rtc_taa                  00000001800388a8     MSVCRT:initsect.obj
 0002:0000a8b0       __rtc_tzz                  00000001800388b0     MSVCRT:initsect.obj
 0002:0000a8b8       _tls_start                 00000001800388b8     MSVCRT:tlssup.obj
 0002:0000a8bc       _Init_thread_epoch         00000001800388bc     MSVCRT:thread_safe_statics.obj
 0002:0000a8c0       _tls_end                   00000001800388c0     MSVCRT:tlssup.obj
 0002:00010570       _TI2?AVbad_alloc@std@@     000000018003e570     MSVCRT:throw_bad_alloc.obj
 0002:00010590       _CTA2?AVbad_alloc@std@@    000000018003e590     MSVCRT:throw_bad_alloc.obj
 0002:000105a8       _CT??_R0?AVbad_alloc@std@@@8??0bad_alloc@std@@QEAA@AEBV01@@Z24 000000018003e5a8     MSVCRT:throw_bad_alloc.obj
 0002:000105d0       _TI3?AVbad_array_new_length@std@@ 000000018003e5d0     MSVCRT:throw_bad_alloc.obj
 0002:000105f0       _CTA3?AVbad_array_new_length@std@@ 000000018003e5f0     MSVCRT:throw_bad_alloc.obj
 0002:00010610       _CT??_R0?AVbad_array_new_length@std@@@8??0bad_array_new_length@std@@QEAA@AEBV01@@Z24 000000018003e610     MSVCRT:throw_bad_alloc.obj
 0002:00010638       _CTA2?AVjson_exception@json@web@@ 000000018003e638     fx_muxer.obj
 0002:00010650       _CTA2?AVbad_cast@std@@     000000018003e650     fx_muxer.obj
 0002:00010668       _TI2?AVbad_cast@std@@      000000018003e668     fx_muxer.obj
 0002:00010688       _CT??_R0?AVbad_cast@std@@@8??0bad_cast@std@@QEAA@AEBV01@@Z24 000000018003e688     fx_muxer.obj
 0002:000106b0       _CT??_R0?AVjson_exception@json@web@@@8??0json_exception@json@web@@QEAA@AEBV012@@Z56 000000018003e6b0     fx_muxer.obj
 0002:000106d8       _TI2?AVjson_exception@json@web@@ 000000018003e6d8     fx_muxer.obj
 0002:000106f8       _CT??_R0?AVexception@std@@@8??0exception@std@@QEAA@AEBV01@@Z24 000000018003e6f8     fx_muxer.obj
 0002:00010720       _TI1?AVSafeIntException@safeint3@msl@@ 000000018003e720     json.obj
 0002:00010740       _CT??_R0?AVSafeIntException@safeint3@msl@@@84 000000018003e740     json.obj
 0002:00010768       _CTA1?AVSafeIntException@safeint3@msl@@ 000000018003e768     json.obj
 0002:00010778       _CTA3?AVrange_error@std@@  000000018003e778     asyncrt_utils.obj
 0002:00010798       _TI3?AVrange_error@std@@   000000018003e798     asyncrt_utils.obj
 0002:000107b8       _TI2?AVruntime_error@std@@ 000000018003e7b8     asyncrt_utils.obj
 0002:000107d8       _CT??_R0?AVruntime_error@std@@@8??0runtime_error@std@@QEAA@AEBV01@@Z24 000000018003e7d8     asyncrt_utils.obj
 0002:00010800       _CTA2?AVruntime_error@std@@ 000000018003e800     asyncrt_utils.obj
 0002:00010818       _CT??_R0?AVrange_error@std@@@8??0range_error@std@@QEAA@AEBV01@@Z24 000000018003e818     asyncrt_utils.obj
 0002:0001089c       __IMPORT_DESCRIPTOR_KERNEL32 000000018003e89c     kernel32:KERNEL32.dll
 0002:000108b0       __IMPORT_DESCRIPTOR_node   000000018003e8b0     iojs:node.dll
 0002:000108c4       __IMPORT_DESCRIPTOR_MSVCP140 000000018003e8c4     msvcprt:MSVCP140.dll
 0002:000108d8       __IMPORT_DESCRIPTOR_VCRUNTIME140 000000018003e8d8     vcruntime:VCRUNTIME140.dll
 0002:000108ec       __IMPORT_DESCRIPTOR_api-ms-win-crt-stdio-l1-1-0 000000018003e8ec     ucrt:api-ms-win-crt-stdio-l1-1-0.dll
 0002:00010900       __IMPORT_DESCRIPTOR_api-ms-win-crt-runtime-l1-1-0 000000018003e900     ucrt:api-ms-win-crt-runtime-l1-1-0.dll
 0002:00010914       __IMPORT_DESCRIPTOR_api-ms-win-crt-string-l1-1-0 000000018003e914     ucrt:api-ms-win-crt-string-l1-1-0.dll
 0002:00010928       __IMPORT_DESCRIPTOR_api-ms-win-crt-convert-l1-1-0 000000018003e928     ucrt:api-ms-win-crt-convert-l1-1-0.dll
 0002:0001093c       __IMPORT_DESCRIPTOR_api-ms-win-crt-filesystem-l1-1-0 000000018003e93c     ucrt:api-ms-win-crt-filesystem-l1-1-0.dll
 0002:00010950       __IMPORT_DESCRIPTOR_api-ms-win-crt-locale-l1-1-0 000000018003e950     ucrt:api-ms-win-crt-locale-l1-1-0.dll
 0002:00010964       __IMPORT_DESCRIPTOR_api-ms-win-crt-heap-l1-1-0 000000018003e964     ucrt:api-ms-win-crt-heap-l1-1-0.dll
 0002:00010978       __NULL_IMPORT_DESCRIPTOR   000000018003e978     kernel32:KERNEL32.dll
 0003:00000000       _Init_global_epoch         0000000180042000     MSVCRT:thread_safe_statics.obj
 0003:00000004       __scrt_native_dllmain_reason 0000000180042004     MSVCRT:utility.obj
 0003:00000008       __security_cookie_complement 0000000180042008     MSVCRT:gs_cookie.obj
 0003:00000010       __security_cookie          0000000180042010     MSVCRT:gs_cookie.obj
 0003:00000018       __isa_available            0000000180042018     MSVCRT:cpu_disp.obj
 0003:0000001c       __isa_enabled              000000018004201c     MSVCRT:cpu_disp.obj
 0003:00000020       __memcpy_nt_iters          0000000180042020     MSVCRT:cpu_disp.obj
 0003:00000030       __scrt_ucrt_dll_is_in_use  0000000180042030     MSVCRT:ucrt_stubs.obj
 0003:00000040       ?_hexval@@3V?$array@C$0IA@@std@@A 0000000180042040     json_parsing.obj
 0003:00000100       ?g_c_locale@details@utility@@3V?$unique_ptr@PEAU__crt_locale_pointers@@P6AXPEAPEAU1@@Z@std@@A 0000000180042100     asyncrt_utils.obj
 0003:00000140       _fltused                   0000000180042140     MSVCRT:fltused.obj
 0003:00000150       ??_R0?AVtype_info@@@8      0000000180042150     MSVCRT:std_type_info_static.obj
 0003:00000170       ??_R0?AVbad_alloc@std@@@8  0000000180042170     MSVCRT:throw_bad_alloc.obj
 0003:00000198       ??_R0?AVbad_array_new_length@std@@@8 0000000180042198     MSVCRT:throw_bad_alloc.obj
 0003:000001d0       ??_R0?AV?$basic_stringbuf@_WU?$char_traits@_W@std@@V?$allocator@_W@2@@std@@@8 00000001800421d0     fx_ver.obj
 0003:00000228       ??_R0?AVios_base@std@@@8   0000000180042228     fx_ver.obj
 0003:00000250       ??_R0?AV?$_Iosb@H@std@@@8  0000000180042250     fx_ver.obj
 0003:00000280       ??_R0?AV?$basic_iostream@_WU?$char_traits@_W@std@@@std@@@8 0000000180042280     fx_ver.obj
 0003:000002d0       ??_R0?AV?$basic_stringstream@_WU?$char_traits@_W@std@@V?$allocator@_W@2@@std@@@8 00000001800422d0     fx_ver.obj
 0003:00000330       ??_R0?AV?$basic_ostream@_WU?$char_traits@_W@std@@@std@@@8 0000000180042330     fx_ver.obj
 0003:00000380       ??_R0?AV?$basic_ios@_WU?$char_traits@_W@std@@@std@@@8 0000000180042380     fx_ver.obj
 0003:000003c0       ??_R0?AV?$basic_istream@_WU?$char_traits@_W@std@@@std@@@8 00000001800423c0     fx_ver.obj
 0003:00000410       ??_R0?AV?$basic_streambuf@_WU?$char_traits@_W@std@@@std@@@8 0000000180042410     fx_ver.obj
 0003:00000460       ??_R0?AV?$basic_filebuf@DU?$char_traits@D@std@@@std@@@8 0000000180042460     fx_muxer.obj
 0003:000004b0       ??_R0?AV?$basic_ifstream@DU?$char_traits@D@std@@@std@@@8 00000001800424b0     fx_muxer.obj
 0003:00000500       ??_R0?AV?$basic_streambuf@DU?$char_traits@D@std@@@std@@@8 0000000180042500     fx_muxer.obj
 0003:00000548       ??_R0?AVjson_exception@json@web@@@8 0000000180042548     fx_muxer.obj
 0003:00000578       ??_R0?AVbad_cast@std@@@8   0000000180042578     fx_muxer.obj
 0003:000005a0       ??_R0?AV?$basic_istream@DU?$char_traits@D@std@@@std@@@8 00000001800425a0     fx_muxer.obj
 0003:000005e8       ??_R0?AV?$basic_ios@DU?$char_traits@D@std@@@std@@@8 00000001800425e8     fx_muxer.obj
 0003:00000628       ??_R0?AVexception@std@@@8  0000000180042628     fx_muxer.obj
 0003:00000650       ??_R0?AV_Object@details@json@web@@@8 0000000180042650     json.obj
 0003:00000680       ??_R0?AVerror_category@std@@@8 0000000180042680     json.obj
 0003:000006b0       ??_R0?AV_Null@details@json@web@@@8 00000001800426b0     json.obj
 0003:000006e0       ??_R0?AV_Value@details@json@web@@@8 00000001800426e0     json.obj
 0003:00000710       ??_R0?AV_Boolean@details@json@web@@@8 0000000180042710     json.obj
 0003:00000740       ??_R0?AVjson_error_category_impl@details@json@web@@@8 0000000180042740     json.obj
 0003:00000780       ??_R0?AV_String@details@json@web@@@8 0000000180042780     json.obj
 0003:000007b0       ??_R0?AVSafeIntException@safeint3@msl@@@8 00000001800427b0     json.obj
 0003:000007e8       ??_R0?AV_Array@details@json@web@@@8 00000001800427e8     json.obj
 0003:00000818       ??_R0?AV_Number@details@json@web@@@8 0000000180042818     json.obj
 0003:00000848       ??_R0?AV?$JSON_StreamParser@D@details@json@web@@@8 0000000180042848     json_parsing.obj
 0003:00000888       ??_R0?AV_System_error_category@std@@@8 0000000180042888     json_parsing.obj
 0003:000008c0       ??_R0?AV_Generic_error_category@std@@@8 00000001800428c0     json_parsing.obj
 0003:000008f8       ??_R0?AV?$JSON_Parser@D@details@json@web@@@8 00000001800428f8     json_parsing.obj
 0003:00000930       ??_R0?AV?$basic_ostringstream@_WU?$char_traits@_W@std@@V?$allocator@_W@2@@std@@@8 0000000180042930     json_parsing.obj
 0003:00000990       ??_R0?AVruntime_error@std@@@8 0000000180042990     asyncrt_utils.obj
 0003:000009b8       ??_R0?AVrange_error@std@@@8 00000001800429b8     asyncrt_utils.obj
 0003:00000a20       ??_R0?AV?$_Func_base@_NAEBV?$basic_string@_WU?$char_traits@_W@std@@V?$allocator@_W@2@@std@@@std@@@8 0000000180042a20     deps_format.obj
 0003:00000a90       ??_R0?AV?$_Func_base@AEBV?$vector@V?$basic_string@_WU?$char_traits@_W@std@@V?$allocator@_W@2@@std@@V?$allocator@V?$basic_string@_WU?$char_traits@_W@std@@V?$allocator@_W@2@@std@@@2@@std@@AEBV?$basic_string@_WU?$char_traits@_W@std@@V?$allocator@_W@2@@2@HPEA_N@std@@@8 0000000180042a90     deps_format.obj
 0003:00001160       ??_R0?AV?$_Func_base@V?$basic_string@_WU?$char_traits@_W@std@@V?$allocator@_W@2@@std@@AEBV12@@std@@@8 0000000180043160     deps_resolver.obj
 0003:00001318       __scrt_current_native_startup_state 0000000180043318     MSVCRT:utility.obj
 0003:00001320       __scrt_native_startup_lock 0000000180043320     MSVCRT:utility.obj
 0003:000018e0       __scrt_debugger_hook_flag  00000001800438e0     MSVCRT:utility_desktop.obj
 0003:000018e4       _tls_index                 00000001800438e4     MSVCRT:tlssup.obj
 0003:000018e8       __favor                    00000001800438e8     MSVCRT:cpu_disp.obj
 0003:000018f0       ?__type_info_root_node@@3U__type_info_node@@A 00000001800438f0     MSVCRT:tncleanup.obj
 0003:00001900       ?_OptionsStorage@?1??__local_stdio_scanf_options@@9@4_KA 0000000180043900     MSVCRT:default_local_stdio_options.obj
 0003:00001908       ?_OptionsStorage@?1??__local_stdio_printf_options@@9@4_KA 0000000180043908     v8synchronizationcontext.obj
 0003:00001910       ?v8ThreadId@V8SynchronizationContext@@0KA 0000000180043910     v8synchronizationcontext.obj
 0003:00001914       ?debugMode@@3HA            0000000180043914     edge.obj
 0003:00001918       ?uv_edge_async@V8SynchronizationContext@@2PEAUuv_edge_async_s@@EA 0000000180043918     v8synchronizationcontext.obj
 0003:00001920       ?funcWaitHandle@V8SynchronizationContext@@2PEAPEAXEA 0000000180043920     v8synchronizationcontext.obj
 0003:00001928       ?tickCallback@CallbackHelper@@0PEAVCallback@Nan@@EA 0000000180043928     callbackhelper.obj
 0003:00001930       ?callFunc@@3P6AXPEAX0HPEAHPEAPEAX1@ZEA 0000000180043930     coreclrembedding.obj
 0003:00001938       ?freeMarshalData@@3P6AXPEAXH@ZEA 0000000180043938     coreclrembedding.obj
 0003:00001940       ?compileFunc@@3P6APEAXPEBXHPEAPEAX@ZEA 0000000180043940     coreclrembedding.obj
 0003:00001948       ?continueTask@@3P6AXPEAX0P6AX0HHPEAVCoreClrFuncInvokeContext@@@ZPEAPEAX@ZEA 0000000180043948     coreclrembedding.obj
 0003:00001950       ?getFunc@@3P6APEAXPEBD00PEAPEAX@ZEA 0000000180043950     coreclrembedding.obj
 0003:00001958       ?freeHandle@@3P6AXPEAX@ZEA 0000000180043958     coreclrembedding.obj
 0003:00001960       ?initialize@@3P6AXPEAUbootstrapperContext@@PEAPEAX@ZEA 0000000180043960     coreclrembedding.obj
 0003:00001968       ?g_keep_json_object_unsorted@details@json@web@@3_NA 0000000180043968     json.obj
 0003:00001970       ?g_c_localeFlag@details@utility@@3Uonce_flag@std@@A 0000000180043970     asyncrt_utils.obj
 0003:00001990       ?_Stinit@?1??_Init@?$basic_filebuf@DU?$char_traits@D@std@@@std@@IEAAXPEAU_iobuf@@W4_Initfl@23@@Z@4U_Mbstatet@@A 0000000180043990     fx_muxer.obj
 0003:00001998       ?_Psave@?$_Facetptr@V?$codecvt@DDU_Mbstatet@@@std@@@std@@2PEBVfacet@locale@2@EB 0000000180043998     fx_muxer.obj
 0003:000019a0       ?_Storage@?1???$_Immortalize@V_Generic_error_category@std@@@std@@YAAEAV_Generic_error_category@1@XZ@4T?$_Align_type@N$0BA@@1@A 00000001800439a0     json_parsing.obj
 0003:000019b0       ?_Flag@?1???$_Immortalize@V_Generic_error_category@std@@@std@@YAAEAV_Generic_error_category@1@XZ@4PEAXEA 00000001800439b0     json_parsing.obj
 0003:000019b8       ?_Storage@?1???$_Immortalize@V_System_error_category@std@@@std@@YAAEAV_System_error_category@1@XZ@4T?$_Align_type@N$0BA@@1@A 00000001800439b8     json_parsing.obj
 0003:000019c8       ?_Flag@?1???$_Immortalize@V_System_error_category@std@@@std@@YAAEAV_System_error_category@1@XZ@4PEAXEA 00000001800439c8     json_parsing.obj
 0003:00001a08       __dyn_tls_init_callback    0000000180043a08     <common>

 entry point at        0001:00029908

 Static symbols

 0000:fffb7000       .debug$S                   0000000180000000     kernel32:KERNEL32.dll
 0000:fffb7000       .debug$S                   0000000180000000     vcruntime:VCRUNTIME140.dll
 0000:fffb7000       .debug$S                   0000000180000000     vcruntime:VCRUNTIME140.dll
 0000:fffb7000       .debug$S                   0000000180000000     msvcprt:MSVCP140.dll
 0000:fffb7000       .debug$S                   0000000180000000     msvcprt:MSVCP140.dll
 0000:fffb7000       .debug$S                   0000000180000000     kernel32:KERNEL32.dll
 0000:fffb7000       .debug$S                   0000000180000000     msvcprt:MSVCP140.dll
 0000:fffb7000       .debug$S                   0000000180000000     kernel32:KERNEL32.dll
 0000:fffb7000       .debug$S                   0000000180000000     msvcprt:MSVCP140.dll
 0000:fffb7000       .debug$S                   0000000180000000     kernel32:KERNEL32.dll
 0000:fffb7000       .debug$S                   0000000180000000     msvcprt:MSVCP140.dll
 0000:fffb7000       .debug$S                   0000000180000000     msvcprt:MSVCP140.dll
 0000:fffb7000       .debug$S                   0000000180000000     kernel32:KERNEL32.dll
 0000:fffb7000       .debug$S                   0000000180000000     msvcprt:MSVCP140.dll
 0000:fffb7000       .debug$S                   0000000180000000     kernel32:KERNEL32.dll
 0000:fffb7000       .debug$S                   0000000180000000     vcruntime:VCRUNTIME140.dll
 0000:fffb7000       .debug$S                   0000000180000000     kernel32:KERNEL32.dll
 0000:fffb7000       .debug$S                   0000000180000000     msvcprt:MSVCP140.dll
 0000:fffb7000       .debug$S                   0000000180000000     msvcprt:MSVCP140.dll
 0000:fffb7000       .debug$S                   0000000180000000     vcruntime:VCRUNTIME140.dll
 0000:fffb7000       .debug$S                   0000000180000000     msvcprt:MSVCP140.dll
 0000:fffb7000       .debug$S                   0000000180000000     kernel32:KERNEL32.dll
 0000:fffb7000       .debug$S                   0000000180000000     vcruntime:VCRUNTIME140.dll
 0000:fffb7000       .debug$S                   0000000180000000     msvcprt:MSVCP140.dll
 0000:fffb7000       .debug$S                   0000000180000000     vcruntime:VCRUNTIME140.dll
 0000:fffb7000       .debug$S                   0000000180000000     msvcprt:MSVCP140.dll
 0000:fffb7000       .debug$S                   0000000180000000     kernel32:KERNEL32.dll
 0000:fffb7000       .debug$S                   0000000180000000     vcruntime:VCRUNTIME140.dll
 0000:fffb7000       .debug$S                   0000000180000000     kernel32:KERNEL32.dll
 0000:fffb7000       .debug$S                   0000000180000000     msvcprt:MSVCP140.dll
 0000:fffb7000       .debug$S                   0000000180000000     vcruntime:VCRUNTIME140.dll
 0000:fffb7000       .debug$S                   0000000180000000     msvcprt:MSVCP140.dll
 0000:fffb7000       .debug$S                   0000000180000000     vcruntime:VCRUNTIME140.dll
 0000:fffb7000       .debug$S                   0000000180000000     kernel32:KERNEL32.dll
 0000:fffb7000       .debug$S                   0000000180000000     msvcprt:MSVCP140.dll
 0000:fffb7000       .debug$S                   0000000180000000     vcruntime:VCRUNTIME140.dll
 0000:fffb7000       .debug$S                   0000000180000000     msvcprt:MSVCP140.dll
 0000:fffb7000       .debug$S                   0000000180000000     vcruntime:VCRUNTIME140.dll
 0000:fffb7000       .debug$S                   0000000180000000     kernel32:KERNEL32.dll
 0000:fffb7000       .debug$S                   0000000180000000     ucrt:api-ms-win-crt-stdio-l1-1-0.dll
 0000:fffb7000       .debug$S                   0000000180000000     kernel32:KERNEL32.dll
 0000:fffb7000       .debug$S                   0000000180000000     msvcprt:MSVCP140.dll
 0000:fffb7000       .debug$S                   0000000180000000     kernel32:KERNEL32.dll
 0000:fffb7000       .debug$S                   0000000180000000     ucrt:api-ms-win-crt-stdio-l1-1-0.dll
 0000:fffb7000       .debug$S                   0000000180000000     kernel32:KERNEL32.dll
 0000:fffb7000       .debug$S                   0000000180000000     msvcprt:MSVCP140.dll
 0000:fffb7000       .debug$S                   0000000180000000     kernel32:KERNEL32.dll
 0000:fffb7000       .debug$S                   0000000180000000     msvcprt:MSVCP140.dll
 0000:fffb7000       .debug$S                   0000000180000000     ucrt:api-ms-win-crt-runtime-l1-1-0.dll
 0000:fffb7000       .debug$S                   0000000180000000     msvcprt:MSVCP140.dll
 0000:fffb7000       .debug$S                   0000000180000000     ucrt:api-ms-win-crt-runtime-l1-1-0.dll
 0000:fffb7000       .debug$S                   0000000180000000     msvcprt:MSVCP140.dll
 0000:fffb7000       .debug$S                   0000000180000000     ucrt:api-ms-win-crt-string-l1-1-0.dll
 0000:fffb7000       .debug$S                   0000000180000000     msvcprt:MSVCP140.dll
 0000:fffb7000       .debug$S                   0000000180000000     ucrt:api-ms-win-crt-stdio-l1-1-0.dll
 0000:fffb7000       .debug$S                   0000000180000000     msvcprt:MSVCP140.dll
 0000:fffb7000       .debug$S                   0000000180000000     ucrt:api-ms-win-crt-string-l1-1-0.dll
 0000:fffb7000       .debug$S                   0000000180000000     kernel32:KERNEL32.dll
 0000:fffb7000       .debug$S                   0000000180000000     msvcprt:MSVCP140.dll
 0000:fffb7000       .debug$S                   0000000180000000     kernel32:KERNEL32.dll
 0000:fffb7000       .debug$S                   0000000180000000     ucrt:api-ms-win-crt-string-l1-1-0.dll
 0000:fffb7000       .debug$S                   0000000180000000     kernel32:KERNEL32.dll
 0000:fffb7000       .debug$S                   0000000180000000     msvcprt:MSVCP140.dll
 0000:fffb7000       .debug$S                   0000000180000000     kernel32:KERNEL32.dll
 0000:fffb7000       .debug$S                   0000000180000000     ucrt:api-ms-win-crt-string-l1-1-0.dll
 0000:fffb7000       .debug$S                   0000000180000000     msvcprt:MSVCP140.dll
 0000:fffb7000       .debug$S                   0000000180000000     ucrt:api-ms-win-crt-stdio-l1-1-0.dll
 0000:fffb7000       .debug$S                   0000000180000000     msvcprt:MSVCP140.dll
 0000:fffb7000       .debug$S                   0000000180000000     kernel32:KERNEL32.dll
 0000:fffb7000       .debug$S                   0000000180000000     ucrt:api-ms-win-crt-stdio-l1-1-0.dll
 0000:fffb7000       .debug$S                   0000000180000000     kernel32:KERNEL32.dll
 0000:fffb7000       .debug$S                   0000000180000000     msvcprt:MSVCP140.dll
 0000:fffb7000       .debug$S                   0000000180000000     ucrt:api-ms-win-crt-convert-l1-1-0.dll
 0000:fffb7000       .debug$S                   0000000180000000     msvcprt:MSVCP140.dll
 0000:fffb7000       .debug$S                   0000000180000000     ucrt:api-ms-win-crt-runtime-l1-1-0.dll
 0000:fffb7000       .debug$S                   0000000180000000     msvcprt:MSVCP140.dll
 0000:fffb7000       .debug$S                   0000000180000000     ucrt:api-ms-win-crt-stdio-l1-1-0.dll
 0000:fffb7000       .debug$S                   0000000180000000     kernel32:KERNEL32.dll
 0000:fffb7000       .debug$S                   0000000180000000     msvcprt:MSVCP140.dll
 0000:fffb7000       .debug$S                   0000000180000000     kernel32:KERNEL32.dll
 0000:fffb7000       .debug$S                   0000000180000000     ucrt:api-ms-win-crt-stdio-l1-1-0.dll
 0000:fffb7000       .debug$S                   0000000180000000     msvcprt:MSVCP140.dll
 0000:fffb7000       .debug$S                   0000000180000000     msvcprt:MSVCP140.dll
 0000:fffb7000       .debug$S                   0000000180000000     ucrt:api-ms-win-crt-stdio-l1-1-0.dll
 0000:fffb7000       .debug$S                   0000000180000000     msvcprt:MSVCP140.dll
 0000:fffb7000       .debug$S                   0000000180000000     msvcprt:MSVCP140.dll
 0000:fffb7000       .debug$S                   0000000180000000     kernel32:KERNEL32.dll
 0000:fffb7000       .debug$S                   0000000180000000     ucrt:api-ms-win-crt-stdio-l1-1-0.dll
 0000:fffb7000       .debug$S                   0000000180000000     ucrt:api-ms-win-crt-filesystem-l1-1-0.dll
 0000:fffb7000       .debug$S                   0000000180000000     ucrt:api-ms-win-crt-filesystem-l1-1-0.dll
 0000:fffb7000       .debug$S                   0000000180000000     msvcprt:MSVCP140.dll
 0000:fffb7000       .debug$S                   0000000180000000     ucrt:api-ms-win-crt-stdio-l1-1-0.dll
 0000:fffb7000       .debug$S                   0000000180000000     msvcprt:MSVCP140.dll
 0000:fffb7000       .debug$S                   0000000180000000     ucrt:api-ms-win-crt-stdio-l1-1-0.dll
 0000:fffb7000       .debug$S                   0000000180000000     msvcprt:MSVCP140.dll
 0000:fffb7000       .debug$S                   0000000180000000     msvcprt:MSVCP140.dll
 0000:fffb7000       .debug$S                   0000000180000000     msvcprt:MSVCP140.dll
 0000:fffb7000       .debug$S                   0000000180000000     msvcprt:MSVCP140.dll
 0000:fffb7000       .debug$S                   0000000180000000     msvcprt:MSVCP140.dll
 0000:fffb7000       .debug$S                   0000000180000000     msvcprt:MSVCP140.dll
 0000:fffb7000       .debug$S                   0000000180000000     msvcprt:MSVCP140.dll
 0000:fffb7000       .debug$S                   0000000180000000     msvcprt:MSVCP140.dll
 0000:fffb7000       .debug$S                   0000000180000000     msvcprt:MSVCP140.dll
 0000:fffb7000       .debug$S                   0000000180000000     msvcprt:MSVCP140.dll
 0000:fffb7000       .debug$S                   0000000180000000     msvcprt:MSVCP140.dll
 0000:fffb7000       .debug$S                   0000000180000000     msvcprt:MSVCP140.dll
 0000:fffb7000       .debug$S                   0000000180000000     msvcprt:MSVCP140.dll
 0000:fffb7000       .debug$S                   0000000180000000     msvcprt:MSVCP140.dll
 0000:fffb7000       .debug$S                   0000000180000000     msvcprt:MSVCP140.dll
 0000:fffb7000       .debug$S                   0000000180000000     msvcprt:MSVCP140.dll
 0000:fffb7000       .debug$S                   0000000180000000     msvcprt:MSVCP140.dll
 0000:fffb7000       .debug$S                   0000000180000000     msvcprt:MSVCP140.dll
 0000:fffb7000       .debug$S                   0000000180000000     msvcprt:MSVCP140.dll
 0000:fffb7000       .debug$S                   0000000180000000     msvcprt:MSVCP140.dll
 0000:fffb7000       .debug$S                   0000000180000000     msvcprt:MSVCP140.dll
 0000:fffb7000       .debug$S                   0000000180000000     ucrt:api-ms-win-crt-stdio-l1-1-0.dll
 0000:fffb7000       .debug$S                   0000000180000000     msvcprt:MSVCP140.dll
 0000:fffb7000       .debug$S                   0000000180000000     ucrt:api-ms-win-crt-stdio-l1-1-0.dll
 0000:fffb7000       .debug$S                   0000000180000000     ucrt:api-ms-win-crt-stdio-l1-1-0.dll
 0000:fffb7000       .debug$S                   0000000180000000     ucrt:api-ms-win-crt-stdio-l1-1-0.dll
 0000:fffb7000       .debug$S                   0000000180000000     msvcprt:MSVCP140.dll
 0000:fffb7000       .debug$S                   0000000180000000     ucrt:api-ms-win-crt-stdio-l1-1-0.dll
 0000:fffb7000       .debug$S                   0000000180000000     shell32:SHELL32.dll
 0000:fffb7000       .debug$S                   0000000180000000     ucrt:api-ms-win-crt-stdio-l1-1-0.dll
 0000:fffb7000       .debug$S                   0000000180000000     msvcprt:MSVCP140.dll
 0000:fffb7000       .debug$S                   0000000180000000     ucrt:api-ms-win-crt-string-l1-1-0.dll
 0000:fffb7000       .debug$S                   0000000180000000     ucrt:api-ms-win-crt-stdio-l1-1-0.dll
 0002:fffd2000       .idata$6                   0000000180000000     shell32:SHELL32.dll
 0000:fffb7000       .debug$S                   0000000180000000     msvcprt:MSVCP140.dll
 0000:fffb7000       .debug$S                   0000000180000000     ucrt:api-ms-win-crt-stdio-l1-1-0.dll
 0000:fffb7000       .debug$S                   0000000180000000     msvcprt:MSVCP140.dll
 0000:fffb7000       .debug$S                   0000000180000000     ucrt:api-ms-win-crt-runtime-l1-1-0.dll
 0000:fffb7000       .debug$S                   0000000180000000     ucrt:api-ms-win-crt-string-l1-1-0.dll
 0000:fffb7000       .debug$S                   0000000180000000     msvcprt:MSVCP140.dll
 0000:fffb7000       .debug$S                   0000000180000000     ucrt:api-ms-win-crt-locale-l1-1-0.dll
 0000:fffb7000       .debug$S                   0000000180000000     msvcprt:MSVCP140.dll
 0000:fffb7000       .debug$S                   0000000180000000     ucrt:api-ms-win-crt-convert-l1-1-0.dll
 0000:fffb7000       .debug$S                   0000000180000000     msvcprt:MSVCP140.dll
 0000:fffb7000       .debug$S                   0000000180000000     ucrt:api-ms-win-crt-convert-l1-1-0.dll
 0000:fffb7000       .debug$S                   0000000180000000     msvcprt:MSVCP140.dll
 0000:fffb7000       .debug$S                   0000000180000000     ucrt:api-ms-win-crt-string-l1-1-0.dll
 0000:fffb7000       .debug$S                   0000000180000000     msvcprt:MSVCP140.dll
 0000:fffb7000       .debug$S                   0000000180000000     ucrt:api-ms-win-crt-stdio-l1-1-0.dll
 0000:fffb7000       .debug$S                   0000000180000000     msvcprt:MSVCP140.dll
 0000:fffb7000       .debug$S                   0000000180000000     ucrt:api-ms-win-crt-convert-l1-1-0.dll
 0000:fffb7000       .debug$S                   0000000180000000     msvcprt:MSVCP140.dll
 0000:fffb7000       .debug$S                   0000000180000000     ucrt:api-ms-win-crt-stdio-l1-1-0.dll
 0000:fffb7000       .debug$S                   0000000180000000     msvcprt:MSVCP140.dll
 0000:fffb7000       .debug$S                   0000000180000000     ucrt:api-ms-win-crt-convert-l1-1-0.dll
 0000:fffb7000       .debug$S                   0000000180000000     ucrt:api-ms-win-crt-string-l1-1-0.dll
 0000:fffb7000       .debug$S                   0000000180000000     msvcprt:MSVCP140.dll
 0000:fffb7000       .debug$S                   0000000180000000     ucrt:api-ms-win-crt-convert-l1-1-0.dll
 0000:fffb7000       .debug$S                   0000000180000000     iojs:node.dll
 0000:fffb7000       .debug$S                   0000000180000000     msvcprt:MSVCP140.dll
 0000:fffb7000       .debug$S                   0000000180000000     iojs:node.dll
 0000:fffb7000       .debug$S                   0000000180000000     ucrt:api-ms-win-crt-convert-l1-1-0.dll
 0000:fffb7000       .debug$S                   0000000180000000     ucrt:api-ms-win-crt-locale-l1-1-0.dll
 0000:fffb7000       .debug$S                   0000000180000000     msvcprt:MSVCP140.dll
 0000:fffb7000       .debug$S                   0000000180000000     ucrt:api-ms-win-crt-locale-l1-1-0.dll
 0000:fffb7000       .debug$S                   0000000180000000     msvcprt:MSVCP140.dll
 0000:fffb7000       .debug$S                   0000000180000000     iojs:node.dll
 0000:fffb7000       .debug$S                   0000000180000000     ucrt:api-ms-win-crt-locale-l1-1-0.dll
 0000:fffb7000       .debug$S                   0000000180000000     msvcprt:MSVCP140.dll
 0000:fffb7000       .debug$S                   0000000180000000     ucrt:api-ms-win-crt-string-l1-1-0.dll
 0000:fffb7000       .debug$S                   0000000180000000     msvcprt:MSVCP140.dll
 0000:fffb7000       .debug$S                   0000000180000000     ucrt:api-ms-win-crt-locale-l1-1-0.dll
 0000:fffb7000       .debug$S                   0000000180000000     msvcprt:MSVCP140.dll
 0000:fffb7000       .debug$S                   0000000180000000     ucrt:api-ms-win-crt-heap-l1-1-0.dll
 0000:fffb7000       .debug$S                   0000000180000000     msvcprt:MSVCP140.dll
 0000:fffb7000       .debug$S                   0000000180000000     ucrt:api-ms-win-crt-string-l1-1-0.dll
 0000:fffb7000       .debug$S                   0000000180000000     ucrt:api-ms-win-crt-convert-l1-1-0.dll
 0000:fffb7000       .debug$S                   0000000180000000     iojs:node.dll
 0000:fffb7000       .debug$S                   0000000180000000     ucrt:api-ms-win-crt-heap-l1-1-0.dll
 0000:fffb7000       .debug$S                   0000000180000000     iojs:node.dll
 0000:fffb7000       .debug$S                   0000000180000000     ucrt:api-ms-win-crt-heap-l1-1-0.dll
 0000:fffb7000       .debug$S                   0000000180000000     ucrt:api-ms-win-crt-runtime-l1-1-0.dll
 0000:fffb7000       .debug$S                   0000000180000000     ucrt:api-ms-win-crt-runtime-l1-1-0.dll
 0000:fffb7000       .debug$S                   0000000180000000     ucrt:api-ms-win-crt-runtime-l1-1-0.dll
 0000:fffb7000       .debug$S                   0000000180000000     iojs:node.dll
 0000:fffb7000       .debug$S                   0000000180000000     ucrt:api-ms-win-crt-runtime-l1-1-0.dll
 0000:fffb7000       .debug$S                   0000000180000000     ucrt:api-ms-win-crt-runtime-l1-1-0.dll
 0000:fffb7000       .debug$S                   0000000180000000     ucrt:api-ms-win-crt-runtime-l1-1-0.dll
 0000:fffb7000       .debug$S                   0000000180000000     ucrt:api-ms-win-crt-runtime-l1-1-0.dll
 0000:fffb7000       .debug$S                   0000000180000000     iojs:node.dll
 0000:fffb7000       .debug$S                   0000000180000000     ucrt:api-ms-win-crt-runtime-l1-1-0.dll
 0000:fffb7000       .debug$S                   0000000180000000     iojs:node.dll
 0000:fffb7000       .debug$S                   0000000180000000     ucrt:api-ms-win-crt-runtime-l1-1-0.dll
 0000:fffb7000       .debug$S                   0000000180000000     iojs:node.dll
 0000:fffb7000       .debug$S                   0000000180000000     ucrt:api-ms-win-crt-runtime-l1-1-0.dll
 0000:fffb7000       .debug$S                   0000000180000000     ucrt:api-ms-win-crt-runtime-l1-1-0.dll
 0000:fffb7000       .debug$S                   0000000180000000     ucrt:api-ms-win-crt-heap-l1-1-0.dll
 0000:fffb7000       .debug$S                   0000000180000000     kernel32:KERNEL32.dll
 0000:fffb7000       .debug$S                   0000000180000000     iojs:node.dll
 0000:fffb7000       .debug$S                   0000000180000000     kernel32:KERNEL32.dll
 0000:fffb7000       .debug$S                   0000000180000000     msvcprt:MSVCP140.dll
 0000:fffb7000       .debug$S                   0000000180000000     kernel32:KERNEL32.dll
 0000:fffb7000       .debug$S                   0000000180000000     msvcprt:MSVCP140.dll
 0000:fffb7000       .debug$S                   0000000180000000     iojs:node.dll
 0000:fffb7000       .debug$S                   0000000180000000     kernel32:KERNEL32.dll
 0000:fffb7000       .debug$S                   0000000180000000     msvcprt:MSVCP140.dll
 0000:fffb7000       .debug$S                   0000000180000000     kernel32:KERNEL32.dll
 0000:fffb7000       .debug$S                   0000000180000000     msvcprt:MSVCP140.dll
 0000:fffb7000       .debug$S                   0000000180000000     iojs:node.dll
 0000:fffb7000       .debug$S                   0000000180000000     msvcprt:MSVCP140.dll
 0000:fffb7000       .debug$S                   0000000180000000     iojs:node.dll
 0000:fffb7000       .debug$S                   0000000180000000     msvcprt:MSVCP140.dll
 0000:fffb7000       .debug$S                   0000000180000000     msvcprt:MSVCP140.dll
 0000:fffb7000       .debug$S                   0000000180000000     msvcprt:MSVCP140.dll
 0000:fffb7000       .debug$S                   0000000180000000     msvcprt:MSVCP140.dll
 0000:fffb7000       .debug$S                   0000000180000000     iojs:node.dll
 0000:fffb7000       .debug$S                   0000000180000000     msvcprt:MSVCP140.dll
 0000:fffb7000       .debug$S                   0000000180000000     iojs:node.dll
 0000:fffb7000       .debug$S                   0000000180000000     msvcprt:MSVCP140.dll
 0000:fffb7000       .debug$S                   0000000180000000     msvcprt:MSVCP140.dll
 0000:fffb7000       .debug$S                   0000000180000000     msvcprt:MSVCP140.dll
 0000:fffb7000       .debug$S                   0000000180000000     msvcprt:MSVCP140.dll
 0000:fffb7000       .debug$S                   0000000180000000     iojs:node.dll
 0000:fffb7000       .debug$S                   0000000180000000     msvcprt:MSVCP140.dll
 0000:fffb7000       .debug$S                   0000000180000000     iojs:node.dll
 0000:fffb7000       .debug$S                   0000000180000000     msvcprt:MSVCP140.dll
 0000:fffb7000       .debug$S                   0000000180000000     iojs:node.dll
 0000:fffb7000       .debug$S                   0000000180000000     msvcprt:MSVCP140.dll
 0000:fffb7000       .debug$S                   0000000180000000     iojs:node.dll
 0000:fffb7000       .debug$S                   0000000180000000     msvcprt:MSVCP140.dll
 0000:fffb7000       .debug$S                   0000000180000000     iojs:node.dll
 0000:fffb7000       .debug$S                   0000000180000000     msvcprt:MSVCP140.dll
 0000:fffb7000       .debug$S                   0000000180000000     msvcprt:MSVCP140.dll
 0000:fffb7000       .debug$S                   0000000180000000     msvcprt:MSVCP140.dll
 0000:fffb7000       .debug$S                   0000000180000000     msvcprt:MSVCP140.dll
 0000:fffb7000       .debug$S                   0000000180000000     iojs:node.dll
 0000:fffb7000       .debug$S                   0000000180000000     msvcprt:MSVCP140.dll
 0000:fffb7000       .debug$S                   0000000180000000     msvcprt:MSVCP140.dll
 0000:fffb7000       .debug$S                   0000000180000000     msvcprt:MSVCP140.dll
 0000:fffb7000       .debug$S                   0000000180000000     msvcprt:MSVCP140.dll
 0000:fffb7000       .debug$S                   0000000180000000     iojs:node.dll
 0000:fffb7000       .debug$S                   0000000180000000     msvcprt:MSVCP140.dll
 0000:fffb7000       .debug$S                   0000000180000000     iojs:node.dll
 0000:fffb7000       .debug$S                   0000000180000000     msvcprt:MSVCP140.dll
 0000:fffb7000       .debug$S                   0000000180000000     iojs:node.dll
 0000:fffb7000       .debug$S                   0000000180000000     msvcprt:MSVCP140.dll
 0000:fffb7000       .debug$S                   0000000180000000     iojs:node.dll
 0000:fffb7000       .debug$S                   0000000180000000     msvcprt:MSVCP140.dll
 0000:fffb7000       .debug$S                   0000000180000000     msvcprt:MSVCP140.dll
 0000:fffb7000       .debug$S                   0000000180000000     msvcprt:MSVCP140.dll
 0000:fffb7000       .debug$S                   0000000180000000     msvcprt:MSVCP140.dll
 0000:fffb7000       .debug$S                   0000000180000000     iojs:node.dll
 0000:fffb7000       .debug$S                   0000000180000000     msvcprt:MSVCP140.dll
 0000:fffb7000       .debug$S                   0000000180000000     iojs:node.dll
 0000:fffb7000       .debug$S                   0000000180000000     msvcprt:MSVCP140.dll
 0000:fffb7000       .debug$S                   0000000180000000     iojs:node.dll
 0000:fffb7000       .debug$S                   0000000180000000     msvcprt:MSVCP140.dll
 0000:fffb7000       .debug$S                   0000000180000000     iojs:node.dll
 0000:fffb7000       .debug$S                   0000000180000000     msvcprt:MSVCP140.dll
 0000:fffb7000       .debug$S                   0000000180000000     kernel32:KERNEL32.dll
 0000:fffb7000       .debug$S                   0000000180000000     kernel32:KERNEL32.dll
 0000:fffb7000       .debug$S                   0000000180000000     msvcprt:MSVCP140.dll
 0000:fffb7000       .debug$S                   0000000180000000     kernel32:KERNEL32.dll
 0000:fffb7000       .debug$S                   0000000180000000     iojs:node.dll
 0000:fffb7000       .debug$S                   0000000180000000     msvcprt:MSVCP140.dll
 0000:fffb7000       .debug$S                   0000000180000000     iojs:node.dll
 0000:fffb7000       .debug$S                   0000000180000000     kernel32:KERNEL32.dll
 0000:fffb7000       .debug$S                   0000000180000000     iojs:node.dll
 0000:fffb7000       .debug$S                   0000000180000000     msvcprt:MSVCP140.dll
 0000:fffb7000       .debug$S                   0000000180000000     iojs:node.dll
 0000:fffb7000       .debug$S                   0000000180000000     kernel32:KERNEL32.dll
 0000:fffb7000       .debug$S                   0000000180000000     kernel32:KERNEL32.dll
 0000:fffb7000       .debug$S                   0000000180000000     kernel32:KERNEL32.dll
 0000:fffb7000       .debug$S                   0000000180000000     iojs:node.dll
 0000:fffb7000       .debug$S                   0000000180000000     kernel32:KERNEL32.dll
 0000:fffb7000       .debug$S                   0000000180000000     msvcprt:MSVCP140.dll
 0000:fffb7000       .debug$S                   0000000180000000     kernel32:KERNEL32.dll
 0000:fffb7000       .debug$S                   0000000180000000     msvcprt:MSVCP140.dll
 0000:fffb7000       .debug$S                   0000000180000000     kernel32:KERNEL32.dll
 0000:fffb7000       .debug$S                   0000000180000000     msvcprt:MSVCP140.dll
 0000:fffb7000       .debug$S                   0000000180000000     iojs:node.dll
 0000:fffb7000       .debug$S                   0000000180000000     kernel32:KERNEL32.dll
 0000:fffb7000       .debug$S                   0000000180000000     iojs:node.dll
 0000:fffb7000       .debug$S                   0000000180000000     kernel32:KERNEL32.dll
 0000:fffb7000       .debug$S                   0000000180000000     kernel32:KERNEL32.dll
 0000:fffb7000       .debug$S                   0000000180000000     kernel32:KERNEL32.dll
 0000:fffb7000       .debug$S                   0000000180000000     kernel32:KERNEL32.dll
 0000:fffb7000       .debug$S                   0000000180000000     msvcprt:MSVCP140.dll
 0000:fffb7000       .debug$S                   0000000180000000     kernel32:KERNEL32.dll
 0000:fffb7000       .debug$S                   0000000180000000     iojs:node.dll
 0000:fffb7000       .debug$S                   0000000180000000     msvcprt:MSVCP140.dll
 0000:fffb7000       .debug$S                   0000000180000000     iojs:node.dll
 0000:fffb7000       .debug$S                   0000000180000000     msvcprt:MSVCP140.dll
 0000:fffb7000       .debug$S                   0000000180000000     kernel32:KERNEL32.dll
 0000:fffb7000       .debug$S                   0000000180000000     kernel32:KERNEL32.dll
 0000:fffb7000       .debug$S                   0000000180000000     kernel32:KERNEL32.dll
 0000:fffb7000       .debug$S                   0000000180000000     msvcprt:MSVCP140.dll
 0000:fffb7000       .debug$S                   0000000180000000     edge_coreclr.exp
 0000:fffb7000       .debug$S                   0000000180000000     iojs:node.dll
 0000:fffb7000       .debug$S                   0000000180000000     msvcprt:MSVCP140.dll
 0000:fffb7000       .debug$S                   0000000180000000     msvcprt:MSVCP140.dll
 0000:fffb7000       .debug$S                   0000000180000000     msvcprt:MSVCP140.dll
 0000:fffb7000       .debug$S                   0000000180000000     iojs:node.dll
 0000:fffb7000       .debug$S                   0000000180000000     msvcprt:MSVCP140.dll
 0000:fffb7000       .debug$S                   0000000180000000     iojs:node.dll
 0000:fffb7000       .debug$S                   0000000180000000     msvcprt:MSVCP140.dll
 0000:fffb7000       .debug$S                   0000000180000000     iojs:node.dll
 0000:fffb7000       .debug$S                   0000000180000000     msvcprt:MSVCP140.dll
 0000:fffb7000       .debug$S                   0000000180000000     iojs:node.dll
 0000:fffb7000       .debug$S                   0000000180000000     iojs:node.dll
 0000:fffb7000       .debug$S                   0000000180000000     iojs:node.dll
 0000:fffb7000       .debug$S                   0000000180000000     iojs:node.dll
 0000:fffb7000       .debug$S                   0000000180000000     iojs:node.dll
 0000:fffb7000       .debug$S                   0000000180000000     iojs:node.dll
 0000:fffb7000       .debug$S                   0000000180000000     iojs:node.dll
 0000:fffb7000       .debug$S                   0000000180000000     iojs:node.dll
 0000:fffb7000       .debug$S                   0000000180000000     iojs:node.dll
 0000:fffb7000       .debug$S                   0000000180000000     iojs:node.dll
 0000:fffb7000       .debug$S                   0000000180000000     iojs:node.dll
 0000:fffb7000       .debug$S                   0000000180000000     iojs:node.dll
 0000:fffb7000       .debug$S                   0000000180000000     iojs:node.dll
 0000:fffb7000       .debug$S                   0000000180000000     iojs:node.dll
 0000:fffb7000       .debug$S                   0000000180000000     iojs:node.dll
 0000:fffb7000       .debug$S                   0000000180000000     iojs:node.dll
 0000:fffb7000       .debug$S                   0000000180000000     iojs:node.dll
 0000:fffb7000       .debug$S                   0000000180000000     iojs:node.dll
 0000:fffb7000       .debug$S                   0000000180000000     iojs:node.dll
 0000:fffb7000       .debug$S                   0000000180000000     iojs:node.dll
 0000:fffb7000       .debug$S                   0000000180000000     iojs:node.dll
 0000:fffb7000       .debug$S                   0000000180000000     iojs:node.dll
 0000:fffb7000       .debug$S                   0000000180000000     iojs:node.dll
 0000:fffb7000       .debug$S                   0000000180000000     iojs:node.dll
 0000:fffb7000       .debug$S                   0000000180000000     iojs:node.dll
 0000:fffb7000       .debug$S                   0000000180000000     iojs:node.dll
 0000:fffb7000       .debug$S                   0000000180000000     iojs:node.dll
 0000:fffb7000       .debug$S                   0000000180000000     iojs:node.dll
 0000:fffb7000       .debug$S                   0000000180000000     iojs:node.dll
 0000:fffb7000       .debug$S                   0000000180000000     iojs:node.dll
 0000:fffb7000       .debug$S                   0000000180000000     iojs:node.dll
 0000:fffb7000       .debug$S                   0000000180000000     iojs:node.dll
 0000:fffb7000       .debug$S                   0000000180000000     iojs:node.dll
 0000:fffb7000       .debug$S                   0000000180000000     iojs:node.dll
 0000:fffb7000       .debug$S                   0000000180000000     iojs:node.dll
 0000:fffb7000       .debug$S                   0000000180000000     iojs:node.dll
 0000:fffb7000       .debug$S                   0000000180000000     iojs:node.dll
 0000:fffb7000       .debug$S                   0000000180000000     iojs:node.dll
 0000:fffb7000       .debug$S                   0000000180000000     iojs:node.dll
 0000:fffb7000       .debug$S                   0000000180000000     iojs:node.dll
 0000:fffb7000       .debug$S                   0000000180000000     iojs:node.dll
 0000:fffb7000       .debug$S                   0000000180000000     iojs:node.dll
 0000:fffb7000       .debug$S                   0000000180000000     iojs:node.dll
 0000:fffb7000       .debug$S                   0000000180000000     iojs:node.dll
 0000:fffb7000       .debug$S                   0000000180000000     iojs:node.dll
 0000:fffb7000       .debug$S                   0000000180000000     iojs:node.dll
 0000:fffb7000       .debug$S                   0000000180000000     iojs:node.dll
 0000:fffb7000       .debug$S                   0000000180000000     iojs:node.dll
 0000:fffb7000       .debug$S                   0000000180000000     iojs:node.dll
 0000:fffb7000       .debug$S                   0000000180000000     iojs:node.dll
 0000:fffb7000       .debug$S                   0000000180000000     iojs:node.dll
 0000:fffb7000       .debug$S                   0000000180000000     iojs:node.dll
 0000:fffb7000       .debug$S                   0000000180000000     iojs:node.dll
 0000:fffb7000       .debug$S                   0000000180000000     iojs:node.dll
 0000:fffb7000       .debug$S                   0000000180000000     iojs:node.dll
 0000:fffb7000       .debug$S                   0000000180000000     iojs:node.dll
 0000:fffb7000       .debug$S                   0000000180000000     iojs:node.dll
 0001:00000000       ??__Eg_c_locale@details@utility@@YAXXZ 0000000180001000 f   asyncrt_utils.obj
 0001:00000010       ??__Erid@@YAXXZ            0000000180001010 f   deps_format.obj
 0001:0000001c       ??__E_Fac_tidy_reg@std@@YAXXZ 000000018000101c f   msvcprt:locale0_implib.obj
 0001:000002b0       ?FunctionCallbackWrapper@imp@Nan@@YAXAEBV?$FunctionCallbackInfo@VValue@v8@@@v8@@@Z 00000001800012b0 f   callbackhelper.obj
 0001:000002b0       ?FunctionCallbackWrapper@imp@Nan@@YAXAEBV?$FunctionCallbackInfo@VValue@v8@@@v8@@@Z 00000001800012b0 f   edge.obj
 0001:000004b0       ?NoOpFunction@@YAXAEBV?$FunctionCallbackInfo@VValue@v8@@@Nan@@@Z 00000001800014b0 f   callbackhelper.obj
 0001:000004b0       ?<lambda_invoker_cdecl>@<lambda_3dfaf8b64b7cf2fc5b172c7928b3e65e>@@CAXPEAPEAU__crt_locale_pointers@@@Z 00000001800014b0 f   asyncrt_utils.obj
 0001:000008d0       _register_edge_coreclr     00000001800018d0 f   edge.obj
 0001:0000a07c       $LN51                      000000018000b07c     coreclrfunc.obj
 0001:00012b3c       $LN307                     0000000180013b3c     json.obj
 0001:000132b0       ?_Get@?$_Func_impl_no_alloc@V<lambda_4d230accaedf6552254f517da28f5975>@@_NAEBV?$basic_string@_WU?$char_traits@_W@std@@V?$allocator@_W@2@@std@@@std@@EEBAPEBXXZ 00000001800142b0 f i deps_format.obj
 0001:000132b0       ?_Get@?$_Func_impl_no_alloc@V<lambda_3ecbcb064218a0e060fedd7a51a6c303>@@AEBV?$vector@V?$basic_string@_WU?$char_traits@_W@std@@V?$allocator@_W@2@@std@@V?$allocator@V?$basic_string@_WU?$char_traits@_W@std@@V?$allocator@_W@2@@std@@@2@@std@@AEBV?$basic_string@_WU?$char_traits@_W@std@@V?$allocator@_W@2@@3@HPEA_N@std@@EEBAPEBXXZ 00000001800142b0 f i deps_format.obj
 0001:000132b0       ?_Get@?$_Func_impl_no_alloc@V<lambda_d7d26401c4a9bd2c63ffb2796ee17494>@@AEBV?$vector@V?$basic_string@_WU?$char_traits@_W@std@@V?$allocator@_W@2@@std@@V?$allocator@V?$basic_string@_WU?$char_traits@_W@std@@V?$allocator@_W@2@@std@@@2@@std@@AEBV?$basic_string@_WU?$char_traits@_W@std@@V?$allocator@_W@2@@3@HPEA_N@std@@EEBAPEBXXZ 00000001800142b0 f i deps_format.obj
 0001:000132b0       ?_Get@?$_Func_impl_no_alloc@V<lambda_e116b7db91f39d4e729b0f81b449b227>@@_NAEBV?$basic_string@_WU?$char_traits@_W@std@@V?$allocator@_W@2@@std@@@std@@EEBAPEBXXZ 00000001800142b0 f i deps_format.obj
 0001:000132b0       ?_Get@?$_Func_impl_no_alloc@V<lambda_1aba6256d6a382a5942e3058d6b152f6>@@V?$basic_string@_WU?$char_traits@_W@std@@V?$allocator@_W@2@@std@@AEBV23@@std@@EEBAPEBXXZ 00000001800142b0 f i deps_resolver.obj
 0001:000132b0       ?_Get@?$_Func_impl_no_alloc@V<lambda_b1fdee1dbd1886d8fabb5b08524216ff>@@V?$basic_string@_WU?$char_traits@_W@std@@V?$allocator@_W@2@@std@@AEBV23@@std@@EEBAPEBXXZ 00000001800142b0 f i deps_resolver.obj
 0001:00016f60       ?_parse_narrow_stream@@YA?AVvalue@json@web@@AEAV?$basic_istream@DU?$char_traits@D@std@@@std@@@Z 0000000180017f60 f   json_parsing.obj
 0001:000176cc       $LN397                     00000001800186cc     json_parsing.obj
 0001:000176f8       $LN396                     00000001800186f8     json_parsing.obj
 0001:00017ca4       $LN1090                    0000000180018ca4     json_parsing.obj
 0001:000185bc       $LN342                     00000001800195bc     json_parsing.obj
 0001:000185e4       $LN341                     00000001800195e4     json_parsing.obj
 0001:0001aae8       $LN503                     000000018001bae8     json_serialization.obj
 0001:0001ab08       $LN502                     000000018001bb08     json_serialization.obj
 0001:0001b024       $LN503                     000000018001c024     json_serialization.obj
 0001:0001b044       $LN502                     000000018001c044     json_serialization.obj
 0001:0001b2a0       ?<lambda_invoker_cdecl>@<lambda_5d939bbe9e2a951f9f3a8d775f2365f7>@@CAXPEAPEAU__crt_locale_pointers@@@Z 000000018001c2a0 f   asyncrt_utils.obj
 0001:0001eb90       ?_Delete_this@?$_Func_impl_no_alloc@V<lambda_b1fdee1dbd1886d8fabb5b08524216ff>@@V?$basic_string@_WU?$char_traits@_W@std@@V?$allocator@_W@2@@std@@AEBV23@@std@@EEAAX_N@Z 000000018001fb90 f   deps_resolver.obj
 0001:0001eb90       ?_Delete_this@?$_Func_impl_no_alloc@V<lambda_e116b7db91f39d4e729b0f81b449b227>@@_NAEBV?$basic_string@_WU?$char_traits@_W@std@@V?$allocator@_W@2@@std@@@std@@EEAAX_N@Z 000000018001fb90 f   deps_format.obj
 0001:0001eb90       ?_Delete_this@?$_Func_impl_no_alloc@V<lambda_1aba6256d6a382a5942e3058d6b152f6>@@V?$basic_string@_WU?$char_traits@_W@std@@V?$allocator@_W@2@@std@@AEBV23@@std@@EEAAX_N@Z 000000018001fb90 f   deps_resolver.obj
 0001:0001eb90       ?_Delete_this@?$_Func_impl_no_alloc@V<lambda_d7d26401c4a9bd2c63ffb2796ee17494>@@AEBV?$vector@V?$basic_string@_WU?$char_traits@_W@std@@V?$allocator@_W@2@@std@@V?$allocator@V?$basic_string@_WU?$char_traits@_W@std@@V?$allocator@_W@2@@std@@@2@@std@@AEBV?$basic_string@_WU?$char_traits@_W@std@@V?$allocator@_W@2@@3@HPEA_N@std@@EEAAX_N@Z 000000018001fb90 f   deps_format.obj
 0001:0001eb90       ?_Delete_this@?$_Func_impl_no_alloc@V<lambda_4d230accaedf6552254f517da28f5975>@@_NAEBV?$basic_string@_WU?$char_traits@_W@std@@V?$allocator@_W@2@@std@@@std@@EEAAX_N@Z 000000018001fb90 f   deps_format.obj
 0001:0001eba0       ?_Target_type@?$_Func_impl_no_alloc@V<lambda_d7d26401c4a9bd2c63ffb2796ee17494>@@AEBV?$vector@V?$basic_string@_WU?$char_traits@_W@std@@V?$allocator@_W@2@@std@@V?$allocator@V?$basic_string@_WU?$char_traits@_W@std@@V?$allocator@_W@2@@std@@@2@@std@@AEBV?$basic_string@_WU?$char_traits@_W@std@@V?$allocator@_W@2@@3@HPEA_N@std@@EEBAAEBVtype_info@@XZ 000000018001fba0 f   deps_format.obj
 0001:0001ebb0       ?_Move@?$_Func_impl_no_alloc@V<lambda_d7d26401c4a9bd2c63ffb2796ee17494>@@AEBV?$vector@V?$basic_string@_WU?$char_traits@_W@std@@V?$allocator@_W@2@@std@@V?$allocator@V?$basic_string@_WU?$char_traits@_W@std@@V?$allocator@_W@2@@std@@@2@@std@@AEBV?$basic_string@_WU?$char_traits@_W@std@@V?$allocator@_W@2@@3@HPEA_N@std@@EEAAPEAV?$_Func_base@AEBV?$vector@V?$basic_string@_WU?$char_traits@_W@std@@V?$allocator@_W@2@@std@@V?$allocator@V?$basic_string@_WU?$char_traits@_W@std@@V?$allocator@_W@2@@std@@@2@@std@@AEBV?$basic_string@_WU?$char_traits@_W@std@@V?$allocator@_W@2@@2@HPEA_N@2@PEAX@Z 000000018001fbb0 f   deps_format.obj
 0001:0001ebb0       ?_Copy@?$_Func_impl_no_alloc@V<lambda_d7d26401c4a9bd2c63ffb2796ee17494>@@AEBV?$vector@V?$basic_string@_WU?$char_traits@_W@std@@V?$allocator@_W@2@@std@@V?$allocator@V?$basic_string@_WU?$char_traits@_W@std@@V?$allocator@_W@2@@std@@@2@@std@@AEBV?$basic_string@_WU?$char_traits@_W@std@@V?$allocator@_W@2@@3@HPEA_N@std@@EEBAPEAV?$_Func_base@AEBV?$vector@V?$basic_string@_WU?$char_traits@_W@std@@V?$allocator@_W@2@@std@@V?$allocator@V?$basic_string@_WU?$char_traits@_W@std@@V?$allocator@_W@2@@std@@@2@@std@@AEBV?$basic_string@_WU?$char_traits@_W@std@@V?$allocator@_W@2@@2@HPEA_N@2@PEAX@Z 000000018001fbb0 f   deps_format.obj
 0001:0001ebd0       ?_Target_type@?$_Func_impl_no_alloc@V<lambda_4d230accaedf6552254f517da28f5975>@@_NAEBV?$basic_string@_WU?$char_traits@_W@std@@V?$allocator@_W@2@@std@@@std@@EEBAAEBVtype_info@@XZ 000000018001fbd0 f   deps_format.obj
 0001:0001ebe0       ?_Copy@?$_Func_impl_no_alloc@V<lambda_4d230accaedf6552254f517da28f5975>@@_NAEBV?$basic_string@_WU?$char_traits@_W@std@@V?$allocator@_W@2@@std@@@std@@EEBAPEAV?$_Func_base@_NAEBV?$basic_string@_WU?$char_traits@_W@std@@V?$allocator@_W@2@@std@@@2@PEAX@Z 000000018001fbe0 f   deps_format.obj
 0001:0001ebe0       ?_Move@?$_Func_impl_no_alloc@V<lambda_4d230accaedf6552254f517da28f5975>@@_NAEBV?$basic_string@_WU?$char_traits@_W@std@@V?$allocator@_W@2@@std@@@std@@EEAAPEAV?$_Func_base@_NAEBV?$basic_string@_WU?$char_traits@_W@std@@V?$allocator@_W@2@@std@@@2@PEAX@Z 000000018001fbe0 f   deps_format.obj
 0001:0001ec00       ?_Delete_this@?$_Func_impl_no_alloc@V<lambda_3ecbcb064218a0e060fedd7a51a6c303>@@AEBV?$vector@V?$basic_string@_WU?$char_traits@_W@std@@V?$allocator@_W@2@@std@@V?$allocator@V?$basic_string@_WU?$char_traits@_W@std@@V?$allocator@_W@2@@std@@@2@@std@@AEBV?$basic_string@_WU?$char_traits@_W@std@@V?$allocator@_W@2@@3@HPEA_N@std@@EEAAX_N@Z 000000018001fc00 f   deps_format.obj
 0001:0001ec10       ?_Target_type@?$_Func_impl_no_alloc@V<lambda_3ecbcb064218a0e060fedd7a51a6c303>@@AEBV?$vector@V?$basic_string@_WU?$char_traits@_W@std@@V?$allocator@_W@2@@std@@V?$allocator@V?$basic_string@_WU?$char_traits@_W@std@@V?$allocator@_W@2@@std@@@2@@std@@AEBV?$basic_string@_WU?$char_traits@_W@std@@V?$allocator@_W@2@@3@HPEA_N@std@@EEBAAEBVtype_info@@XZ 000000018001fc10 f   deps_format.obj
 0001:0001ec20       ?_Copy@?$_Func_impl_no_alloc@V<lambda_3ecbcb064218a0e060fedd7a51a6c303>@@AEBV?$vector@V?$basic_string@_WU?$char_traits@_W@std@@V?$allocator@_W@2@@std@@V?$allocator@V?$basic_string@_WU?$char_traits@_W@std@@V?$allocator@_W@2@@std@@@2@@std@@AEBV?$basic_string@_WU?$char_traits@_W@std@@V?$allocator@_W@2@@3@HPEA_N@std@@EEBAPEAV?$_Func_base@AEBV?$vector@V?$basic_string@_WU?$char_traits@_W@std@@V?$allocator@_W@2@@std@@V?$allocator@V?$basic_string@_WU?$char_traits@_W@std@@V?$allocator@_W@2@@std@@@2@@std@@AEBV?$basic_string@_WU?$char_traits@_W@std@@V?$allocator@_W@2@@2@HPEA_N@2@PEAX@Z 000000018001fc20 f   deps_format.obj
 0001:0001ec20       ?_Move@?$_Func_impl_no_alloc@V<lambda_3ecbcb064218a0e060fedd7a51a6c303>@@AEBV?$vector@V?$basic_string@_WU?$char_traits@_W@std@@V?$allocator@_W@2@@std@@V?$allocator@V?$basic_string@_WU?$char_traits@_W@std@@V?$allocator@_W@2@@std@@@2@@std@@AEBV?$basic_string@_WU?$char_traits@_W@std@@V?$allocator@_W@2@@3@HPEA_N@std@@EEAAPEAV?$_Func_base@AEBV?$vector@V?$basic_string@_WU?$char_traits@_W@std@@V?$allocator@_W@2@@std@@V?$allocator@V?$basic_string@_WU?$char_traits@_W@std@@V?$allocator@_W@2@@std@@@2@@std@@AEBV?$basic_string@_WU?$char_traits@_W@std@@V?$allocator@_W@2@@2@HPEA_N@2@PEAX@Z 000000018001fc20 f   deps_format.obj
 0001:0001ec40       ?_Target_type@?$_Func_impl_no_alloc@V<lambda_e116b7db91f39d4e729b0f81b449b227>@@_NAEBV?$basic_string@_WU?$char_traits@_W@std@@V?$allocator@_W@2@@std@@@std@@EEBAAEBVtype_info@@XZ 000000018001fc40 f   deps_format.obj
 0001:0001ec50       ?_Copy@?$_Func_impl_no_alloc@V<lambda_e116b7db91f39d4e729b0f81b449b227>@@_NAEBV?$basic_string@_WU?$char_traits@_W@std@@V?$allocator@_W@2@@std@@@std@@EEBAPEAV?$_Func_base@_NAEBV?$basic_string@_WU?$char_traits@_W@std@@V?$allocator@_W@2@@std@@@2@PEAX@Z 000000018001fc50 f   deps_format.obj
 0001:0001ec50       ?_Move@?$_Func_impl_no_alloc@V<lambda_e116b7db91f39d4e729b0f81b449b227>@@_NAEBV?$basic_string@_WU?$char_traits@_W@std@@V?$allocator@_W@2@@std@@@std@@EEAAPEAV?$_Func_base@_NAEBV?$basic_string@_WU?$char_traits@_W@std@@V?$allocator@_W@2@@std@@@2@PEAX@Z 000000018001fc50 f   deps_format.obj
 0001:0001ec70       ?_Do_call@?$_Func_impl_no_alloc@V<lambda_e116b7db91f39d4e729b0f81b449b227>@@_NAEBV?$basic_string@_WU?$char_traits@_W@std@@V?$allocator@_W@2@@std@@@std@@EEAA_NAEBV?$basic_string@_WU?$char_traits@_W@std@@V?$allocator@_W@2@@2@@Z 000000018001fc70 f   deps_format.obj
 0001:0001ed20       ?_Do_call@?$_Func_impl_no_alloc@V<lambda_3ecbcb064218a0e060fedd7a51a6c303>@@AEBV?$vector@V?$basic_string@_WU?$char_traits@_W@std@@V?$allocator@_W@2@@std@@V?$allocator@V?$basic_string@_WU?$char_traits@_W@std@@V?$allocator@_W@2@@std@@@2@@std@@AEBV?$basic_string@_WU?$char_traits@_W@std@@V?$allocator@_W@2@@3@HPEA_N@std@@EEAAAEBV?$vector@V?$basic_string@_WU?$char_traits@_W@std@@V?$allocator@_W@2@@std@@V?$allocator@V?$basic_string@_WU?$char_traits@_W@std@@V?$allocator@_W@2@@std@@@2@@2@AEBV?$basic_string@_WU?$char_traits@_W@std@@V?$allocator@_W@2@@2@$$QEAH$$QEAPEA_N@Z 000000018001fd20 f   deps_format.obj
 0001:0001ee60       ?_Do_call@?$_Func_impl_no_alloc@V<lambda_4d230accaedf6552254f517da28f5975>@@_NAEBV?$basic_string@_WU?$char_traits@_W@std@@V?$allocator@_W@2@@std@@@std@@EEAA_NAEBV?$basic_string@_WU?$char_traits@_W@std@@V?$allocator@_W@2@@2@@Z 000000018001fe60 f   deps_format.obj
 0001:0001eeb0       ?_Do_call@?$_Func_impl_no_alloc@V<lambda_d7d26401c4a9bd2c63ffb2796ee17494>@@AEBV?$vector@V?$basic_string@_WU?$char_traits@_W@std@@V?$allocator@_W@2@@std@@V?$allocator@V?$basic_string@_WU?$char_traits@_W@std@@V?$allocator@_W@2@@std@@@2@@std@@AEBV?$basic_string@_WU?$char_traits@_W@std@@V?$allocator@_W@2@@3@HPEA_N@std@@EEAAAEBV?$vector@V?$basic_string@_WU?$char_traits@_W@std@@V?$allocator@_W@2@@std@@V?$allocator@V?$basic_string@_WU?$char_traits@_W@std@@V?$allocator@_W@2@@std@@@2@@2@AEBV?$basic_string@_WU?$char_traits@_W@std@@V?$allocator@_W@2@@2@$$QEAH$$QEAPEA_N@Z 000000018001feb0 f   deps_format.obj
 0001:00021320       ?add_tpa_asset@?A0x19dcf86a@@YAXAEBV?$basic_string@_WU?$char_traits@_W@std@@V?$allocator@_W@2@@std@@0PEAV?$unordered_set@V?$basic_string@_WU?$char_traits@_W@std@@V?$allocator@_W@2@@std@@U?$hash@V?$basic_string@_WU?$char_traits@_W@std@@V?$allocator@_W@2@@std@@@2@U?$equal_to@V?$basic_string@_WU?$char_traits@_W@std@@V?$allocator@_W@2@@std@@@2@V?$allocator@V?$basic_string@_WU?$char_traits@_W@std@@V?$allocator@_W@2@@std@@@2@@3@PEAV23@@Z 0000000180022320 f   deps_resolver.obj
 0001:000214a0       ?add_unique_path@?A0x19dcf86a@@YAXW4asset_types@deps_entry_t@@AEBV?$basic_string@_WU?$char_traits@_W@std@@V?$allocator@_W@2@@std@@PEAV?$unordered_set@V?$basic_string@_WU?$char_traits@_W@std@@V?$allocator@_W@2@@std@@U?$hash@V?$basic_string@_WU?$char_traits@_W@std@@V?$allocator@_W@2@@std@@@2@U?$equal_to@V?$basic_string@_WU?$char_traits@_W@std@@V?$allocator@_W@2@@std@@@2@V?$allocator@V?$basic_string@_WU?$char_traits@_W@std@@V?$allocator@_W@2@@std@@@2@@5@PEAV45@31@Z 00000001800224a0 f   deps_resolver.obj
 0001:00023340       ??R<lambda_630da18592faaf2e7b6750ea6c199822>@@QEBA_NAEBV?$basic_string@_WU?$char_traits@_W@std@@V?$allocator@_W@2@@std@@PEAVdeps_json_t@@AEBUdeps_entry_t@@@Z 0000000180024340 f   deps_resolver.obj
 0001:000241c0       ??R<lambda_ce37e563d1dc9192d1c4d54befabd244>@@QEBA_NAEBUdeps_entry_t@@AEBV?$basic_string@_WU?$char_traits@_W@std@@V?$allocator@_W@2@@std@@@Z 00000001800251c0 f   deps_resolver.obj
 0001:000255e0       ?_Target_type@?$_Func_impl_no_alloc@V<lambda_b1fdee1dbd1886d8fabb5b08524216ff>@@V?$basic_string@_WU?$char_traits@_W@std@@V?$allocator@_W@2@@std@@AEBV23@@std@@EEBAAEBVtype_info@@XZ 00000001800265e0 f   deps_resolver.obj
 0001:000255f0       ?_Copy@?$_Func_impl_no_alloc@V<lambda_b1fdee1dbd1886d8fabb5b08524216ff>@@V?$basic_string@_WU?$char_traits@_W@std@@V?$allocator@_W@2@@std@@AEBV23@@std@@EEBAPEAV?$_Func_base@V?$basic_string@_WU?$char_traits@_W@std@@V?$allocator@_W@2@@std@@AEBV12@@2@PEAX@Z 00000001800265f0 f   deps_resolver.obj
 0001:000255f0       ?_Move@?$_Func_impl_no_alloc@V<lambda_b1fdee1dbd1886d8fabb5b08524216ff>@@V?$basic_string@_WU?$char_traits@_W@std@@V?$allocator@_W@2@@std@@AEBV23@@std@@EEAAPEAV?$_Func_base@V?$basic_string@_WU?$char_traits@_W@std@@V?$allocator@_W@2@@std@@AEBV12@@2@PEAX@Z 00000001800265f0 f   deps_resolver.obj
 0001:00025600       ?_Target_type@?$_Func_impl_no_alloc@V<lambda_1aba6256d6a382a5942e3058d6b152f6>@@V?$basic_string@_WU?$char_traits@_W@std@@V?$allocator@_W@2@@std@@AEBV23@@std@@EEBAAEBVtype_info@@XZ 0000000180026600 f   deps_resolver.obj
 0001:00025610       ?_Move@?$_Func_impl_no_alloc@V<lambda_1aba6256d6a382a5942e3058d6b152f6>@@V?$basic_string@_WU?$char_traits@_W@std@@V?$allocator@_W@2@@std@@AEBV23@@std@@EEAAPEAV?$_Func_base@V?$basic_string@_WU?$char_traits@_W@std@@V?$allocator@_W@2@@std@@AEBV12@@2@PEAX@Z 0000000180026610 f   deps_resolver.obj
 0001:00025610       ?_Copy@?$_Func_impl_no_alloc@V<lambda_1aba6256d6a382a5942e3058d6b152f6>@@V?$basic_string@_WU?$char_traits@_W@std@@V?$allocator@_W@2@@std@@AEBV23@@std@@EEBAPEAV?$_Func_base@V?$basic_string@_WU?$char_traits@_W@std@@V?$allocator@_W@2@@std@@AEBV12@@2@PEAX@Z 0000000180026610 f   deps_resolver.obj
 0001:00025950       ?_Do_call@?$_Func_impl_no_alloc@V<lambda_1aba6256d6a382a5942e3058d6b152f6>@@V?$basic_string@_WU?$char_traits@_W@std@@V?$allocator@_W@2@@std@@AEBV23@@std@@EEAA?AV?$basic_string@_WU?$char_traits@_W@std@@V?$allocator@_W@2@@2@AEBV32@@Z 0000000180026950 f   deps_resolver.obj
 0001:00025a80       ?_Do_call@?$_Func_impl_no_alloc@V<lambda_b1fdee1dbd1886d8fabb5b08524216ff>@@V?$basic_string@_WU?$char_traits@_W@std@@V?$allocator@_W@2@@std@@AEBV23@@std@@EEAA?AV?$basic_string@_WU?$char_traits@_W@std@@V?$allocator@_W@2@@2@AEBV32@@Z 0000000180026a80 f   deps_resolver.obj
 0001:000284f0       ?wchar_convert_helper@@YA_NKPEBDHPEAV?$basic_string@_WU?$char_traits@_W@std@@V?$allocator@_W@2@@std@@@Z 00000001800294f0 f   pal.windows.obj
 0001:00028cf0       $$000000                   0000000180029cf0     MSVCRT:amdsecgs.obj
 0001:00028ea8       ?__scrt_initialize_thread_safe_statics@@YAHXZ 0000000180029ea8 f   MSVCRT:thread_safe_statics.obj
 0001:00029008       ?__scrt_uninitialize_thread_safe_statics@@YAXXZ 000000018002a008 f   MSVCRT:thread_safe_statics.obj
 0001:000295d8       ?dllmain_crt_dispatch@@YAHQEAUHINSTANCE__@@KQEAX@Z 000000018002a5d8 f   MSVCRT:dll_dllmain.obj
 0001:00029628       ?dllmain_crt_process_attach@@YAHQEAUHINSTANCE__@@QEAX@Z 000000018002a628 f   MSVCRT:dll_dllmain.obj
 0001:00029744       ?dllmain_crt_process_detach@@YAH_N@Z 000000018002a744 f   MSVCRT:dll_dllmain.obj
 0001:000297d4       ?dllmain_dispatch@@YAHQEAUHINSTANCE__@@KQEAX@Z 000000018002a7d4 f   MSVCRT:dll_dllmain.obj
 0001:00029a50       capture_previous_context   000000018002aa50 f   MSVCRT:gs_report.obj
 0001:0002a260       $$000000                   000000018002b260     MSVCRT:chkstk.obj
 0001:0002a2d0       $$000000                   000000018002b2d0     MSVCRT:guard_dispatch.obj
 0001:0002a2f0       ?dtor$0@?0??continueOnV8Thread@@YAXPEAUuv_async_s@@H@Z@4HA 000000018002b2f0 f   v8synchronizationcontext.obj
 0001:0002a2f0       ?dtor$0@?0??coreClrV8FuncCallback@@YAXAEBV?$FunctionCallbackInfo@VValue@v8@@@Nan@@@Z@4HA 000000018002b2f0 f   coreclrnodejsfuncinvokecontext.obj
 0001:0002a2f0       ?dtor$0@?0??coreClrFuncProxy@@YAXAEBV?$FunctionCallbackInfo@VValue@v8@@@Nan@@@Z@4HA 000000018002b2f0 f   coreclrfunc.obj
 0001:0002a2f0       ?dtor$0@?0??throwV8Exception@@YA?AV?$Local@VValue@v8@@@v8@@V12@@Z@4HA 000000018002b2f0 f   utils.obj
 0001:0002a300       ?dtor$0@?0??Call@Callback@Nan@@QEBA?AV?$Local@VValue@v8@@@v8@@HQEAV34@@Z@4HA 000000018002b300 f   callbackhelper.obj
 0001:0002a310       ?dtor$1@?0??Call@Callback@Nan@@QEBA?AV?$Local@VValue@v8@@@v8@@HQEAV34@@Z@4HA 000000018002b310 f   callbackhelper.obj
 0001:0002a320       ?dtor$0@?0??Initialize@CallbackHelper@@SAXXZ@4HA 000000018002b320 f   callbackhelper.obj
 0001:0002a340       ?dtor$1@?0??Initialize@CallbackHelper@@SAXXZ@4HA 000000018002b340 f   callbackhelper.obj
 0001:0002a340       ?dtor$10@?0??MarshalCLRToV8@CoreClrFunc@@SA?AV?$Local@VValue@v8@@@v8@@PEAXH@Z@4HA 000000018002b340 f   coreclrfunc.obj
 0001:0002a340       ?dtor$0@?0???$New@VFunctionTemplate@v8@@@Nan@@YA?AV?$Local@VFunctionTemplate@v8@@@v8@@P6AXAEBV?$FunctionCallbackInfo@VValue@v8@@@0@@ZV?$Local@VValue@v8@@@2@@Z@4HA 000000018002b340 f   edge.obj
 0001:0002a340       ?dtor$4@?0??MarshalCLRToV8@CoreClrFunc@@SA?AV?$Local@VValue@v8@@@v8@@PEAXH@Z@4HA 000000018002b340 f   coreclrfunc.obj
 0001:0002a350       ?dtor$6@?0??InvokeCallback@CoreClrNodejsFuncInvokeContext@@SAXPEAX@Z@4HA 000000018002b350 f   coreclrnodejsfuncinvokecontext.obj
 0001:0002a350       ?dtor$2@?0??Initialize@CallbackHelper@@SAXXZ@4HA 000000018002b350 f   callbackhelper.obj
 0001:0002a350       ?dtor$1@?0???$New@VFunctionTemplate@v8@@@Nan@@YA?AV?$Local@VFunctionTemplate@v8@@@v8@@P6AXAEBV?$FunctionCallbackInfo@VValue@v8@@@0@@ZV?$Local@VValue@v8@@@2@@Z@4HA 000000018002b350 f   edge.obj
 0001:0002a360       ?dtor$0@?0??init@@YAXV?$Local@VObject@v8@@@v8@@@Z@4HA 000000018002b360 f   edge.obj
 0001:0002a370       ?dtor$0@?0???0deps_json_t@@QEAA@_NAEBV?$basic_string@_WU?$char_traits@_W@std@@V?$allocator@_W@2@@std@@AEBV?$unordered_map@V?$basic_string@_WU?$char_traits@_W@std@@V?$allocator@_W@2@@std@@V?$vector@V?$basic_string@_WU?$char_traits@_W@std@@V?$allocator@_W@2@@std@@V?$allocator@V?$basic_string@_WU?$char_traits@_W@std@@V?$allocator@_W@2@@std@@@2@@2@U?$hash@V?$basic_string@_WU?$char_traits@_W@std@@V?$allocator@_W@2@@std@@@2@U?$equal_to@V?$basic_string@_WU?$char_traits@_W@std@@V?$allocator@_W@2@@std@@@2@V?$allocator@U?$pair@$$CBV?$basic_string@_WU?$char_traits@_W@std@@V?$allocator@_W@2@@std@@V?$vector@V?$basic_string@_WU?$char_traits@_W@std@@V?$allocator@_W@2@@std@@V?$allocator@V?$basic_string@_WU?$char_traits@_W@std@@V?$allocator@_W@2@@std@@@2@@2@@std@@@2@@2@@Z@4HA 000000018002b370 f   coreclrembedding.obj
 0001:0002a380       ?dtor$1@?0???0deps_json_t@@QEAA@_NAEBV?$basic_string@_WU?$char_traits@_W@std@@V?$allocator@_W@2@@std@@AEBV?$unordered_map@V?$basic_string@_WU?$char_traits@_W@std@@V?$allocator@_W@2@@std@@V?$vector@V?$basic_string@_WU?$char_traits@_W@std@@V?$allocator@_W@2@@std@@V?$allocator@V?$basic_string@_WU?$char_traits@_W@std@@V?$allocator@_W@2@@std@@@2@@2@U?$hash@V?$basic_string@_WU?$char_traits@_W@std@@V?$allocator@_W@2@@std@@@2@U?$equal_to@V?$basic_string@_WU?$char_traits@_W@std@@V?$allocator@_W@2@@std@@@2@V?$allocator@U?$pair@$$CBV?$basic_string@_WU?$char_traits@_W@std@@V?$allocator@_W@2@@std@@V?$vector@V?$basic_string@_WU?$char_traits@_W@std@@V?$allocator@_W@2@@std@@V?$allocator@V?$basic_string@_WU?$char_traits@_W@std@@V?$allocator@_W@2@@std@@@2@@2@@std@@@2@@2@@Z@4HA 000000018002b380 f   coreclrembedding.obj
 0001:0002a3b0       ?dtor$2@?0???0deps_json_t@@QEAA@_NAEBV?$basic_string@_WU?$char_traits@_W@std@@V?$allocator@_W@2@@std@@AEBV?$unordered_map@V?$basic_string@_WU?$char_traits@_W@std@@V?$allocator@_W@2@@std@@V?$vector@V?$basic_string@_WU?$char_traits@_W@std@@V?$allocator@_W@2@@std@@V?$allocator@V?$basic_string@_WU?$char_traits@_W@std@@V?$allocator@_W@2@@std@@@2@@2@U?$hash@V?$basic_string@_WU?$char_traits@_W@std@@V?$allocator@_W@2@@std@@@2@U?$equal_to@V?$basic_string@_WU?$char_traits@_W@std@@V?$allocator@_W@2@@std@@@2@V?$allocator@U?$pair@$$CBV?$basic_string@_WU?$char_traits@_W@std@@V?$allocator@_W@2@@std@@V?$vector@V?$basic_string@_WU?$char_traits@_W@std@@V?$allocator@_W@2@@std@@V?$allocator@V?$basic_string@_WU?$char_traits@_W@std@@V?$allocator@_W@2@@std@@@2@@2@@std@@@2@@2@@Z@4HA 000000018002b3b0 f   coreclrembedding.obj
 0001:0002a3c0       ?dtor$3@?0???0deps_json_t@@QEAA@_NAEBV?$basic_string@_WU?$char_traits@_W@std@@V?$allocator@_W@2@@std@@AEBV?$unordered_map@V?$basic_string@_WU?$char_traits@_W@std@@V?$allocator@_W@2@@std@@V?$vector@V?$basic_string@_WU?$char_traits@_W@std@@V?$allocator@_W@2@@std@@V?$allocator@V?$basic_string@_WU?$char_traits@_W@std@@V?$allocator@_W@2@@std@@@2@@2@U?$hash@V?$basic_string@_WU?$char_traits@_W@std@@V?$allocator@_W@2@@std@@@2@U?$equal_to@V?$basic_string@_WU?$char_traits@_W@std@@V?$allocator@_W@2@@std@@@2@V?$allocator@U?$pair@$$CBV?$basic_string@_WU?$char_traits@_W@std@@V?$allocator@_W@2@@std@@V?$vector@V?$basic_string@_WU?$char_traits@_W@std@@V?$allocator@_W@2@@std@@V?$allocator@V?$basic_string@_WU?$char_traits@_W@std@@V?$allocator@_W@2@@std@@@2@@2@@std@@@2@@2@@Z@4HA 000000018002b3c0 f   coreclrembedding.obj
 0001:0002a3e0       ?dtor$4@?0???0deps_json_t@@QEAA@_NAEBV?$basic_string@_WU?$char_traits@_W@std@@V?$allocator@_W@2@@std@@AEBV?$unordered_map@V?$basic_string@_WU?$char_traits@_W@std@@V?$allocator@_W@2@@std@@V?$vector@V?$basic_string@_WU?$char_traits@_W@std@@V?$allocator@_W@2@@std@@V?$allocator@V?$basic_string@_WU?$char_traits@_W@std@@V?$allocator@_W@2@@std@@@2@@2@U?$hash@V?$basic_string@_WU?$char_traits@_W@std@@V?$allocator@_W@2@@std@@@2@U?$equal_to@V?$basic_string@_WU?$char_traits@_W@std@@V?$allocator@_W@2@@std@@@2@V?$allocator@U?$pair@$$CBV?$basic_string@_WU?$char_traits@_W@std@@V?$allocator@_W@2@@std@@V?$vector@V?$basic_string@_WU?$char_traits@_W@std@@V?$allocator@_W@2@@std@@V?$allocator@V?$basic_string@_WU?$char_traits@_W@std@@V?$allocator@_W@2@@std@@@2@@2@@std@@@2@@2@@Z@4HA 000000018002b3e0 f   coreclrembedding.obj
 0001:0002a400       ?dtor$9@?0???0deps_json_t@@QEAA@_NAEBV?$basic_string@_WU?$char_traits@_W@std@@V?$allocator@_W@2@@std@@AEBV?$unordered_map@V?$basic_string@_WU?$char_traits@_W@std@@V?$allocator@_W@2@@std@@V?$vector@V?$basic_string@_WU?$char_traits@_W@std@@V?$allocator@_W@2@@std@@V?$allocator@V?$basic_string@_WU?$char_traits@_W@std@@V?$allocator@_W@2@@std@@@2@@2@U?$hash@V?$basic_string@_WU?$char_traits@_W@std@@V?$allocator@_W@2@@std@@@2@U?$equal_to@V?$basic_string@_WU?$char_traits@_W@std@@V?$allocator@_W@2@@std@@@2@V?$allocator@U?$pair@$$CBV?$basic_string@_WU?$char_traits@_W@std@@V?$allocator@_W@2@@std@@V?$vector@V?$basic_string@_WU?$char_traits@_W@std@@V?$allocator@_W@2@@std@@V?$allocator@V?$basic_string@_WU?$char_traits@_W@std@@V?$allocator@_W@2@@std@@@2@@2@@std@@@2@@2@@Z@4HA 000000018002b400 f   coreclrembedding.obj
 0001:0002a410       ?dtor$10@?0???0deps_json_t@@QEAA@_NAEBV?$basic_string@_WU?$char_traits@_W@std@@V?$allocator@_W@2@@std@@AEBV?$unordered_map@V?$basic_string@_WU?$char_traits@_W@std@@V?$allocator@_W@2@@std@@V?$vector@V?$basic_string@_WU?$char_traits@_W@std@@V?$allocator@_W@2@@std@@V?$allocator@V?$basic_string@_WU?$char_traits@_W@std@@V?$allocator@_W@2@@std@@@2@@2@U?$hash@V?$basic_string@_WU?$char_traits@_W@std@@V?$allocator@_W@2@@std@@@2@U?$equal_to@V?$basic_string@_WU?$char_traits@_W@std@@V?$allocator@_W@2@@std@@@2@V?$allocator@U?$pair@$$CBV?$basic_string@_WU?$char_traits@_W@std@@V?$allocator@_W@2@@std@@V?$vector@V?$basic_string@_WU?$char_traits@_W@std@@V?$allocator@_W@2@@std@@V?$allocator@V?$basic_string@_WU?$char_traits@_W@std@@V?$allocator@_W@2@@std@@@2@@2@@std@@@2@@2@@Z@4HA 000000018002b410 f   coreclrembedding.obj
 0001:0002a420       ?dtor$14@?0???0deps_json_t@@QEAA@_NAEBV?$basic_string@_WU?$char_traits@_W@std@@V?$allocator@_W@2@@std@@AEBV?$unordered_map@V?$basic_string@_WU?$char_traits@_W@std@@V?$allocator@_W@2@@std@@V?$vector@V?$basic_string@_WU?$char_traits@_W@std@@V?$allocator@_W@2@@std@@V?$allocator@V?$basic_string@_WU?$char_traits@_W@std@@V?$allocator@_W@2@@std@@@2@@2@U?$hash@V?$basic_string@_WU?$char_traits@_W@std@@V?$allocator@_W@2@@std@@@2@U?$equal_to@V?$basic_string@_WU?$char_traits@_W@std@@V?$allocator@_W@2@@std@@@2@V?$allocator@U?$pair@$$CBV?$basic_string@_WU?$char_traits@_W@std@@V?$allocator@_W@2@@std@@V?$vector@V?$basic_string@_WU?$char_traits@_W@std@@V?$allocator@_W@2@@std@@V?$allocator@V?$basic_string@_WU?$char_traits@_W@std@@V?$allocator@_W@2@@std@@@2@@2@@std@@@2@@2@@Z@4HA 000000018002b420 f   coreclrembedding.obj
 0001:0002a430       ?dtor$2@?0???0?$unordered_map@V?$basic_string@_WU?$char_traits@_W@std@@V?$allocator@_W@2@@std@@V12@U?$hash@V?$basic_string@_WU?$char_traits@_W@std@@V?$allocator@_W@2@@std@@@2@U?$equal_to@V?$basic_string@_WU?$char_traits@_W@std@@V?$allocator@_W@2@@std@@@2@V?$allocator@U?$pair@$$CBV?$basic_string@_WU?$char_traits@_W@std@@V?$allocator@_W@2@@std@@V12@@std@@@2@@std@@QEAA@XZ@4HA 000000018002b430 f   coreclrembedding.obj
 0001:0002a430       ?dtor$2@?0???0?$unordered_set@V?$basic_string@_WU?$char_traits@_W@std@@V?$allocator@_W@2@@std@@U?$hash@V?$basic_string@_WU?$char_traits@_W@std@@V?$allocator@_W@2@@std@@@2@U?$equal_to@V?$basic_string@_WU?$char_traits@_W@std@@V?$allocator@_W@2@@std@@@2@V?$allocator@V?$basic_string@_WU?$char_traits@_W@std@@V?$allocator@_W@2@@std@@@2@@std@@QEAA@XZ@4HA 000000018002b430 f   coreclrembedding.obj
 0001:0002a430       ?dtor$2@?0???0?$unordered_map@V?$basic_string@_WU?$char_traits@_W@std@@V?$allocator@_W@2@@std@@Uassets_t@deps_json_t@@U?$hash@V?$basic_string@_WU?$char_traits@_W@std@@V?$allocator@_W@2@@std@@@2@U?$equal_to@V?$basic_string@_WU?$char_traits@_W@std@@V?$allocator@_W@2@@std@@@2@V?$allocator@U?$pair@$$CBV?$basic_string@_WU?$char_traits@_W@std@@V?$allocator@_W@2@@std@@Uassets_t@deps_json_t@@@std@@@2@@std@@QEAA@XZ@4HA 000000018002b430 f   coreclrembedding.obj
 0001:0002a430       ?dtor$2@?0???0?$unordered_map@V?$basic_string@_WU?$char_traits@_W@std@@V?$allocator@_W@2@@std@@V?$vector@V?$basic_string@_WU?$char_traits@_W@std@@V?$allocator@_W@2@@std@@V?$allocator@V?$basic_string@_WU?$char_traits@_W@std@@V?$allocator@_W@2@@std@@@2@@2@U?$hash@V?$basic_string@_WU?$char_traits@_W@std@@V?$allocator@_W@2@@std@@@2@U?$equal_to@V?$basic_string@_WU?$char_traits@_W@std@@V?$allocator@_W@2@@std@@@2@V?$allocator@U?$pair@$$CBV?$basic_string@_WU?$char_traits@_W@std@@V?$allocator@_W@2@@std@@V?$vector@V?$basic_string@_WU?$char_traits@_W@std@@V?$allocator@_W@2@@std@@V?$allocator@V?$basic_string@_WU?$char_traits@_W@std@@V?$allocator@_W@2@@std@@@2@@2@@std@@@2@@std@@QEAA@XZ@4HA 000000018002b430 f   coreclrembedding.obj
 0001:0002a430       ?dtor$15@?0???0deps_json_t@@QEAA@_NAEBV?$basic_string@_WU?$char_traits@_W@std@@V?$allocator@_W@2@@std@@AEBV?$unordered_map@V?$basic_string@_WU?$char_traits@_W@std@@V?$allocator@_W@2@@std@@V?$vector@V?$basic_string@_WU?$char_traits@_W@std@@V?$allocator@_W@2@@std@@V?$allocator@V?$basic_string@_WU?$char_traits@_W@std@@V?$allocator@_W@2@@std@@@2@@2@U?$hash@V?$basic_string@_WU?$char_traits@_W@std@@V?$allocator@_W@2@@std@@@2@U?$equal_to@V?$basic_string@_WU?$char_traits@_W@std@@V?$allocator@_W@2@@std@@@2@V?$allocator@U?$pair@$$CBV?$basic_string@_WU?$char_traits@_W@std@@V?$allocator@_W@2@@std@@V?$vector@V?$basic_string@_WU?$char_traits@_W@std@@V?$allocator@_W@2@@std@@V?$allocator@V?$basic_string@_WU?$char_traits@_W@std@@V?$allocator@_W@2@@std@@@2@@2@@std@@@2@@2@@Z@4HA 000000018002b430 f   coreclrembedding.obj
 0001:0002a440       ?dtor$0@?0???0corehost_init_t@@QEAA@AEBV?$basic_string@_WU?$char_traits@_W@std@@V?$allocator@_W@2@@std@@AEBV?$vector@V?$basic_string@_WU?$char_traits@_W@std@@V?$allocator@_W@2@@std@@V?$allocator@V?$basic_string@_WU?$char_traits@_W@std@@V?$allocator@_W@2@@std@@@2@@2@0W4host_mode_t@@AEBVruntime_config_t@@@Z@4HA 000000018002b440 f   coreclrembedding.obj
 0001:0002a450       ?dtor$1@?0???0corehost_init_t@@QEAA@AEBV?$basic_string@_WU?$char_traits@_W@std@@V?$allocator@_W@2@@std@@AEBV?$vector@V?$basic_string@_WU?$char_traits@_W@std@@V?$allocator@_W@2@@std@@V?$allocator@V?$basic_string@_WU?$char_traits@_W@std@@V?$allocator@_W@2@@std@@@2@@2@0W4host_mode_t@@AEBVruntime_config_t@@@Z@4HA 000000018002b450 f   coreclrembedding.obj
 0001:0002a460       ?dtor$2@?0???0corehost_init_t@@QEAA@AEBV?$basic_string@_WU?$char_traits@_W@std@@V?$allocator@_W@2@@std@@AEBV?$vector@V?$basic_string@_WU?$char_traits@_W@std@@V?$allocator@_W@2@@std@@V?$allocator@V?$basic_string@_WU?$char_traits@_W@std@@V?$allocator@_W@2@@std@@@2@@2@0W4host_mode_t@@AEBVruntime_config_t@@@Z@4HA 000000018002b460 f   coreclrembedding.obj
 0001:0002a470       ?dtor$3@?0???0corehost_init_t@@QEAA@AEBV?$basic_string@_WU?$char_traits@_W@std@@V?$allocator@_W@2@@std@@AEBV?$vector@V?$basic_string@_WU?$char_traits@_W@std@@V?$allocator@_W@2@@std@@V?$allocator@V?$basic_string@_WU?$char_traits@_W@std@@V?$allocator@_W@2@@std@@@2@@2@0W4host_mode_t@@AEBVruntime_config_t@@@Z@4HA 000000018002b470 f   coreclrembedding.obj
 0001:0002a480       ?dtor$4@?0???0corehost_init_t@@QEAA@AEBV?$basic_string@_WU?$char_traits@_W@std@@V?$allocator@_W@2@@std@@AEBV?$vector@V?$basic_string@_WU?$char_traits@_W@std@@V?$allocator@_W@2@@std@@V?$allocator@V?$basic_string@_WU?$char_traits@_W@std@@V?$allocator@_W@2@@std@@@2@@2@0W4host_mode_t@@AEBVruntime_config_t@@@Z@4HA 000000018002b480 f   coreclrembedding.obj
 0001:0002a490       ?dtor$5@?0???0corehost_init_t@@QEAA@AEBV?$basic_string@_WU?$char_traits@_W@std@@V?$allocator@_W@2@@std@@AEBV?$vector@V?$basic_string@_WU?$char_traits@_W@std@@V?$allocator@_W@2@@std@@V?$allocator@V?$basic_string@_WU?$char_traits@_W@std@@V?$allocator@_W@2@@std@@@2@@2@0W4host_mode_t@@AEBVruntime_config_t@@@Z@4HA 000000018002b490 f   coreclrembedding.obj
 0001:0002a4b0       ?dtor$6@?0???0corehost_init_t@@QEAA@AEBV?$basic_string@_WU?$char_traits@_W@std@@V?$allocator@_W@2@@std@@AEBV?$vector@V?$basic_string@_WU?$char_traits@_W@std@@V?$allocator@_W@2@@std@@V?$allocator@V?$basic_string@_WU?$char_traits@_W@std@@V?$allocator@_W@2@@std@@@2@@2@0W4host_mode_t@@AEBVruntime_config_t@@@Z@4HA 000000018002b4b0 f   coreclrembedding.obj
 0001:0002a4d0       ?dtor$7@?0???0corehost_init_t@@QEAA@AEBV?$basic_string@_WU?$char_traits@_W@std@@V?$allocator@_W@2@@std@@AEBV?$vector@V?$basic_string@_WU?$char_traits@_W@std@@V?$allocator@_W@2@@std@@V?$allocator@V?$basic_string@_WU?$char_traits@_W@std@@V?$allocator@_W@2@@std@@@2@@2@0W4host_mode_t@@AEBVruntime_config_t@@@Z@4HA 000000018002b4d0 f   coreclrembedding.obj
 0001:0002a4f0       ?dtor$8@?0???0corehost_init_t@@QEAA@AEBV?$basic_string@_WU?$char_traits@_W@std@@V?$allocator@_W@2@@std@@AEBV?$vector@V?$basic_string@_WU?$char_traits@_W@std@@V?$allocator@_W@2@@std@@V?$allocator@V?$basic_string@_WU?$char_traits@_W@std@@V?$allocator@_W@2@@std@@@2@@2@0W4host_mode_t@@AEBVruntime_config_t@@@Z@4HA 000000018002b4f0 f   coreclrembedding.obj
 0001:0002a510       ?dtor$9@?0???0corehost_init_t@@QEAA@AEBV?$basic_string@_WU?$char_traits@_W@std@@V?$allocator@_W@2@@std@@AEBV?$vector@V?$basic_string@_WU?$char_traits@_W@std@@V?$allocator@_W@2@@std@@V?$allocator@V?$basic_string@_WU?$char_traits@_W@std@@V?$allocator@_W@2@@std@@@2@@2@0W4host_mode_t@@AEBVruntime_config_t@@@Z@4HA 000000018002b510 f   coreclrembedding.obj
 0001:0002a530       ?dtor$7@?0??setup_probe_config@deps_resolver_t@@QEAAXAEBUhostpolicy_init_t@@AEBUarguments_t@@@Z@4HA 000000018002b530 f   deps_resolver.obj
 0001:0002a530       ?dtor$0@?0??setup_api_sets@pal@@YAXAEBV?$unordered_set@V?$basic_string@_WU?$char_traits@_W@std@@V?$allocator@_W@2@@std@@U?$hash@V?$basic_string@_WU?$char_traits@_W@std@@V?$allocator@_W@2@@std@@@2@U?$equal_to@V?$basic_string@_WU?$char_traits@_W@std@@V?$allocator@_W@2@@std@@@2@V?$allocator@V?$basic_string@_WU?$char_traits@_W@std@@V?$allocator@_W@2@@std@@@2@@std@@@Z@4HA 000000018002b530 f   pal.windows.obj
 0001:0002a530       ?dtor$1@?0??readdir@pal@@YAXAEBV?$basic_string@_WU?$char_traits@_W@std@@V?$allocator@_W@2@@std@@0PEAV?$vector@V?$basic_string@_WU?$char_traits@_W@std@@V?$allocator@_W@2@@std@@V?$allocator@V?$basic_string@_WU?$char_traits@_W@std@@V?$allocator@_W@2@@std@@@2@@3@@Z@4HA 000000018002b530 f   pal.windows.obj
 0001:0002a530       ?dtor$3@?0??setup_probe_config@deps_resolver_t@@QEAAXAEBUhostpolicy_init_t@@AEBUarguments_t@@@Z@4HA 000000018002b530 f   deps_resolver.obj
 0001:0002a530       ?dtor$4@?0??parse_internal@@YA_NAEBV?$basic_string@_WU?$char_traits@_W@std@@V?$allocator@_W@2@@std@@PEAUfx_ver_t@@_N@Z@4HA 000000018002b530 f   fx_ver.obj
 0001:0002a530       ?dtor$1@?0???0json_exception@json@web@@QEAA@AEBQEB_W@Z@4HA 000000018002b530 f   fx_muxer.obj
 0001:0002a530       ?dtor$1@?0??setup_probe_config@deps_resolver_t@@QEAAXAEBUhostpolicy_init_t@@AEBUarguments_t@@@Z@4HA 000000018002b530 f   deps_resolver.obj
 0001:0002a530       ?dtor$6@?0??setup_probe_config@deps_resolver_t@@QEAAXAEBUhostpolicy_init_t@@AEBUarguments_t@@@Z@4HA 000000018002b530 f   deps_resolver.obj
 0001:0002a530       ?dtor$0@?0??parse_internal@@YA_NAEBV?$basic_string@_WU?$char_traits@_W@std@@V?$allocator@_W@2@@std@@PEAUfx_ver_t@@_N@Z@4HA 000000018002b530 f   fx_ver.obj
 0001:0002a530       ?dtor$5@?0??setup_probe_config@deps_resolver_t@@QEAAXAEBUhostpolicy_init_t@@AEBUarguments_t@@@Z@4HA 000000018002b530 f   deps_resolver.obj
 0001:0002a530       ?dtor$7@?0??parse_internal@@YA_NAEBV?$basic_string@_WU?$char_traits@_W@std@@V?$allocator@_W@2@@std@@PEAUfx_ver_t@@_N@Z@4HA 000000018002b530 f   fx_ver.obj
 0001:0002a530       ?dtor$31@?0??parse_internal@@YA_NAEBV?$basic_string@_WU?$char_traits@_W@std@@V?$allocator@_W@2@@std@@PEAUfx_ver_t@@_N@Z@4HA 000000018002b530 f   fx_ver.obj
 0001:0002a530       ?dtor$2@?0??parse_internal@@YA_NAEBV?$basic_string@_WU?$char_traits@_W@std@@V?$allocator@_W@2@@std@@PEAUfx_ver_t@@_N@Z@4HA 000000018002b530 f   fx_ver.obj
 0001:0002a530       ?dtor$1@?0??parse_internal@@YA_NAEBV?$basic_string@_WU?$char_traits@_W@std@@V?$allocator@_W@2@@std@@PEAUfx_ver_t@@_N@Z@4HA 000000018002b530 f   fx_ver.obj
 0001:0002a530       ?dtor$0@?0??init@hostpolicy_init_t@@SA_NPEAUhost_interface_t@@PEAU1@@Z@4HA 000000018002b530 f   coreclrembedding.obj
 0001:0002a540       ?dtor$0@?0??coreclr_exists_in_dir@@YA_NAEBV?$basic_string@_WU?$char_traits@_W@std@@V?$allocator@_W@2@@std@@@Z@4HA 000000018002b540 f   pal_utils.obj
 0001:0002a540       ?dtor$0@?0??readdir@pal@@YAXAEBV?$basic_string@_WU?$char_traits@_W@std@@V?$allocator@_W@2@@std@@PEAV?$vector@V?$basic_string@_WU?$char_traits@_W@std@@V?$allocator@_W@2@@std@@V?$allocator@V?$basic_string@_WU?$char_traits@_W@std@@V?$allocator@_W@2@@std@@@2@@3@@Z@4HA 000000018002b540 f   pal.windows.obj
 0001:0002a540       ?dtor$0@?0??library_exists_in_dir@@YA_NAEBV?$basic_string@_WU?$char_traits@_W@std@@V?$allocator@_W@2@@std@@0PEAV12@@Z@4HA 000000018002b540 f   pal_utils.obj
 0001:0002a540       ?dtor$0@?0??setup@trace@@YAXXZ@4HA 000000018002b540 f   trace.obj
 0001:0002a540       ?dtor$3@?0??get_runtime_config_paths_from_app@@YAXAEBV?$basic_string@_WU?$char_traits@_W@std@@V?$allocator@_W@2@@std@@PEAV12@1@Z@4HA 000000018002b540 f   libhost.obj
 0001:0002a540       ?dtor$1@?0??to_dir_path@deps_entry_t@@QEBA_NAEBV?$basic_string@_WU?$char_traits@_W@std@@V?$allocator@_W@2@@std@@PEAV23@@Z@4HA 000000018002b540 f   deps_entry.obj
 0001:0002a540       ?dtor$0@?0??to_full_path@deps_entry_t@@QEBA_NAEBV?$basic_string@_WU?$char_traits@_W@std@@V?$allocator@_W@2@@std@@PEAV23@@Z@4HA 000000018002b540 f   deps_entry.obj
 0001:0002a540       ?dtor$0@?0??make_clrstr_arr@hostpolicy_init_t@@CAXHPEAPEB_WPEAV?$vector@V?$vector@DV?$allocator@D@std@@@std@@V?$allocator@V?$vector@DV?$allocator@D@std@@@std@@@2@@std@@@Z@4HA 000000018002b540 f   coreclrembedding.obj
 0001:0002a550       ?dtor$0@?0???0deps_resolver_t@@QEAA@AEBUhostpolicy_init_t@@AEBUarguments_t@@@Z@4HA 000000018002b550 f   coreclrembedding.obj
 0001:0002a560       ?dtor$1@?0???0deps_resolver_t@@QEAA@AEBUhostpolicy_init_t@@AEBUarguments_t@@@Z@4HA 000000018002b560 f   coreclrembedding.obj
 0001:0002a570       ?dtor$2@?0???0deps_resolver_t@@QEAA@AEBUhostpolicy_init_t@@AEBUarguments_t@@@Z@4HA 000000018002b570 f   coreclrembedding.obj
 0001:0002a580       ?dtor$3@?0???0deps_resolver_t@@QEAA@AEBUhostpolicy_init_t@@AEBUarguments_t@@@Z@4HA 000000018002b580 f   coreclrembedding.obj
 0001:0002a590       ?dtor$4@?0???0deps_resolver_t@@QEAA@AEBUhostpolicy_init_t@@AEBUarguments_t@@@Z@4HA 000000018002b590 f   coreclrembedding.obj
 0001:0002a5b0       ?dtor$5@?0???0deps_resolver_t@@QEAA@AEBUhostpolicy_init_t@@AEBUarguments_t@@@Z@4HA 000000018002b5b0 f   coreclrembedding.obj
 0001:0002a5d0       ?dtor$6@?0???0deps_resolver_t@@QEAA@AEBUhostpolicy_init_t@@AEBUarguments_t@@@Z@4HA 000000018002b5d0 f   coreclrembedding.obj
 0001:0002a5f0       ?dtor$7@?0???0deps_resolver_t@@QEAA@AEBUhostpolicy_init_t@@AEBUarguments_t@@@Z@4HA 000000018002b5f0 f   coreclrembedding.obj
 0001:0002a610       ?dtor$8@?0???0deps_resolver_t@@QEAA@AEBUhostpolicy_init_t@@AEBUarguments_t@@@Z@4HA 000000018002b610 f   coreclrembedding.obj
 0001:0002a630       ?dtor$9@?0???0deps_resolver_t@@QEAA@AEBUhostpolicy_init_t@@AEBUarguments_t@@@Z@4HA 000000018002b630 f   coreclrembedding.obj
 0001:0002a650       ?dtor$10@?0???0deps_resolver_t@@QEAA@AEBUhostpolicy_init_t@@AEBUarguments_t@@@Z@4HA 000000018002b650 f   coreclrembedding.obj
 0001:0002a670       ?dtor$11@?0???0deps_resolver_t@@QEAA@AEBUhostpolicy_init_t@@AEBUarguments_t@@@Z@4HA 000000018002b670 f   coreclrembedding.obj
 0001:0002a690       ?dtor$12@?0???0deps_resolver_t@@QEAA@AEBUhostpolicy_init_t@@AEBUarguments_t@@@Z@4HA 000000018002b690 f   coreclrembedding.obj
 0001:0002a6b0       ?dtor$13@?0???0deps_resolver_t@@QEAA@AEBUhostpolicy_init_t@@AEBUarguments_t@@@Z@4HA 000000018002b6b0 f   coreclrembedding.obj
 0001:0002a6d0       ?dtor$14@?0???0deps_resolver_t@@QEAA@AEBUhostpolicy_init_t@@AEBUarguments_t@@@Z@4HA 000000018002b6d0 f   coreclrembedding.obj
 0001:0002a6f0       ?dtor$15@?0???0deps_resolver_t@@QEAA@AEBUhostpolicy_init_t@@AEBUarguments_t@@@Z@4HA 000000018002b6f0 f   coreclrembedding.obj
 0001:0002a710       ?dtor$17@?0???0deps_resolver_t@@QEAA@AEBUhostpolicy_init_t@@AEBUarguments_t@@@Z@4HA 000000018002b710 f   coreclrembedding.obj
 0001:0002a710       ?dtor$21@?0???0deps_resolver_t@@QEAA@AEBUhostpolicy_init_t@@AEBUarguments_t@@@Z@4HA 000000018002b710 f   coreclrembedding.obj
 0001:0002a710       ?dtor$19@?0???0deps_resolver_t@@QEAA@AEBUhostpolicy_init_t@@AEBUarguments_t@@@Z@4HA 000000018002b710 f   coreclrembedding.obj
 0001:0002a730       ?dtor$28@?0???0deps_resolver_t@@QEAA@AEBUhostpolicy_init_t@@AEBUarguments_t@@@Z@4HA 000000018002b730 f   coreclrembedding.obj
 0001:0002a760       ?dtor$29@?0???0deps_resolver_t@@QEAA@AEBUhostpolicy_init_t@@AEBUarguments_t@@@Z@4HA 000000018002b760 f   coreclrembedding.obj
 0001:0002a760       ?dtor$3@?0??resolve_sdk_dotnet_path@fx_muxer_t@@SA_NAEBV?$basic_string@_WU?$char_traits@_W@std@@V?$allocator@_W@2@@std@@PEAV23@@Z@4HA 000000018002b760 f   fx_muxer.obj
 0001:0002a760       ?dtor$6@?0??resolve_sdk_dotnet_path@fx_muxer_t@@SA_NAEBV?$basic_string@_WU?$char_traits@_W@std@@V?$allocator@_W@2@@std@@PEAV23@@Z@4HA 000000018002b760 f   fx_muxer.obj
 0001:0002a770       ?dtor$3@?0??valid@deps_resolver_t@@QEAA_NPEAV?$basic_string@_WU?$char_traits@_W@std@@V?$allocator@_W@2@@std@@@Z@4HA 000000018002b770 f   coreclrembedding.obj
 0001:0002a7a0       ?dtor$0@?0??Initialize@CoreClrEmbedding@@SAJH@Z@4HA 000000018002b7a0 f   coreclrembedding.obj
 0001:0002a7b0       ?dtor$1@?0??Initialize@CoreClrEmbedding@@SAJH@Z@4HA 000000018002b7b0 f   coreclrembedding.obj
 0001:0002a7c0       ?dtor$2@?0??Initialize@CoreClrEmbedding@@SAJH@Z@4HA 000000018002b7c0 f   coreclrembedding.obj
 0001:0002a7d0       ?dtor$3@?0??Initialize@CoreClrEmbedding@@SAJH@Z@4HA 000000018002b7d0 f   coreclrembedding.obj
 0001:0002a7e0       ?dtor$67@?0??Initialize@CoreClrEmbedding@@SAJH@Z@4HA 000000018002b7e0 f   coreclrembedding.obj
 0001:0002a7e0       ?dtor$4@?0??Initialize@CoreClrEmbedding@@SAJH@Z@4HA 000000018002b7e0 f   coreclrembedding.obj
 0001:0002a7f0       ?dtor$36@?0??Initialize@CoreClrEmbedding@@SAJH@Z@4HA 000000018002b7f0 f   coreclrembedding.obj
 0001:0002a7f0       ?dtor$44@?0??Initialize@CoreClrEmbedding@@SAJH@Z@4HA 000000018002b7f0 f   coreclrembedding.obj
 0001:0002a7f0       ?dtor$70@?0??Initialize@CoreClrEmbedding@@SAJH@Z@4HA 000000018002b7f0 f   coreclrembedding.obj
 0001:0002a7f0       ?dtor$5@?0??Initialize@CoreClrEmbedding@@SAJH@Z@4HA 000000018002b7f0 f   coreclrembedding.obj
 0001:0002a7f0       ?dtor$40@?0??Initialize@CoreClrEmbedding@@SAJH@Z@4HA 000000018002b7f0 f   coreclrembedding.obj
 0001:0002a800       ?dtor$24@?0??Initialize@CoreClrEmbedding@@SAJH@Z@4HA 000000018002b800 f   coreclrembedding.obj
 0001:0002a800       ?dtor$6@?0??Initialize@CoreClrEmbedding@@SAJH@Z@4HA 000000018002b800 f   coreclrembedding.obj
 0001:0002a800       ?dtor$66@?0??Initialize@CoreClrEmbedding@@SAJH@Z@4HA 000000018002b800 f   coreclrembedding.obj
 0001:0002a810       ?dtor$7@?0??Initialize@CoreClrEmbedding@@SAJH@Z@4HA 000000018002b810 f   coreclrembedding.obj
 0001:0002a810       ?dtor$31@?0??Initialize@CoreClrEmbedding@@SAJH@Z@4HA 000000018002b810 f   coreclrembedding.obj
 0001:0002a810       ?dtor$71@?0??Initialize@CoreClrEmbedding@@SAJH@Z@4HA 000000018002b810 f   coreclrembedding.obj
 0001:0002a810       ?dtor$20@?0??Initialize@CoreClrEmbedding@@SAJH@Z@4HA 000000018002b810 f   coreclrembedding.obj
 0001:0002a810       ?dtor$43@?0??Initialize@CoreClrEmbedding@@SAJH@Z@4HA 000000018002b810 f   coreclrembedding.obj
 0001:0002a820       ?dtor$9@?0??Initialize@CoreClrEmbedding@@SAJH@Z@4HA 000000018002b820 f   coreclrembedding.obj
 0001:0002a830       ?dtor$10@?0??Initialize@CoreClrEmbedding@@SAJH@Z@4HA 000000018002b830 f   coreclrembedding.obj
 0001:0002a840       ?dtor$12@?0??Initialize@CoreClrEmbedding@@SAJH@Z@4HA 000000018002b840 f   coreclrembedding.obj
 0001:0002a850       ?dtor$13@?0??Initialize@CoreClrEmbedding@@SAJH@Z@4HA 000000018002b850 f   coreclrembedding.obj
 0001:0002a860       ?dtor$14@?0??Initialize@CoreClrEmbedding@@SAJH@Z@4HA 000000018002b860 f   coreclrembedding.obj
 0001:0002a870       ?dtor$15@?0??Initialize@CoreClrEmbedding@@SAJH@Z@4HA 000000018002b870 f   coreclrembedding.obj
 0001:0002a880       ?dtor$16@?0??Initialize@CoreClrEmbedding@@SAJH@Z@4HA 000000018002b880 f   coreclrembedding.obj
 0001:0002a890       ?dtor$17@?0??Initialize@CoreClrEmbedding@@SAJH@Z@4HA 000000018002b890 f   coreclrembedding.obj
 0001:0002a8a0       ?dtor$18@?0??Initialize@CoreClrEmbedding@@SAJH@Z@4HA 000000018002b8a0 f   coreclrembedding.obj
 0001:0002a8b0       ?dtor$19@?0??Initialize@CoreClrEmbedding@@SAJH@Z@4HA 000000018002b8b0 f   coreclrembedding.obj
 0001:0002a8c0       ?dtor$21@?0??Initialize@CoreClrEmbedding@@SAJH@Z@4HA 000000018002b8c0 f   coreclrembedding.obj
 0001:0002a8d0       ?dtor$23@?0??Initialize@CoreClrEmbedding@@SAJH@Z@4HA 000000018002b8d0 f   coreclrembedding.obj
 0001:0002a8e0       ?dtor$26@?0??Initialize@CoreClrEmbedding@@SAJH@Z@4HA 000000018002b8e0 f   coreclrembedding.obj
 0001:0002a8f0       ?dtor$27@?0??Initialize@CoreClrEmbedding@@SAJH@Z@4HA 000000018002b8f0 f   coreclrembedding.obj
 0001:0002a900       ?dtor$28@?0??Initialize@CoreClrEmbedding@@SAJH@Z@4HA 000000018002b900 f   coreclrembedding.obj
 0001:0002a910       ?dtor$33@?0??Initialize@CoreClrEmbedding@@SAJH@Z@4HA 000000018002b910 f   coreclrembedding.obj
 0001:0002a920       ?dtor$34@?0??Initialize@CoreClrEmbedding@@SAJH@Z@4HA 000000018002b920 f   coreclrembedding.obj
 0001:0002a930       ?dtor$35@?0??Initialize@CoreClrEmbedding@@SAJH@Z@4HA 000000018002b930 f   coreclrembedding.obj
 0001:0002a940       ?dtor$37@?0??Initialize@CoreClrEmbedding@@SAJH@Z@4HA 000000018002b940 f   coreclrembedding.obj
 0001:0002a950       ?dtor$38@?0??Initialize@CoreClrEmbedding@@SAJH@Z@4HA 000000018002b950 f   coreclrembedding.obj
 0001:0002a960       ?dtor$39@?0??Initialize@CoreClrEmbedding@@SAJH@Z@4HA 000000018002b960 f   coreclrembedding.obj
 0001:0002a970       ?dtor$41@?0??Initialize@CoreClrEmbedding@@SAJH@Z@4HA 000000018002b970 f   coreclrembedding.obj
 0001:0002a980       ?dtor$42@?0??Initialize@CoreClrEmbedding@@SAJH@Z@4HA 000000018002b980 f   coreclrembedding.obj
 0001:0002a990       ?dtor$45@?0??Initialize@CoreClrEmbedding@@SAJH@Z@4HA 000000018002b990 f   coreclrembedding.obj
 0001:0002a9a0       ?dtor$46@?0??Initialize@CoreClrEmbedding@@SAJH@Z@4HA 000000018002b9a0 f   coreclrembedding.obj
 0001:0002a9d0       ?dtor$48@?0??Initialize@CoreClrEmbedding@@SAJH@Z@4HA 000000018002b9d0 f   coreclrembedding.obj
 0001:0002a9e0       ?dtor$49@?0??Initialize@CoreClrEmbedding@@SAJH@Z@4HA 000000018002b9e0 f   coreclrembedding.obj
 0001:0002a9f0       ?dtor$50@?0??Initialize@CoreClrEmbedding@@SAJH@Z@4HA 000000018002b9f0 f   coreclrembedding.obj
 0001:0002aa00       ?dtor$51@?0??Initialize@CoreClrEmbedding@@SAJH@Z@4HA 000000018002ba00 f   coreclrembedding.obj
 0001:0002aa10       ?dtor$52@?0??Initialize@CoreClrEmbedding@@SAJH@Z@4HA 000000018002ba10 f   coreclrembedding.obj
 0001:0002aa20       ?dtor$53@?0??Initialize@CoreClrEmbedding@@SAJH@Z@4HA 000000018002ba20 f   coreclrembedding.obj
 0001:0002aa30       ?dtor$54@?0??Initialize@CoreClrEmbedding@@SAJH@Z@4HA 000000018002ba30 f   coreclrembedding.obj
 0001:0002aa40       ?dtor$55@?0??Initialize@CoreClrEmbedding@@SAJH@Z@4HA 000000018002ba40 f   coreclrembedding.obj
 0001:0002aa50       ?dtor$56@?0??Initialize@CoreClrEmbedding@@SAJH@Z@4HA 000000018002ba50 f   coreclrembedding.obj
 0001:0002aa60       ?dtor$57@?0??Initialize@CoreClrEmbedding@@SAJH@Z@4HA 000000018002ba60 f   coreclrembedding.obj
 0001:0002aa70       ?dtor$58@?0??Initialize@CoreClrEmbedding@@SAJH@Z@4HA 000000018002ba70 f   coreclrembedding.obj
 0001:0002aa80       ?dtor$59@?0??Initialize@CoreClrEmbedding@@SAJH@Z@4HA 000000018002ba80 f   coreclrembedding.obj
 0001:0002aa90       ?dtor$60@?0??Initialize@CoreClrEmbedding@@SAJH@Z@4HA 000000018002ba90 f   coreclrembedding.obj
 0001:0002aaa0       ?dtor$61@?0??Initialize@CoreClrEmbedding@@SAJH@Z@4HA 000000018002baa0 f   coreclrembedding.obj
 0001:0002aab0       ?dtor$62@?0??Initialize@CoreClrEmbedding@@SAJH@Z@4HA 000000018002bab0 f   coreclrembedding.obj
 0001:0002aac0       ?dtor$63@?0??Initialize@CoreClrEmbedding@@SAJH@Z@4HA 000000018002bac0 f   coreclrembedding.obj
 0001:0002aad0       ?dtor$64@?0??Initialize@CoreClrEmbedding@@SAJH@Z@4HA 000000018002bad0 f   coreclrembedding.obj
 0001:0002aae0       ?dtor$65@?0??Initialize@CoreClrEmbedding@@SAJH@Z@4HA 000000018002bae0 f   coreclrembedding.obj
 0001:0002aaf0       ?dtor$68@?0??Initialize@CoreClrEmbedding@@SAJH@Z@4HA 000000018002baf0 f   coreclrembedding.obj
 0001:0002ab00       ?dtor$69@?0??Initialize@CoreClrEmbedding@@SAJH@Z@4HA 000000018002bb00 f   coreclrembedding.obj
 0001:0002ab10       ?dtor$72@?0??Initialize@CoreClrEmbedding@@SAJH@Z@4HA 000000018002bb10 f   coreclrembedding.obj
 0001:0002ab20       ?dtor$73@?0??Initialize@CoreClrEmbedding@@SAJH@Z@4HA 000000018002bb20 f   coreclrembedding.obj
 0001:0002ab30       ?dtor$74@?0??Initialize@CoreClrEmbedding@@SAJH@Z@4HA 000000018002bb30 f   coreclrembedding.obj
 0001:0002ab40       ?dtor$75@?0??Initialize@CoreClrEmbedding@@SAJH@Z@4HA 000000018002bb40 f   coreclrembedding.obj
 0001:0002ab50       ?dtor$76@?0??Initialize@CoreClrEmbedding@@SAJH@Z@4HA 000000018002bb50 f   coreclrembedding.obj
 0001:0002ab60       ?dtor$77@?0??Initialize@CoreClrEmbedding@@SAJH@Z@4HA 000000018002bb60 f   coreclrembedding.obj
 0001:0002ab70       ?dtor$78@?0??Initialize@CoreClrEmbedding@@SAJH@Z@4HA 000000018002bb70 f   coreclrembedding.obj
 0001:0002ab80       ?dtor$162@?0??Initialize@CoreClrEmbedding@@SAJH@Z@4HA 000000018002bb80 f   coreclrembedding.obj
 0001:0002ab90       ?dtor$468@?0??Initialize@CoreClrEmbedding@@SAJH@Z@4HA 000000018002bb90 f   coreclrembedding.obj
 0001:0002aba0       ?dtor$514@?0??Initialize@CoreClrEmbedding@@SAJH@Z@4HA 000000018002bba0 f   coreclrembedding.obj
 0001:0002abb0       ?dtor$863@?0??Initialize@CoreClrEmbedding@@SAJH@Z@4HA 000000018002bbb0 f   coreclrembedding.obj
 0001:0002abc0       ?dtor$0@?0???0deps_entry_t@@QEAA@AEBU0@@Z@4HA 000000018002bbc0 f   coreclrembedding.obj
 0001:0002abc0       ?dtor$1@?0???$_Buynode@AEBUpiecewise_construct_t@std@@V?$tuple@AEBV?$basic_string@_WU?$char_traits@_W@std@@V?$allocator@_W@2@@std@@@2@V?$tuple@$$V@2@@?$_List_buy@U?$pair@$$CBV?$basic_string@_WU?$char_traits@_W@std@@V?$allocator@_W@2@@std@@Urid_assets_t@deps_json_t@@@std@@V?$allocator@U?$pair@$$CBV?$basic_string@_WU?$char_traits@_W@std@@V?$allocator@_W@2@@std@@Urid_assets_t@deps_json_t@@@std@@@2@@std@@QEAAPEAU?$_List_node@U?$pair@$$CBV?$basic_string@_WU?$char_traits@_W@std@@V?$allocator@_W@2@@std@@Urid_assets_t@deps_json_t@@@std@@PEAX@1@PEAU21@0AEBUpiecewise_construct_t@1@$$QEAV?$tuple@AEBV?$basic_string@_WU?$char_traits@_W@std@@V?$allocator@_W@2@@std@@@1@$$QEAV?$tuple@$$V@1@@Z@4HA 000000018002bbc0 f   deps_format.obj
 0001:0002abc0       ?dtor$0@?0???0arguments_t@@QEAA@XZ@4HA 000000018002bbc0 f   args.obj
 0001:0002abd0       ?dtor$1@?0???0deps_entry_t@@QEAA@AEBU0@@Z@4HA 000000018002bbd0 f   coreclrembedding.obj
 0001:0002abd0       ?dtor$1@?0???0arguments_t@@QEAA@XZ@4HA 000000018002bbd0 f   args.obj
 0001:0002abe0       ?dtor$2@?0???0arguments_t@@QEAA@XZ@4HA 000000018002bbe0 f   args.obj
 0001:0002abe0       ?dtor$2@?0???0deps_entry_t@@QEAA@AEBU0@@Z@4HA 000000018002bbe0 f   coreclrembedding.obj
 0001:0002abf0       ?dtor$3@?0???0arguments_t@@QEAA@XZ@4HA 000000018002bbf0 f   args.obj
 0001:0002abf0       ?dtor$3@?0???0deps_entry_t@@QEAA@AEBU0@@Z@4HA 000000018002bbf0 f   coreclrembedding.obj
 0001:0002ac00       ?dtor$4@?0???0deps_entry_t@@QEAA@AEBU0@@Z@4HA 000000018002bc00 f   coreclrembedding.obj
 0001:0002ac20       ?dtor$1@?0???0?$unordered_map@V?$basic_string@_WU?$char_traits@_W@std@@V?$allocator@_W@2@@std@@V12@U?$hash@V?$basic_string@_WU?$char_traits@_W@std@@V?$allocator@_W@2@@std@@@2@U?$equal_to@V?$basic_string@_WU?$char_traits@_W@std@@V?$allocator@_W@2@@std@@@2@V?$allocator@U?$pair@$$CBV?$basic_string@_WU?$char_traits@_W@std@@V?$allocator@_W@2@@std@@V12@@std@@@2@@std@@QEAA@XZ@4HA 000000018002bc20 f   coreclrembedding.obj
 0001:0002ac30       ?dtor$1@?0???0?$unordered_map@V?$basic_string@_WU?$char_traits@_W@std@@V?$allocator@_W@2@@std@@Uassets_t@deps_json_t@@U?$hash@V?$basic_string@_WU?$char_traits@_W@std@@V?$allocator@_W@2@@std@@@2@U?$equal_to@V?$basic_string@_WU?$char_traits@_W@std@@V?$allocator@_W@2@@std@@@2@V?$allocator@U?$pair@$$CBV?$basic_string@_WU?$char_traits@_W@std@@V?$allocator@_W@2@@std@@Uassets_t@deps_json_t@@@std@@@2@@std@@QEAA@XZ@4HA 000000018002bc30 f   coreclrembedding.obj
 0001:0002ac40       ?dtor$1@?0???0?$unordered_map@V?$basic_string@_WU?$char_traits@_W@std@@V?$allocator@_W@2@@std@@V?$vector@V?$basic_string@_WU?$char_traits@_W@std@@V?$allocator@_W@2@@std@@V?$allocator@V?$basic_string@_WU?$char_traits@_W@std@@V?$allocator@_W@2@@std@@@2@@2@U?$hash@V?$basic_string@_WU?$char_traits@_W@std@@V?$allocator@_W@2@@std@@@2@U?$equal_to@V?$basic_string@_WU?$char_traits@_W@std@@V?$allocator@_W@2@@std@@@2@V?$allocator@U?$pair@$$CBV?$basic_string@_WU?$char_traits@_W@std@@V?$allocator@_W@2@@std@@V?$vector@V?$basic_string@_WU?$char_traits@_W@std@@V?$allocator@_W@2@@std@@V?$allocator@V?$basic_string@_WU?$char_traits@_W@std@@V?$allocator@_W@2@@std@@@2@@2@@std@@@2@@std@@QEAA@XZ@4HA 000000018002bc40 f   coreclrembedding.obj
 0001:0002ac50       ?catch$0@?0???0?$vector@V?$basic_string@_WU?$char_traits@_W@std@@V?$allocator@_W@2@@std@@V?$allocator@V?$basic_string@_WU?$char_traits@_W@std@@V?$allocator@_W@2@@std@@@2@@std@@QEAA@AEBV01@@Z@4HA 000000018002bc50 f   coreclrembedding.obj
 0001:0002ac5d       __catch$??0?$vector@V?$basic_string@_WU?$char_traits@_W@std@@V?$allocator@_W@2@@std@@V?$allocator@V?$basic_string@_WU?$char_traits@_W@std@@V?$allocator@_W@2@@std@@@2@@std@@QEAA@AEBV01@@Z$0 000000018002bc5d f   coreclrembedding.obj
 0001:0002ac70       ?dtor$1@?0???0?$unordered_set@V?$basic_string@_WU?$char_traits@_W@std@@V?$allocator@_W@2@@std@@U?$hash@V?$basic_string@_WU?$char_traits@_W@std@@V?$allocator@_W@2@@std@@@2@U?$equal_to@V?$basic_string@_WU?$char_traits@_W@std@@V?$allocator@_W@2@@std@@@2@V?$allocator@V?$basic_string@_WU?$char_traits@_W@std@@V?$allocator@_W@2@@std@@@2@@std@@QEAA@XZ@4HA 000000018002bc70 f   coreclrembedding.obj
 0001:0002ac80       ?dtor$0@?0???$?H_WU?$char_traits@_W@std@@V?$allocator@_W@1@@std@@YA?AV?$basic_string@_WU?$char_traits@_W@std@@V?$allocator@_W@2@@0@AEBV10@QEB_W@Z@4HA 000000018002bc80 f   coreclrembedding.obj
 0001:0002ac80       ?dtor$0@?0???$?H_WU?$char_traits@_W@std@@V?$allocator@_W@1@@std@@YA?AV?$basic_string@_WU?$char_traits@_W@std@@V?$allocator@_W@2@@0@QEB_WAEBV10@@Z@4HA 000000018002bc80 f   coreclrembedding.obj
 0001:0002acb0       ?catch$3@?0???$_Emplace_reallocate@AEBV?$basic_string@_WU?$char_traits@_W@std@@V?$allocator@_W@2@@std@@@?$vector@V?$basic_string@_WU?$char_traits@_W@std@@V?$allocator@_W@2@@std@@V?$allocator@V?$basic_string@_WU?$char_traits@_W@std@@V?$allocator@_W@2@@std@@@2@@std@@QEAAPEAV?$basic_string@_WU?$char_traits@_W@std@@V?$allocator@_W@2@@1@QEAV21@AEBV21@@Z@4HA 000000018002bcb0 f   coreclrembedding.obj
 0001:0002acbd       __catch$??$_Emplace_reallocate@AEBV?$basic_string@_WU?$char_traits@_W@std@@V?$allocator@_W@2@@std@@@?$vector@V?$basic_string@_WU?$char_traits@_W@std@@V?$allocator@_W@2@@std@@V?$allocator@V?$basic_string@_WU?$char_traits@_W@std@@V?$allocator@_W@2@@std@@@2@@std@@QEAAPEAV?$basic_string@_WU?$char_traits@_W@std@@V?$allocator@_W@2@@1@QEAV21@AEBV21@@Z$0 000000018002bcbd f   coreclrembedding.obj
 0001:0002acf0       ?dtor$0@?0???$_Ucopy@PEAV?$basic_string@_WU?$char_traits@_W@std@@V?$allocator@_W@2@@std@@@?$vector@V?$basic_string@_WU?$char_traits@_W@std@@V?$allocator@_W@2@@std@@V?$allocator@V?$basic_string@_WU?$char_traits@_W@std@@V?$allocator@_W@2@@std@@@2@@std@@AEAAPEAV?$basic_string@_WU?$char_traits@_W@std@@V?$allocator@_W@2@@1@PEAV21@00@Z@4HA 000000018002bcf0 f   coreclrembedding.obj
 0001:0002acf0       ?dtor$0@?0???$_Ucopy@PEBV?$basic_string@_WU?$char_traits@_W@std@@V?$allocator@_W@2@@std@@@?$vector@V?$basic_string@_WU?$char_traits@_W@std@@V?$allocator@_W@2@@std@@V?$allocator@V?$basic_string@_WU?$char_traits@_W@std@@V?$allocator@_W@2@@std@@@2@@std@@AEAAPEAV?$basic_string@_WU?$char_traits@_W@std@@V?$allocator@_W@2@@1@PEBV21@0PEAV21@@Z@4HA 000000018002bcf0 f   fx_muxer.obj
 0001:0002ad00       ?dtor$2@?0??InitializeInstance@CoreClrFunc@@CA?AV?$Local@VFunction@v8@@@v8@@PEAX@Z@4HA 000000018002bd00 f   coreclrfunc.obj
 0001:0002ad00       ?dtor$2@?0??InvokeCallback@CoreClrNodejsFuncInvokeContext@@SAXPEAX@Z@4HA 000000018002bd00 f   coreclrnodejsfuncinvokecontext.obj
 0001:0002ad10       ?dtor$4@?0??InitializeInstance@CoreClrFunc@@CA?AV?$Local@VFunction@v8@@@v8@@PEAX@Z@4HA 000000018002bd10 f   coreclrfunc.obj
 0001:0002ad20       ?dtor$6@?0??InitializeInstance@CoreClrFunc@@CA?AV?$Local@VFunction@v8@@@v8@@PEAX@Z@4HA 000000018002bd20 f   coreclrfunc.obj
 0001:0002ad30       ?dtor$0@?0??Call@CoreClrFunc@@QEAA?AV?$Local@VValue@v8@@@v8@@V23@0@Z@4HA 000000018002bd30 f   coreclrfunc.obj
 0001:0002ad40       ?dtor$1@?0??Call@CoreClrFunc@@QEAA?AV?$Local@VValue@v8@@@v8@@V23@0@Z@4HA 000000018002bd40 f   coreclrfunc.obj
 0001:0002ad60       ?dtor$33@?0??Call@CoreClrFunc@@QEAA?AV?$Local@VValue@v8@@@v8@@V23@0@Z@4HA 000000018002bd60 f   coreclrfunc.obj
 0001:0002ad80       ?dtor$0@?0??Initialize@CoreClrFunc@@SAXAEBV?$FunctionCallbackInfo@VValue@v8@@@Nan@@@Z@4HA 000000018002bd80 f   coreclrfunc.obj
 0001:0002ad90       ?dtor$1@?0??Initialize@CoreClrFunc@@SAXAEBV?$FunctionCallbackInfo@VValue@v8@@@Nan@@@Z@4HA 000000018002bd90 f   coreclrfunc.obj
 0001:0002ada0       ?dtor$2@?0??Initialize@CoreClrFunc@@SAXAEBV?$FunctionCallbackInfo@VValue@v8@@@Nan@@@Z@4HA 000000018002bda0 f   coreclrfunc.obj
 0001:0002adb0       ?dtor$3@?0??Initialize@CoreClrFunc@@SAXAEBV?$FunctionCallbackInfo@VValue@v8@@@Nan@@@Z@4HA 000000018002bdb0 f   coreclrfunc.obj
 0001:0002adc0       ?dtor$5@?0??Initialize@CoreClrFunc@@SAXAEBV?$FunctionCallbackInfo@VValue@v8@@@Nan@@@Z@4HA 000000018002bdc0 f   coreclrfunc.obj
 0001:0002adc0       ?dtor$39@?0??Initialize@CoreClrFunc@@SAXAEBV?$FunctionCallbackInfo@VValue@v8@@@Nan@@@Z@4HA 000000018002bdc0 f   coreclrfunc.obj
 0001:0002add0       ?dtor$0@?0??CopyV8StringBytes@CoreClrFunc@@CAPEADV?$Local@VString@v8@@@v8@@@Z@4HA 000000018002bdd0 f   coreclrfunc.obj
 0001:0002ade0       ?dtor$0@?0??MarshalV8ExceptionToCLR@CoreClrFunc@@SAXV?$Local@VValue@v8@@@v8@@PEAPEAX@Z@4HA 000000018002bde0 f   coreclrfunc.obj
 0001:0002adf0       ?dtor$0@?0??MarshalV8ToCLR@CoreClrFunc@@SAXV?$Local@VValue@v8@@@v8@@PEAPEAXPEAH@Z@4HA 000000018002bdf0 f   coreclrfunc.obj
 0001:0002ae10       ?dtor$8@?0??InvokeCallback@CoreClrNodejsFuncInvokeContext@@SAXPEAX@Z@4HA 000000018002be10 f   coreclrnodejsfuncinvokecontext.obj
 0001:0002ae10       ?dtor$0@?0??MarshalCLRToV8@CoreClrFunc@@SA?AV?$Local@VValue@v8@@@v8@@PEAXH@Z@4HA 000000018002be10 f   coreclrfunc.obj
 0001:0002ae20       ?dtor$0@?0???0CoreClrFuncInvokeContext@@QEAA@V?$Local@VValue@v8@@@v8@@PEAX@Z@4HA 000000018002be20 f   coreclrfuncinvokecontext.obj
 0001:0002ae40       ?dtor$0@?0??InvokeCallback@CoreClrFuncInvokeContext@@SAXPEAX@Z@4HA 000000018002be40 f   coreclrfuncinvokecontext.obj
 0001:0002ae50       ?dtor$3@?0??InvokeCallback@CoreClrNodejsFuncInvokeContext@@SAXPEAX@Z@4HA 000000018002be50 f   coreclrnodejsfuncinvokecontext.obj
 0001:0002ae60       ?dtor$0@?0??throwV8Exception@@YA?AV?$Local@VValue@v8@@@v8@@PEBDZZ@4HA 000000018002be60 f   utils.obj
 0001:0002ae70       ?catch$0@?0???$_Insert@AEAU?$pair@$$CBV?$basic_string@_WU?$char_traits@_W@std@@V?$allocator@_W@2@@std@@V?$vector@V?$basic_string@_WU?$char_traits@_W@std@@V?$allocator@_W@2@@std@@V?$allocator@V?$basic_string@_WU?$char_traits@_W@std@@V?$allocator@_W@2@@std@@@2@@2@@std@@V?$_List_unchecked_iterator@V?$_List_val@U?$_List_simple_types@U?$pair@$$CBV?$basic_string@_WU?$char_traits@_W@std@@V?$allocator@_W@2@@std@@V?$vector@V?$basic_string@_WU?$char_traits@_W@std@@V?$allocator@_W@2@@std@@V?$allocator@V?$basic_string@_WU?$char_traits@_W@std@@V?$allocator@_W@2@@std@@@2@@2@@std@@@std@@@std@@@2@@?$_Hash@V?$_Umap_traits@V?$basic_string@_WU?$char_traits@_W@std@@V?$allocator@_W@2@@std@@V?$vector@V?$basic_string@_WU?$char_traits@_W@std@@V?$allocator@_W@2@@std@@V?$allocator@V?$basic_string@_WU?$char_traits@_W@std@@V?$allocator@_W@2@@std@@@2@@2@V?$_Uhash_compare@V?$basic_string@_WU?$char_traits@_W@std@@V?$allocator@_W@2@@std@@U?$hash@V?$basic_string@_WU?$char_traits@_W@std@@V?$allocator@_W@2@@std@@@2@U?$equal_to@V?$basic_string@_WU?$char_traits@_W@std@@V?$allocator@_W@2@@std@@@2@@2@V?$allocator@U?$pair@$$CBV?$basic_string@_WU?$char_traits@_W@std@@V?$allocator@_W@2@@std@@V?$vector@V?$basic_string@_WU?$char_traits@_W@std@@V?$allocator@_W@2@@std@@V?$allocator@V?$basic_string@_WU?$char_traits@_W@std@@V?$allocator@_W@2@@std@@@2@@2@@std@@@2@$0A@@std@@@std@@IEAA?AU?$pair@V?$_List_iterator@V?$_List_val@U?$_List_simple_types@U?$pair@$$CBV?$basic_string@_WU?$char_traits@_W@std@@V?$allocator@_W@2@@std@@V?$vector@V?$basic_string@_WU?$char_traits@_W@std@@V?$allocator@_W@2@@std@@V?$allocator@V?$basic_string@_WU?$char_traits@_W@std@@V?$allocator@_W@2@@std@@@2@@2@@std@@@std@@@std@@@std@@_N@1@AEAU?$pair@$$CBV?$basic_string@_WU?$char_traits@_W@std@@V?$allocator@_W@2@@std@@V?$vector@V?$basic_string@_WU?$char_traits@_W@std@@V?$allocator@_W@2@@std@@V?$allocator@V?$basic_string@_WU?$char_traits@_W@std@@V?$allocator@_W@2@@std@@@2@@2@@1@V?$_List_unchecked_iterator@V?$_List_val@U?$_List_simple_types@U?$pair@$$CBV?$basic_string@_WU?$char_traits@_W@std@@V?$allocator@_W@2@@std@@V?$vector@V?$basic_string@_WU?$char_traits@_W@std@@V?$allocator@_W@2@@std@@V?$allocator@V?$basic_string@_WU?$char_traits@_W@std@@V?$allocator@_W@2@@std@@@2@@2@@std@@@std@@@std@@@1@@Z@4HA 000000018002be70 f   pal_utils.obj
 0001:0002ae7d       __catch$??$_Insert@AEAU?$pair@$$CBV?$basic_string@_WU?$char_traits@_W@std@@V?$allocator@_W@2@@std@@V?$vector@V?$basic_string@_WU?$char_traits@_W@std@@V?$allocator@_W@2@@std@@V?$allocator@V?$basic_string@_WU?$char_traits@_W@std@@V?$allocator@_W@2@@std@@@2@@2@@std@@V?$_List_unchecked_iterator@V?$_List_val@U?$_List_simple_types@U?$pair@$$CBV?$basic_string@_WU?$char_traits@_W@std@@V?$allocator@_W@2@@std@@V?$vector@V?$basic_string@_WU?$char_traits@_W@std@@V?$allocator@_W@2@@std@@V?$allocator@V?$basic_string@_WU?$char_traits@_W@std@@V?$allocator@_W@2@@std@@@2@@2@@std@@@std@@@std@@@2@@?$_Hash@V?$_Umap_traits@V?$basic_string@_WU?$char_traits@_W@std@@V?$allocator@_W@2@@std@@V?$vector@V?$basic_string@_WU?$char_traits@_W@std@@V?$allocator@_W@2@@std@@V?$allocator@V?$basic_string@_WU?$char_traits@_W@std@@V?$allocator@_W@2@@std@@@2@@2@V?$_Uhash_compare@V?$basic_string@_WU?$char_traits@_W@std@@V?$allocator@_W@2@@std@@U?$hash@V?$basic_string@_WU?$char_traits@_W@std@@V?$allocator@_W@2@@std@@@2@U?$equal_to@V?$basic_string@_WU?$char_traits@_W@std@@V?$allocator@_W@2@@std@@@2@@2@V?$allocator@U?$pair@$$CBV?$basic_string@_WU?$char_traits@_W@std@@V?$allocator@_W@2@@std@@V?$vector@V?$basic_string@_WU?$char_traits@_W@std@@V?$allocator@_W@2@@std@@V?$allocator@V?$basic_string@_WU?$char_traits@_W@std@@V?$allocator@_W@2@@std@@@2@@2@@std@@@2@$0A@@std@@@std@@IEAA?AU?$pair@V?$_List_iterator@V?$_List_val@U?$_List_simple_types@U?$pair@$$CBV?$basic_string@_WU?$char_traits@_W@std@@V?$allocator@_W@2@@std@@V?$vector@V?$basic_string@_WU?$char_traits@_W@std@@V?$allocator@_W@2@@std@@V?$allocator@V?$basic_string@_WU?$char_traits@_W@std@@V?$allocator@_W@2@@std@@@2@@2@@std@@@std@@@std@@@std@@_N@1@AEAU?$pair@$$CBV?$basic_string@_WU?$char_traits@_W@std@@V?$allocator@_W@2@@std@@V?$vector@V?$basic_string@_WU?$char_traits@_W@std@@V?$allocator@_W@2@@std@@V?$allocator@V?$basic_string@_WU?$char_traits@_W@std@@V?$allocator@_W@2@@std@@@2@@2@@1@V?$_List_unchecked_iterator@V?$_List_val@U?$_List_simple_types@U?$pair@$$CBV?$basic_string@_WU?$char_traits@_W@std@@V?$allocator@_W@2@@std@@V?$vector@V?$basic_string@_WU?$char_traits@_W@std@@V?$allocator@_W@2@@std@@V?$allocator@V?$basic_string@_WU?$char_traits@_W@std@@V?$allocator@_W@2@@std@@@2@@2@@std@@@std@@@std@@@1@@Z$2 000000018002be7d f   pal_utils.obj
 0001:0002aeb0       ?catch$3@?0???$_Buynode@AEBUpiecewise_construct_t@std@@V?$tuple@AEBV?$basic_string@_WU?$char_traits@_W@std@@V?$allocator@_W@2@@std@@@2@V?$tuple@$$V@2@@?$_List_buy@U?$pair@$$CBV?$basic_string@_WU?$char_traits@_W@std@@V?$allocator@_W@2@@std@@V?$vector@V?$basic_string@_WU?$char_traits@_W@std@@V?$allocator@_W@2@@std@@V?$allocator@V?$basic_string@_WU?$char_traits@_W@std@@V?$allocator@_W@2@@std@@@2@@2@@std@@V?$allocator@U?$pair@$$CBV?$basic_string@_WU?$char_traits@_W@std@@V?$allocator@_W@2@@std@@V?$vector@V?$basic_string@_WU?$char_traits@_W@std@@V?$allocator@_W@2@@std@@V?$allocator@V?$basic_string@_WU?$char_traits@_W@std@@V?$allocator@_W@2@@std@@@2@@2@@std@@@2@@std@@QEAAPEAU?$_List_node@U?$pair@$$CBV?$basic_string@_WU?$char_traits@_W@std@@V?$allocator@_W@2@@std@@V?$vector@V?$basic_string@_WU?$char_traits@_W@std@@V?$allocator@_W@2@@std@@V?$allocator@V?$basic_string@_WU?$char_traits@_W@std@@V?$allocator@_W@2@@std@@@2@@2@@std@@PEAX@1@PEAU21@0AEBUpiecewise_construct_t@1@$$QEAV?$tuple@AEBV?$basic_string@_WU?$char_traits@_W@std@@V?$allocator@_W@2@@std@@@1@$$QEAV?$tuple@$$V@1@@Z@4HA 000000018002beb0 f   pal_utils.obj
 0001:0002aebd       __catch$??$_Buynode@AEBUpiecewise_construct_t@std@@V?$tuple@AEBV?$basic_string@_WU?$char_traits@_W@std@@V?$allocator@_W@2@@std@@@2@V?$tuple@$$V@2@@?$_List_buy@U?$pair@$$CBV?$basic_string@_WU?$char_traits@_W@std@@V?$allocator@_W@2@@std@@V?$vector@V?$basic_string@_WU?$char_traits@_W@std@@V?$allocator@_W@2@@std@@V?$allocator@V?$basic_string@_WU?$char_traits@_W@std@@V?$allocator@_W@2@@std@@@2@@2@@std@@V?$allocator@U?$pair@$$CBV?$basic_string@_WU?$char_traits@_W@std@@V?$allocator@_W@2@@std@@V?$vector@V?$basic_string@_WU?$char_traits@_W@std@@V?$allocator@_W@2@@std@@V?$allocator@V?$basic_string@_WU?$char_traits@_W@std@@V?$allocator@_W@2@@std@@@2@@2@@std@@@2@@std@@QEAAPEAU?$_List_node@U?$pair@$$CBV?$basic_string@_WU?$char_traits@_W@std@@V?$allocator@_W@2@@std@@V?$vector@V?$basic_string@_WU?$char_traits@_W@std@@V?$allocator@_W@2@@std@@V?$allocator@V?$basic_string@_WU?$char_traits@_W@std@@V?$allocator@_W@2@@std@@@2@@2@@std@@PEAX@1@PEAU21@0AEBUpiecewise_construct_t@1@$$QEAV?$tuple@AEBV?$basic_string@_WU?$char_traits@_W@std@@V?$allocator@_W@2@@std@@@1@$$QEAV?$tuple@$$V@1@@Z$0 000000018002bebd f   pal_utils.obj
 0001:0002aed0       ?dtor$5@?0??resolve_fx_dir@fx_muxer_t@@SA?AV?$basic_string@_WU?$char_traits@_W@std@@V?$allocator@_W@2@@std@@W4host_mode_t@@AEBV23@AEBVruntime_config_t@@1@Z@4HA 000000018002bed0 f   fx_muxer.obj
 0001:0002aed0       ?dtor$0@?0???0fx_ver_t@@QEAA@HHH@Z@4HA 000000018002bed0 f   fx_ver.obj
 0001:0002aee0       ?dtor$0@?0??add_tpa_asset@?A0x19dcf86a@@YAXAEBV?$basic_string@_WU?$char_traits@_W@std@@V?$allocator@_W@2@@std@@0PEAV?$unordered_set@V?$basic_string@_WU?$char_traits@_W@std@@V?$allocator@_W@2@@std@@U?$hash@V?$basic_string@_WU?$char_traits@_W@std@@V?$allocator@_W@2@@std@@@2@U?$equal_to@V?$basic_string@_WU?$char_traits@_W@std@@V?$allocator@_W@2@@std@@@2@V?$allocator@V?$basic_string@_WU?$char_traits@_W@std@@V?$allocator@_W@2@@std@@@2@@3@PEAV23@@Z@4HA 000000018002bee0 f   deps_resolver.obj
 0001:0002aee0       ?dtor$1@?0???0fx_ver_t@@QEAA@HHH@Z@4HA 000000018002bee0 f   fx_ver.obj
 0001:0002aee0       ?dtor$0@?0??add_unique_path@?A0x19dcf86a@@YAXW4asset_types@deps_entry_t@@AEBV?$basic_string@_WU?$char_traits@_W@std@@V?$allocator@_W@2@@std@@PEAV?$unordered_set@V?$basic_string@_WU?$char_traits@_W@std@@V?$allocator@_W@2@@std@@U?$hash@V?$basic_string@_WU?$char_traits@_W@std@@V?$allocator@_W@2@@std@@@2@U?$equal_to@V?$basic_string@_WU?$char_traits@_W@std@@V?$allocator@_W@2@@std@@@2@V?$allocator@V?$basic_string@_WU?$char_traits@_W@std@@V?$allocator@_W@2@@std@@@2@@5@PEAV45@31@Z@4HA 000000018002bee0 f   deps_resolver.obj
 0001:0002aee0       ?dtor$2@?0??resolve_fx_dir@fx_muxer_t@@SA?AV?$basic_string@_WU?$char_traits@_W@std@@V?$allocator@_W@2@@std@@W4host_mode_t@@AEBV23@AEBVruntime_config_t@@1@Z@4HA 000000018002bee0 f   fx_muxer.obj
 0001:0002aef0       ?dtor$3@?0???0fx_ver_t@@QEAA@HHH@Z@4HA 000000018002bef0 f   fx_ver.obj
 0001:0002af00       ?dtor$0@?0??as_str@fx_ver_t@@QEBA?AV?$basic_string@_WU?$char_traits@_W@std@@V?$allocator@_W@2@@std@@XZ@4HA 000000018002bf00 f   fx_ver.obj
 0001:0002af00       ?dtor$0@?0??patch_glob@fx_ver_t@@QEBA?AV?$basic_string@_WU?$char_traits@_W@std@@V?$allocator@_W@2@@std@@XZ@4HA 000000018002bf00 f   fx_ver.obj
 0001:0002af00       ?dtor$0@?0??prerelease_glob@fx_ver_t@@QEBA?AV?$basic_string@_WU?$char_traits@_W@std@@V?$allocator@_W@2@@std@@XZ@4HA 000000018002bf00 f   fx_ver.obj
 0001:0002af10       ?dtor$0@?0??readdir@pal@@YAXAEBV?$basic_string@_WU?$char_traits@_W@std@@V?$allocator@_W@2@@std@@0PEAV?$vector@V?$basic_string@_WU?$char_traits@_W@std@@V?$allocator@_W@2@@std@@V?$allocator@V?$basic_string@_WU?$char_traits@_W@std@@V?$allocator@_W@2@@std@@@2@@3@@Z@4HA 000000018002bf10 f   pal.windows.obj
 0001:0002af10       ?dtor$8@?0??parse_internal@@YA_NAEBV?$basic_string@_WU?$char_traits@_W@std@@V?$allocator@_W@2@@std@@PEAUfx_ver_t@@_N@Z@4HA 000000018002bf10 f   fx_ver.obj
 0001:0002af10       ?dtor$2@?0???R<lambda_ce37e563d1dc9192d1c4d54befabd244>@@QEBA_NAEBUdeps_entry_t@@AEBV?$basic_string@_WU?$char_traits@_W@std@@V?$allocator@_W@2@@std@@@Z@4HA 000000018002bf10 f   deps_resolver.obj
 0001:0002af10       ?dtor$2@?0???R<lambda_630da18592faaf2e7b6750ea6c199822>@@QEBA_NAEBV?$basic_string@_WU?$char_traits@_W@std@@V?$allocator@_W@2@@std@@PEAVdeps_json_t@@AEBUdeps_entry_t@@@Z@4HA 000000018002bf10 f   deps_resolver.obj
 0001:0002af10       ?dtor$5@?0??parse_internal@@YA_NAEBV?$basic_string@_WU?$char_traits@_W@std@@V?$allocator@_W@2@@std@@PEAUfx_ver_t@@_N@Z@4HA 000000018002bf10 f   fx_ver.obj
 0001:0002af20       ?dtor$33@?0??parse_internal@@YA_NAEBV?$basic_string@_WU?$char_traits@_W@std@@V?$allocator@_W@2@@std@@PEAUfx_ver_t@@_N@Z@4HA 000000018002bf20 f   fx_ver.obj
 0001:0002af20       ?dtor$45@?0??parse_internal@@YA_NAEBV?$basic_string@_WU?$char_traits@_W@std@@V?$allocator@_W@2@@std@@PEAUfx_ver_t@@_N@Z@4HA 000000018002bf20 f   fx_ver.obj
 0001:0002af30       ?dtor$0@?0???0?$basic_stringstream@_WU?$char_traits@_W@std@@V?$allocator@_W@2@@std@@QEAA@H@Z@4HA 000000018002bf30 f   fx_ver.obj
 0001:0002af60       ?dtor$1@?0???0?$basic_stringstream@_WU?$char_traits@_W@std@@V?$allocator@_W@2@@std@@QEAA@H@Z@4HA 000000018002bf60 f   fx_ver.obj
 0001:0002af80       ?dtor$0@?0??str@?$basic_stringbuf@_WU?$char_traits@_W@std@@V?$allocator@_W@2@@std@@QEBA?AV?$basic_string@_WU?$char_traits@_W@std@@V?$allocator@_W@2@@2@XZ@4HA 000000018002bf80 f   fx_ver.obj
 0001:0002af80       ?dtor$0@?0??to_string@_Value@details@json@web@@UEBA?AV?$basic_string@_WU?$char_traits@_W@std@@V?$allocator@_W@2@@std@@XZ@4HA 000000018002bf80 f   json.obj
 0001:0002af80       ?dtor$1@?0??resolve_sdk_version@@YA?AV?$basic_string@_WU?$char_traits@_W@std@@V?$allocator@_W@2@@std@@V12@@Z@4HA 000000018002bf80 f   fx_muxer.obj
 0001:0002afb0       ?catch$4@?0???$?6_WU?$char_traits@_W@std@@@std@@YAAEAV?$basic_ostream@_WU?$char_traits@_W@std@@@0@AEAV10@PEB_W@Z@4HA 000000018002bfb0 f   fx_ver.obj
 0001:0002afbd       __catch$??$?6_WU?$char_traits@_W@std@@@std@@YAAEAV?$basic_ostream@_WU?$char_traits@_W@std@@@0@AEAV10@PEB_W@Z$0 000000018002bfbd f   fx_ver.obj
 0001:0002aff0       ?dtor$0@?0???$_Insert_string@_WU?$char_traits@_W@std@@_K@std@@YAAEAV?$basic_ostream@_WU?$char_traits@_W@std@@@0@AEAV10@QEB_W_K@Z@4HA 000000018002bff0 f   fx_ver.obj
 0001:0002aff0       ?dtor$0@?0???$?6_WU?$char_traits@_W@std@@@std@@YAAEAV?$basic_ostream@_WU?$char_traits@_W@std@@@0@AEAV10@PEB_W@Z@4HA 000000018002bff0 f   fx_ver.obj
 0001:0002b000       ?dtor$1@?0???$?6_WU?$char_traits@_W@std@@@std@@YAAEAV?$basic_ostream@_WU?$char_traits@_W@std@@@0@AEAV10@PEB_W@Z@4HA 000000018002c000 f   fx_ver.obj
 0001:0002b000       ?dtor$1@?0???$_Insert_string@_WU?$char_traits@_W@std@@_K@std@@YAAEAV?$basic_ostream@_WU?$char_traits@_W@std@@@0@AEAV10@QEB_W_K@Z@4HA 000000018002c000 f   fx_ver.obj
 0001:0002b010       ?catch$4@?0???$_Insert_string@_WU?$char_traits@_W@std@@_K@std@@YAAEAV?$basic_ostream@_WU?$char_traits@_W@std@@@0@AEAV10@QEB_W_K@Z@4HA 000000018002c010 f   fx_ver.obj
 0001:0002b01d       __catch$??$_Insert_string@_WU?$char_traits@_W@std@@_K@std@@YAAEAV?$basic_ostream@_WU?$char_traits@_W@std@@@0@AEAV10@QEB_W_K@Z$0 000000018002c01d f   fx_ver.obj
 0001:0002b050       ?dtor$0@?0???0json_exception@json@web@@QEAA@AEBQEB_W@Z@4HA 000000018002c050 f   fx_muxer.obj
 0001:0002b060       ?dtor$0@?0???0json_exception@json@web@@QEAA@AEBV012@@Z@4HA 000000018002c060 f   fx_muxer.obj
 0001:0002b070       ?dtor$1@?0??resolve_fx_dir@fx_muxer_t@@SA?AV?$basic_string@_WU?$char_traits@_W@std@@V?$allocator@_W@2@@std@@W4host_mode_t@@AEBV23@AEBVruntime_config_t@@1@Z@4HA 000000018002c070 f   fx_muxer.obj
 0001:0002b070       ?dtor$1@?0??to_hash_matched_path@deps_entry_t@@QEBA_NAEBV?$basic_string@_WU?$char_traits@_W@std@@V?$allocator@_W@2@@std@@PEAV23@@Z@4HA 000000018002c070 f   deps_entry.obj
 0001:0002b080       ?dtor$3@?0??resolve_fx_dir@fx_muxer_t@@SA?AV?$basic_string@_WU?$char_traits@_W@std@@V?$allocator@_W@2@@std@@W4host_mode_t@@AEBV23@AEBVruntime_config_t@@1@Z@4HA 000000018002c080 f   fx_muxer.obj
 0001:0002b090       ?dtor$4@?0??resolve_fx_dir@fx_muxer_t@@SA?AV?$basic_string@_WU?$char_traits@_W@std@@V?$allocator@_W@2@@std@@W4host_mode_t@@AEBV23@AEBVruntime_config_t@@1@Z@4HA 000000018002c090 f   fx_muxer.obj
 0001:0002b090       ?dtor$3@?0??perform_rid_fallback@deps_json_t@@AEAA_NPEAUrid_specific_assets_t@1@AEBV?$unordered_map@V?$basic_string@_WU?$char_traits@_W@std@@V?$allocator@_W@2@@std@@V?$vector@V?$basic_string@_WU?$char_traits@_W@std@@V?$allocator@_W@2@@std@@V?$allocator@V?$basic_string@_WU?$char_traits@_W@std@@V?$allocator@_W@2@@std@@@2@@2@U?$hash@V?$basic_string@_WU?$char_traits@_W@std@@V?$allocator@_W@2@@std@@@2@U?$equal_to@V?$basic_string@_WU?$char_traits@_W@std@@V?$allocator@_W@2@@std@@@2@V?$allocator@U?$pair@$$CBV?$basic_string@_WU?$char_traits@_W@std@@V?$allocator@_W@2@@std@@V?$vector@V?$basic_string@_WU?$char_traits@_W@std@@V?$allocator@_W@2@@std@@V?$allocator@V?$basic_string@_WU?$char_traits@_W@std@@V?$allocator@_W@2@@std@@@2@@2@@std@@@2@@std@@@Z@4HA 000000018002c090 f   deps_format.obj
 0001:0002b0a0       ?dtor$6@?0??resolve_fx_dir@fx_muxer_t@@SA?AV?$basic_string@_WU?$char_traits@_W@std@@V?$allocator@_W@2@@std@@W4host_mode_t@@AEBV23@AEBVruntime_config_t@@1@Z@4HA 000000018002c0a0 f   fx_muxer.obj
 0001:0002b0b0       ?dtor$7@?0??resolve_fx_dir@fx_muxer_t@@SA?AV?$basic_string@_WU?$char_traits@_W@std@@V?$allocator@_W@2@@std@@W4host_mode_t@@AEBV23@AEBVruntime_config_t@@1@Z@4HA 000000018002c0b0 f   fx_muxer.obj
 0001:0002b0c0       ?dtor$8@?0??resolve_fx_dir@fx_muxer_t@@SA?AV?$basic_string@_WU?$char_traits@_W@std@@V?$allocator@_W@2@@std@@W4host_mode_t@@AEBV23@AEBVruntime_config_t@@1@Z@4HA 000000018002c0c0 f   fx_muxer.obj
 0001:0002b0d0       ?dtor$5@?0??to_hash_matched_path@deps_entry_t@@QEBA_NAEBV?$basic_string@_WU?$char_traits@_W@std@@V?$allocator@_W@2@@std@@PEAV23@@Z@4HA 000000018002c0d0 f   deps_entry.obj
 0001:0002b0d0       ?dtor$9@?0??resolve_fx_dir@fx_muxer_t@@SA?AV?$basic_string@_WU?$char_traits@_W@std@@V?$allocator@_W@2@@std@@W4host_mode_t@@AEBV23@AEBVruntime_config_t@@1@Z@4HA 000000018002c0d0 f   fx_muxer.obj
 0001:0002b0e0       ?dtor$23@?0??resolve_fx_dir@fx_muxer_t@@SA?AV?$basic_string@_WU?$char_traits@_W@std@@V?$allocator@_W@2@@std@@W4host_mode_t@@AEBV23@AEBVruntime_config_t@@1@Z@4HA 000000018002c0e0 f   fx_muxer.obj
 0001:0002b0e0       ?dtor$2@?0??to_hash_matched_path@deps_entry_t@@QEBA_NAEBV?$basic_string@_WU?$char_traits@_W@std@@V?$allocator@_W@2@@std@@PEAV23@@Z@4HA 000000018002c0e0 f   deps_entry.obj
 0001:0002b0f0       ?dtor$28@?0??resolve_fx_dir@fx_muxer_t@@SA?AV?$basic_string@_WU?$char_traits@_W@std@@V?$allocator@_W@2@@std@@W4host_mode_t@@AEBV23@AEBVruntime_config_t@@1@Z@4HA 000000018002c0f0 f   fx_muxer.obj
 0001:0002b100       ?catch$60@?0??resolve_cli_version@fx_muxer_t@@CA?AV?$basic_string@_WU?$char_traits@_W@std@@V?$allocator@_W@2@@std@@AEBV23@@Z@4HA 000000018002c100 f   fx_muxer.obj
 0001:0002b110       __catch$?resolve_cli_version@fx_muxer_t@@CA?AV?$basic_string@_WU?$char_traits@_W@std@@V?$allocator@_W@2@@std@@AEBV23@@Z$0 000000018002c110 f   fx_muxer.obj
 0001:0002b390       ?dtor$4@?0??ensure_dev_config_parsed@runtime_config_t@@AEAA_NXZ@4HA 000000018002c390 f   runtime_config.obj
 0001:0002b390       ?dtor$4@?0??ensure_parsed@runtime_config_t@@AEAA_NXZ@4HA 000000018002c390 f   runtime_config.obj
 0001:0002b390       ?dtor$0@?0??resolve_cli_version@fx_muxer_t@@CA?AV?$basic_string@_WU?$char_traits@_W@std@@V?$allocator@_W@2@@std@@AEBV23@@Z@4HA 000000018002c390 f   fx_muxer.obj
 0001:0002b390       ?dtor$4@?0??load@deps_json_t@@AEAA_N_NAEBV?$basic_string@_WU?$char_traits@_W@std@@V?$allocator@_W@2@@std@@AEBV?$unordered_map@V?$basic_string@_WU?$char_traits@_W@std@@V?$allocator@_W@2@@std@@V?$vector@V?$basic_string@_WU?$char_traits@_W@std@@V?$allocator@_W@2@@std@@V?$allocator@V?$basic_string@_WU?$char_traits@_W@std@@V?$allocator@_W@2@@std@@@2@@2@U?$hash@V?$basic_string@_WU?$char_traits@_W@std@@V?$allocator@_W@2@@std@@@2@U?$equal_to@V?$basic_string@_WU?$char_traits@_W@std@@V?$allocator@_W@2@@std@@@2@V?$allocator@U?$pair@$$CBV?$basic_string@_WU?$char_traits@_W@std@@V?$allocator@_W@2@@std@@V?$vector@V?$basic_string@_WU?$char_traits@_W@std@@V?$allocator@_W@2@@std@@V?$allocator@V?$basic_string@_WU?$char_traits@_W@std@@V?$allocator@_W@2@@std@@@2@@2@@std@@@2@@3@@Z@4HA 000000018002c390 f   deps_format.obj
 0001:0002b3a0       ?dtor$3@?0??to_hash_matched_path@deps_entry_t@@QEBA_NAEBV?$basic_string@_WU?$char_traits@_W@std@@V?$allocator@_W@2@@std@@PEAV23@@Z@4HA 000000018002c3a0 f   deps_entry.obj
 0001:0002b3a0       ?dtor$2@?0??resolve_cli_version@fx_muxer_t@@CA?AV?$basic_string@_WU?$char_traits@_W@std@@V?$allocator@_W@2@@std@@AEBV23@@Z@4HA 000000018002c3a0 f   fx_muxer.obj
 0001:0002b3b0       ?dtor$2@?0??ensure_dev_config_parsed@runtime_config_t@@AEAA_NXZ@4HA 000000018002c3b0 f   runtime_config.obj
 0001:0002b3b0       ?dtor$2@?0??ensure_parsed@runtime_config_t@@AEAA_NXZ@4HA 000000018002c3b0 f   runtime_config.obj
 0001:0002b3b0       ?dtor$1@?0??load@deps_json_t@@AEAA_N_NAEBV?$basic_string@_WU?$char_traits@_W@std@@V?$allocator@_W@2@@std@@AEBV?$unordered_map@V?$basic_string@_WU?$char_traits@_W@std@@V?$allocator@_W@2@@std@@V?$vector@V?$basic_string@_WU?$char_traits@_W@std@@V?$allocator@_W@2@@std@@V?$allocator@V?$basic_string@_WU?$char_traits@_W@std@@V?$allocator@_W@2@@std@@@2@@2@U?$hash@V?$basic_string@_WU?$char_traits@_W@std@@V?$allocator@_W@2@@std@@@2@U?$equal_to@V?$basic_string@_WU?$char_traits@_W@std@@V?$allocator@_W@2@@std@@@2@V?$allocator@U?$pair@$$CBV?$basic_string@_WU?$char_traits@_W@std@@V?$allocator@_W@2@@std@@V?$vector@V?$basic_string@_WU?$char_traits@_W@std@@V?$allocator@_W@2@@std@@V?$allocator@V?$basic_string@_WU?$char_traits@_W@std@@V?$allocator@_W@2@@std@@@2@@2@@std@@@2@@3@@Z@4HA 000000018002c3b0 f   deps_format.obj
 0001:0002b3b0       ?dtor$3@?0??resolve_cli_version@fx_muxer_t@@CA?AV?$basic_string@_WU?$char_traits@_W@std@@V?$allocator@_W@2@@std@@AEBV23@@Z@4HA 000000018002c3b0 f   fx_muxer.obj
 0001:0002b3c0       ?dtor$6@?0??resolve_cli_version@fx_muxer_t@@CA?AV?$basic_string@_WU?$char_traits@_W@std@@V?$allocator@_W@2@@std@@AEBV23@@Z@4HA 000000018002c3c0 f   fx_muxer.obj
 0001:0002b3c0       ?dtor$2@?0??load@deps_json_t@@AEAA_N_NAEBV?$basic_string@_WU?$char_traits@_W@std@@V?$allocator@_W@2@@std@@AEBV?$unordered_map@V?$basic_string@_WU?$char_traits@_W@std@@V?$allocator@_W@2@@std@@V?$vector@V?$basic_string@_WU?$char_traits@_W@std@@V?$allocator@_W@2@@std@@V?$allocator@V?$basic_string@_WU?$char_traits@_W@std@@V?$allocator@_W@2@@std@@@2@@2@U?$hash@V?$basic_string@_WU?$char_traits@_W@std@@V?$allocator@_W@2@@std@@@2@U?$equal_to@V?$basic_string@_WU?$char_traits@_W@std@@V?$allocator@_W@2@@std@@@2@V?$allocator@U?$pair@$$CBV?$basic_string@_WU?$char_traits@_W@std@@V?$allocator@_W@2@@std@@V?$vector@V?$basic_string@_WU?$char_traits@_W@std@@V?$allocator@_W@2@@std@@V?$allocator@V?$basic_string@_WU?$char_traits@_W@std@@V?$allocator@_W@2@@std@@@2@@2@@std@@@2@@3@@Z@4HA 000000018002c3c0 f   deps_format.obj
 0001:0002b3d0       ?dtor$7@?0??resolve_cli_version@fx_muxer_t@@CA?AV?$basic_string@_WU?$char_traits@_W@std@@V?$allocator@_W@2@@std@@AEBV23@@Z@4HA 000000018002c3d0 f   fx_muxer.obj
 0001:0002b3e0       ?dtor$0@?0??resolve_sdk_version@@YA?AV?$basic_string@_WU?$char_traits@_W@std@@V?$allocator@_W@2@@std@@V12@@Z@4HA 000000018002c3e0 f   fx_muxer.obj
 0001:0002b3f0       ?dtor$2@?0??resolve_sdk_version@@YA?AV?$basic_string@_WU?$char_traits@_W@std@@V?$allocator@_W@2@@std@@V12@@Z@4HA 000000018002c3f0 f   fx_muxer.obj
 0001:0002b3f0       ?dtor$3@?0??try_patch_roll_forward_in_dir@@YAXAEBV?$basic_string@_WU?$char_traits@_W@std@@V?$allocator@_W@2@@std@@AEBUfx_ver_t@@PEAV12@@Z@4HA 000000018002c3f0 f   libhost.obj
 0001:0002b3f0       ?dtor$3@?0??try_prerelease_roll_forward_in_dir@@YAXAEBV?$basic_string@_WU?$char_traits@_W@std@@V?$allocator@_W@2@@std@@AEBUfx_ver_t@@PEAV12@@Z@4HA 000000018002c3f0 f   libhost.obj
 0001:0002b400       ?dtor$3@?0??resolve_sdk_version@@YA?AV?$basic_string@_WU?$char_traits@_W@std@@V?$allocator@_W@2@@std@@V12@@Z@4HA 000000018002c400 f   fx_muxer.obj
 0001:0002b410       ?dtor$5@?0??try_patch_roll_forward_in_dir@@YAXAEBV?$basic_string@_WU?$char_traits@_W@std@@V?$allocator@_W@2@@std@@AEBUfx_ver_t@@PEAV12@@Z@4HA 000000018002c410 f   libhost.obj
 0001:0002b410       ?dtor$5@?0??try_prerelease_roll_forward_in_dir@@YAXAEBV?$basic_string@_WU?$char_traits@_W@std@@V?$allocator@_W@2@@std@@AEBUfx_ver_t@@PEAV12@@Z@4HA 000000018002c410 f   libhost.obj
 0001:0002b410       ?dtor$4@?0??resolve_sdk_version@@YA?AV?$basic_string@_WU?$char_traits@_W@std@@V?$allocator@_W@2@@std@@V12@@Z@4HA 000000018002c410 f   fx_muxer.obj
 0001:0002b420       ?dtor$5@?0??resolve_sdk_version@@YA?AV?$basic_string@_WU?$char_traits@_W@std@@V?$allocator@_W@2@@std@@V12@@Z@4HA 000000018002c420 f   fx_muxer.obj
 0001:0002b430       ?dtor$3@?0??resolve_probe_dirs@deps_resolver_t@@AEAA_NW4asset_types@deps_entry_t@@PEAV?$basic_string@_WU?$char_traits@_W@std@@V?$allocator@_W@2@@std@@PEAV?$unordered_set@V?$basic_string@_WU?$char_traits@_W@std@@V?$allocator@_W@2@@std@@U?$hash@V?$basic_string@_WU?$char_traits@_W@std@@V?$allocator@_W@2@@std@@@2@U?$equal_to@V?$basic_string@_WU?$char_traits@_W@std@@V?$allocator@_W@2@@std@@@2@V?$allocator@V?$basic_string@_WU?$char_traits@_W@std@@V?$allocator@_W@2@@std@@@2@@5@@Z@4HA 000000018002c430 f   deps_resolver.obj
 0001:0002b430       ?dtor$7@?0??resolve_sdk_version@@YA?AV?$basic_string@_WU?$char_traits@_W@std@@V?$allocator@_W@2@@std@@V12@@Z@4HA 000000018002c430 f   fx_muxer.obj
 0001:0002b430       ?dtor$2@?0??get_dir_assemblies@deps_resolver_t@@AEAAXAEBV?$basic_string@_WU?$char_traits@_W@std@@V?$allocator@_W@2@@std@@0PEAV?$unordered_map@V?$basic_string@_WU?$char_traits@_W@std@@V?$allocator@_W@2@@std@@V12@U?$hash@V?$basic_string@_WU?$char_traits@_W@std@@V?$allocator@_W@2@@std@@@2@U?$equal_to@V?$basic_string@_WU?$char_traits@_W@std@@V?$allocator@_W@2@@std@@@2@V?$allocator@U?$pair@$$CBV?$basic_string@_WU?$char_traits@_W@std@@V?$allocator@_W@2@@std@@V12@@std@@@2@@3@@Z@4HA 000000018002c430 f   deps_resolver.obj
 0001:0002b440       ?dtor$6@?0??_parse_narrow_stream@@YA?AVvalue@json@web@@AEAV?$basic_istream@DU?$char_traits@D@std@@@std@@@Z@4HA 000000018002c440 f   json_parsing.obj
 0001:0002b440       ?dtor$5@?0??_parse_narrow_stream@@YA?AVvalue@json@web@@AEAV?$basic_istream@DU?$char_traits@D@std@@@std@@@Z@4HA 000000018002c440 f   json_parsing.obj
 0001:0002b440       ?dtor$0@?0??resolve_sdk_dotnet_path@fx_muxer_t@@SA_NAEBV?$basic_string@_WU?$char_traits@_W@std@@V?$allocator@_W@2@@std@@PEAV23@@Z@4HA 000000018002c440 f   fx_muxer.obj
 0001:0002b450       ?dtor$1@?0??resolve_sdk_dotnet_path@fx_muxer_t@@SA_NAEBV?$basic_string@_WU?$char_traits@_W@std@@V?$allocator@_W@2@@std@@PEAV23@@Z@4HA 000000018002c450 f   fx_muxer.obj
 0001:0002b460       ?dtor$2@?0??resolve_sdk_dotnet_path@fx_muxer_t@@SA_NAEBV?$basic_string@_WU?$char_traits@_W@std@@V?$allocator@_W@2@@std@@PEAV23@@Z@4HA 000000018002c460 f   fx_muxer.obj
 0001:0002b460       ?dtor$8@?0??setup_probe_config@deps_resolver_t@@QEAAXAEBUhostpolicy_init_t@@AEBUarguments_t@@@Z@4HA 000000018002c460 f   deps_resolver.obj
 0001:0002b460       ?dtor$2@?0??setup_probe_config@deps_resolver_t@@QEAAXAEBUhostpolicy_init_t@@AEBUarguments_t@@@Z@4HA 000000018002c460 f   deps_resolver.obj
 0001:0002b470       ?dtor$0@?0??bind@coreclr@@YA_NAEBV?$basic_string@_WU?$char_traits@_W@std@@V?$allocator@_W@2@@std@@@Z@4HA 000000018002c470 f   coreclr.obj
 0001:0002b470       ?dtor$8@?0??resolve_sdk_dotnet_path@fx_muxer_t@@SA_NAEBV?$basic_string@_WU?$char_traits@_W@std@@V?$allocator@_W@2@@std@@PEAV23@@Z@4HA 000000018002c470 f   fx_muxer.obj
 0001:0002b470       ?dtor$4@?0??_Do_call@?$_Func_impl_no_alloc@V<lambda_1aba6256d6a382a5942e3058d6b152f6>@@V?$basic_string@_WU?$char_traits@_W@std@@V?$allocator@_W@2@@std@@AEBV23@@std@@EEAA?AV?$basic_string@_WU?$char_traits@_W@std@@V?$allocator@_W@2@@2@AEBV32@@Z@4HA 000000018002c470 f   deps_resolver.obj
 0001:0002b470       ?dtor$4@?0??resolve_sdk_dotnet_path@fx_muxer_t@@SA_NAEBV?$basic_string@_WU?$char_traits@_W@std@@V?$allocator@_W@2@@std@@PEAV23@@Z@4HA 000000018002c470 f   fx_muxer.obj
 0001:0002b470       ?dtor$0@?0??to_path@deps_entry_t@@QEBA_NAEBV?$basic_string@_WU?$char_traits@_W@std@@V?$allocator@_W@2@@std@@_NPEAV23@@Z@4HA 000000018002c470 f   deps_entry.obj
 0001:0002b470       ?dtor$0@?0??handle_unescape_char@?$JSON_Parser@D@details@json@web@@IEAA_NAEAUToken@1234@@Z@4HA 000000018002c470 f   json_parsing.obj
 0001:0002b480       ?dtor$4@?0??_ParseObject@?$JSON_Parser@D@details@json@web@@AEAA?AV?$unique_ptr@V_Value@details@json@web@@U?$default_delete@V_Value@details@json@web@@@std@@@std@@AEAUToken@1234@@Z@4HA 000000018002c480 f   json_parsing.obj
 0001:0002b480       ?dtor$9@?0??resolve_sdk_dotnet_path@fx_muxer_t@@SA_NAEBV?$basic_string@_WU?$char_traits@_W@std@@V?$allocator@_W@2@@std@@PEAV23@@Z@4HA 000000018002c480 f   fx_muxer.obj
 0001:0002b480       ?dtor$3@?0??to_path@deps_entry_t@@QEBA_NAEBV?$basic_string@_WU?$char_traits@_W@std@@V?$allocator@_W@2@@std@@_NPEAV23@@Z@4HA 000000018002c480 f   deps_entry.obj
 0001:0002b480       ?dtor$0@?0??process_targets@deps_json_t@@AEAA_NAEBVvalue@json@web@@AEBV?$basic_string@_WU?$char_traits@_W@std@@V?$allocator@_W@2@@std@@PEAUdeps_assets_t@1@@Z@4HA 000000018002c480 f   deps_format.obj
 0001:0002b480       ?dtor$7@?0??resolve_sdk_dotnet_path@fx_muxer_t@@SA_NAEBV?$basic_string@_WU?$char_traits@_W@std@@V?$allocator@_W@2@@std@@PEAV23@@Z@4HA 000000018002c480 f   fx_muxer.obj
 0001:0002b480       ?dtor$4@?0??setup_probe_config@deps_resolver_t@@QEAAXAEBUhostpolicy_init_t@@AEBUarguments_t@@@Z@4HA 000000018002c480 f   deps_resolver.obj
 0001:0002b480       ?dtor$0@?0??setup_probe_config@deps_resolver_t@@QEAAXAEBUhostpolicy_init_t@@AEBUarguments_t@@@Z@4HA 000000018002c480 f   deps_resolver.obj
 0001:0002b490       ?dtor$0@?0??uflow@?$basic_filebuf@DU?$char_traits@D@std@@@std@@MEAAHXZ@4HA 000000018002c490 f   fx_muxer.obj
 0001:0002b4a0       ?dtor$0@?0???0?$basic_ifstream@DU?$char_traits@D@std@@@std@@QEAA@PEB_WHH@Z@4HA 000000018002c4a0 f   fx_muxer.obj
 0001:0002b4e0       ?dtor$1@?0???0?$basic_ifstream@DU?$char_traits@D@std@@@std@@QEAA@PEB_WHH@Z@4HA 000000018002c4e0 f   fx_muxer.obj
 0001:0002b500       ?dtor$2@?0???0?$basic_ifstream@DU?$char_traits@D@std@@@std@@QEAA@PEB_WHH@Z@4HA 000000018002c500 f   fx_muxer.obj
 0001:0002b510       ?dtor$3@?0???0?$basic_ifstream@DU?$char_traits@D@std@@@std@@QEAA@PEB_WHH@Z@4HA 000000018002c510 f   fx_muxer.obj
 0001:0002b520       ?dtor$4@?0???0?$basic_ifstream@DU?$char_traits@D@std@@@std@@QEAA@PEB_WHH@Z@4HA 000000018002c520 f   fx_muxer.obj
 0001:0002b530       ?dtor$0@?0???$use_facet@V?$codecvt@DDU_Mbstatet@@@std@@@std@@YAAEBV?$codecvt@DDU_Mbstatet@@@0@AEBVlocale@0@@Z@4HA 000000018002c530 f   fx_muxer.obj
 0001:0002b540       ?dtor$1@?0???$use_facet@V?$codecvt@DDU_Mbstatet@@@std@@@std@@YAAEBV?$codecvt@DDU_Mbstatet@@@0@AEBVlocale@0@@Z@4HA 000000018002c540 f   fx_muxer.obj
 0001:0002b550       ?dtor$0@?0???Aobject@json@web@@QEAAAEAVvalue@12@AEBV?$basic_string@_WU?$char_traits@_W@std@@V?$allocator@_W@2@@std@@@Z@4HA 000000018002c550 f   json.obj
 0001:0002b560       ?dtor$1@?0???Aobject@json@web@@QEAAAEAVvalue@12@AEBV?$basic_string@_WU?$char_traits@_W@std@@V?$allocator@_W@2@@std@@@Z@4HA 000000018002c560 f   json.obj
 0001:0002b560       ?dtor$0@?0???$_Sort_heap_unchecked@PEAU?$pair@V?$basic_string@_WU?$char_traits@_W@std@@V?$allocator@_W@2@@std@@Vvalue@json@web@@@std@@P6A_NAEBU12@0@Z@std@@YAXPEAU?$pair@V?$basic_string@_WU?$char_traits@_W@std@@V?$allocator@_W@2@@std@@Vvalue@json@web@@@0@0P6A_NAEBU10@1@Z@Z@4HA 000000018002c560 f   json.obj
 0001:0002b570       ?dtor$2@?0??_copy_value@_String@details@json@web@@UEAA?AV?$unique_ptr@V_Value@details@json@web@@U?$default_delete@V_Value@details@json@web@@@std@@@std@@XZ@4HA 000000018002c570 f   json.obj
 0001:0002b590       ?dtor$4@?0??_copy_value@_Array@details@json@web@@UEAA?AV?$unique_ptr@V_Value@details@json@web@@U?$default_delete@V_Value@details@json@web@@@std@@@std@@XZ@4HA 000000018002c590 f   json.obj
 0001:0002b590       ?dtor$4@?0??_copy_value@_String@details@json@web@@UEAA?AV?$unique_ptr@V_Value@details@json@web@@U?$default_delete@V_Value@details@json@web@@@std@@@std@@XZ@4HA 000000018002c590 f   json.obj
 0001:0002b5a0       ?dtor$2@?0??_copy_value@_Object@details@json@web@@UEAA?AV?$unique_ptr@V_Value@details@json@web@@U?$default_delete@V_Value@details@json@web@@@std@@@std@@XZ@4HA 000000018002c5a0 f   json.obj
 0001:0002b5c0       ?dtor$4@?0??_copy_value@_Object@details@json@web@@UEAA?AV?$unique_ptr@V_Value@details@json@web@@U?$default_delete@V_Value@details@json@web@@@std@@@std@@XZ@4HA 000000018002c5c0 f   json.obj
 0001:0002b5d0       ?dtor$2@?0??_copy_value@_Array@details@json@web@@UEAA?AV?$unique_ptr@V_Value@details@json@web@@U?$default_delete@V_Value@details@json@web@@@std@@@std@@XZ@4HA 000000018002c5d0 f   json.obj
 0001:0002b5f0       ?dtor$0@?0???0?$vector@Vvalue@json@web@@V?$allocator@Vvalue@json@web@@@std@@@std@@QEAA@AEBV01@@Z@4HA 000000018002c5f0 f   json.obj
 0001:0002b5f0       ?dtor$0@?0??_Udefault@?$vector@Vvalue@json@web@@V?$allocator@Vvalue@json@web@@@std@@@std@@AEAAPEAVvalue@json@web@@PEAV345@_K@Z@4HA 000000018002c5f0 f   json.obj
 0001:0002b600       ?catch$3@?0???$_Resize@V<lambda_8945885b29bc7255f9ee5920a0459fb4>@@@?$vector@Vvalue@json@web@@V?$allocator@Vvalue@json@web@@@std@@@std@@AEAAX_KV<lambda_8945885b29bc7255f9ee5920a0459fb4>@@@Z@4HA 000000018002c600 f   json.obj
 0001:0002b60d       __catch$??$_Resize@V<lambda_8945885b29bc7255f9ee5920a0459fb4>@@@?$vector@Vvalue@json@web@@V?$allocator@Vvalue@json@web@@@std@@@std@@AEAAX_KV<lambda_8945885b29bc7255f9ee5920a0459fb4>@@@Z$0 000000018002c60d f   json.obj
 0001:0002b640       ?catch$3@?0???0?$vector@Vvalue@json@web@@V?$allocator@Vvalue@json@web@@@std@@@std@@QEAA@AEBV01@@Z@4HA 000000018002c640 f   json.obj
 0001:0002b64d       __catch$??0?$vector@Vvalue@json@web@@V?$allocator@Vvalue@json@web@@@std@@@std@@QEAA@AEBV01@@Z$0 000000018002c64d f   json.obj
 0001:0002b660       ?catch$4@?0???0?$vector@U?$pair@V?$basic_string@_WU?$char_traits@_W@std@@V?$allocator@_W@2@@std@@Vvalue@json@web@@@std@@V?$allocator@U?$pair@V?$basic_string@_WU?$char_traits@_W@std@@V?$allocator@_W@2@@std@@Vvalue@json@web@@@std@@@2@@std@@QEAA@AEBV01@@Z@4HA 000000018002c660 f   json.obj
 0001:0002b66d       __catch$??0?$vector@U?$pair@V?$basic_string@_WU?$char_traits@_W@std@@V?$allocator@_W@2@@std@@Vvalue@json@web@@@std@@V?$allocator@U?$pair@V?$basic_string@_WU?$char_traits@_W@std@@V?$allocator@_W@2@@std@@Vvalue@json@web@@@std@@@2@@std@@QEAA@AEBV01@@Z$0 000000018002c66d f   json.obj
 0001:0002b680       ?dtor$0@?0???0?$vector@U?$pair@V?$basic_string@_WU?$char_traits@_W@std@@V?$allocator@_W@2@@std@@Vvalue@json@web@@@std@@V?$allocator@U?$pair@V?$basic_string@_WU?$char_traits@_W@std@@V?$allocator@_W@2@@std@@Vvalue@json@web@@@std@@@2@@std@@QEAA@AEBV01@@Z@4HA 000000018002c680 f   json.obj
 0001:0002b690       ?dtor$1@?0???0?$vector@U?$pair@V?$basic_string@_WU?$char_traits@_W@std@@V?$allocator@_W@2@@std@@Vvalue@json@web@@@std@@V?$allocator@U?$pair@V?$basic_string@_WU?$char_traits@_W@std@@V?$allocator@_W@2@@std@@Vvalue@json@web@@@std@@@2@@std@@QEAA@AEBV01@@Z@4HA 000000018002c690 f   json.obj
 0001:0002b6a0       ?dtor$0@?0???$_Make_heap_unchecked@PEAU?$pair@V?$basic_string@_WU?$char_traits@_W@std@@V?$allocator@_W@2@@std@@Vvalue@json@web@@@std@@P6A_NAEBU12@0@Z@std@@YAXPEAU?$pair@V?$basic_string@_WU?$char_traits@_W@std@@V?$allocator@_W@2@@std@@Vvalue@json@web@@@0@0P6A_NAEBU10@1@Z@Z@4HA 000000018002c6a0 f   json.obj
 0001:0002b6b0       ?dtor$0@?0???$_Insertion_sort_unchecked@PEAU?$pair@V?$basic_string@_WU?$char_traits@_W@std@@V?$allocator@_W@2@@std@@Vvalue@json@web@@@std@@P6A_NAEBU12@0@Z@std@@YAPEAU?$pair@V?$basic_string@_WU?$char_traits@_W@std@@V?$allocator@_W@2@@std@@Vvalue@json@web@@@0@PEAU10@QEAU10@P6A_NAEBU10@2@Z@Z@4HA 000000018002c6b0 f   json.obj
 0001:0002b6c0       ?dtor$0@?0??message@_System_error_category@std@@UEBA?AV?$basic_string@DU?$char_traits@D@std@@V?$allocator@D@2@@2@H@Z@4HA 000000018002c6c0 f   json_parsing.obj
 0001:0002b6f0       ?dtor$0@?0??_parse_narrow_stream@@YA?AVvalue@json@web@@AEAV?$basic_istream@DU?$char_traits@D@std@@@std@@@Z@4HA 000000018002c6f0 f   json_parsing.obj
 0001:0002b700       ?dtor$1@?0??_parse_narrow_stream@@YA?AVvalue@json@web@@AEAV?$basic_istream@DU?$char_traits@D@std@@@std@@@Z@4HA 000000018002c700 f   json_parsing.obj
 0001:0002b710       ?dtor$4@?0??resolve_tpa_list@deps_resolver_t@@AEAA_NPEAV?$basic_string@_WU?$char_traits@_W@std@@V?$allocator@_W@2@@std@@PEAV?$unordered_set@V?$basic_string@_WU?$char_traits@_W@std@@V?$allocator@_W@2@@std@@U?$hash@V?$basic_string@_WU?$char_traits@_W@std@@V?$allocator@_W@2@@std@@@2@U?$equal_to@V?$basic_string@_WU?$char_traits@_W@std@@V?$allocator@_W@2@@std@@@2@V?$allocator@V?$basic_string@_WU?$char_traits@_W@std@@V?$allocator@_W@2@@std@@@2@@3@@Z@4HA 000000018002c710 f   deps_resolver.obj
 0001:0002b710       ?dtor$2@?0??_parse_narrow_stream@@YA?AVvalue@json@web@@AEAV?$basic_istream@DU?$char_traits@D@std@@@std@@@Z@4HA 000000018002c710 f   json_parsing.obj
 0001:0002b720       ?dtor$3@?0??_parse_narrow_stream@@YA?AVvalue@json@web@@AEAV?$basic_istream@DU?$char_traits@D@std@@@std@@@Z@4HA 000000018002c720 f   json_parsing.obj
 0001:0002b750       ?dtor$4@?0??_parse_narrow_stream@@YA?AVvalue@json@web@@AEAV?$basic_istream@DU?$char_traits@D@std@@@std@@@Z@4HA 000000018002c750 f   json_parsing.obj
 0001:0002b760       ?dtor$7@?0??_ParseValue@?$JSON_Parser@D@details@json@web@@AEAA?AV?$unique_ptr@V_Value@details@json@web@@U?$default_delete@V_Value@details@json@web@@@std@@@std@@AEAUToken@1234@@Z@4HA 000000018002c760 f   json_parsing.obj
 0001:0002b760       ?dtor$1@?0??_ParseValue@?$JSON_Parser@D@details@json@web@@AEAA?AV?$unique_ptr@V_Value@details@json@web@@U?$default_delete@V_Value@details@json@web@@@std@@@std@@AEAUToken@1234@@Z@4HA 000000018002c760 f   json_parsing.obj
 0001:0002b760       ?dtor$9@?0??_ParseValue@?$JSON_Parser@D@details@json@web@@AEAA?AV?$unique_ptr@V_Value@details@json@web@@U?$default_delete@V_Value@details@json@web@@@std@@@std@@AEAUToken@1234@@Z@4HA 000000018002c760 f   json_parsing.obj
 0001:0002b760       ?dtor$3@?0??_ParseArray@?$JSON_Parser@D@details@json@web@@AEAA?AV?$unique_ptr@V_Value@details@json@web@@U?$default_delete@V_Value@details@json@web@@@std@@@std@@AEAUToken@1234@@Z@4HA 000000018002c760 f   json_parsing.obj
 0001:0002b760       ?dtor$3@?0??_ParseValue@?$JSON_Parser@D@details@json@web@@AEAA?AV?$unique_ptr@V_Value@details@json@web@@U?$default_delete@V_Value@details@json@web@@@std@@@std@@AEAUToken@1234@@Z@4HA 000000018002c760 f   json_parsing.obj
 0001:0002b770       ?dtor$13@?0??_ParseValue@?$JSON_Parser@D@details@json@web@@AEAA?AV?$unique_ptr@V_Value@details@json@web@@U?$default_delete@V_Value@details@json@web@@@std@@@std@@AEAUToken@1234@@Z@4HA 000000018002c770 f   json_parsing.obj
 0001:0002b790       ?dtor$15@?0??_ParseValue@?$JSON_Parser@D@details@json@web@@AEAA?AV?$unique_ptr@V_Value@details@json@web@@U?$default_delete@V_Value@details@json@web@@@std@@@std@@AEAUToken@1234@@Z@4HA 000000018002c790 f   json_parsing.obj
 0001:0002b7a0       ?dtor$0@?0???$CreateException@UToken@?$JSON_Parser@D@details@json@web@@@details@json@web@@YAXAEBUToken@?$JSON_Parser@D@012@AEBV?$basic_string@_WU?$char_traits@_W@std@@V?$allocator@_W@2@@std@@@Z@4HA 000000018002c7a0 f   json_parsing.obj
 0001:0002b7b0       ?dtor$1@?0???$CreateException@UToken@?$JSON_Parser@D@details@json@web@@@details@json@web@@YAXAEBUToken@?$JSON_Parser@D@012@AEBV?$basic_string@_WU?$char_traits@_W@std@@V?$allocator@_W@2@@std@@@Z@4HA 000000018002c7b0 f   json_parsing.obj
 0001:0002b7c0       ?dtor$0@?0???0?$basic_ostringstream@_WU?$char_traits@_W@std@@V?$allocator@_W@2@@std@@QEAA@H@Z@4HA 000000018002c7c0 f   json_parsing.obj
 0001:0002b7f0       ?dtor$1@?0???0?$basic_ostringstream@_WU?$char_traits@_W@std@@V?$allocator@_W@2@@std@@QEAA@H@Z@4HA 000000018002c7f0 f   json_parsing.obj
 0001:0002b810       ?dtor$1@?0??handle_unescape_char@?$JSON_Parser@D@details@json@web@@IEAA_NAEAUToken@1234@@Z@4HA 000000018002c810 f   json_parsing.obj
 0001:0002b810       ?dtor$1@?0??_ParseObject@?$JSON_Parser@D@details@json@web@@AEAA?AV?$unique_ptr@V_Value@details@json@web@@U?$default_delete@V_Value@details@json@web@@@std@@@std@@AEAUToken@1234@@Z@4HA 000000018002c810 f   json_parsing.obj
 0001:0002b820       ?dtor$0@?0??CompleteNumberLiteral@?$JSON_Parser@D@details@json@web@@AEAA_NDAEAUToken@1234@@Z@4HA 000000018002c820 f   json_parsing.obj
 0001:0002b830       ?dtor$0@?0??_ParseObject@?$JSON_Parser@D@details@json@web@@AEAA?AV?$unique_ptr@V_Value@details@json@web@@U?$default_delete@V_Value@details@json@web@@@std@@@std@@AEAUToken@1234@@Z@4HA 000000018002c830 f   json_parsing.obj
 0001:0002b840       ?dtor$3@?0??_ParseObject@?$JSON_Parser@D@details@json@web@@AEAA?AV?$unique_ptr@V_Value@details@json@web@@U?$default_delete@V_Value@details@json@web@@@std@@@std@@AEAUToken@1234@@Z@4HA 000000018002c840 f   json_parsing.obj
 0001:0002b840       ?dtor$2@?0??_ParseArray@?$JSON_Parser@D@details@json@web@@AEAA?AV?$unique_ptr@V_Value@details@json@web@@U?$default_delete@V_Value@details@json@web@@@std@@@std@@AEAUToken@1234@@Z@4HA 000000018002c840 f   json_parsing.obj
 0001:0002b850       ?dtor$1@?0??format@_String@details@json@web@@MEBAXAEAV?$basic_string@DU?$char_traits@D@std@@V?$allocator@D@2@@std@@@Z@4HA 000000018002c850 f   json_serialization.obj
 0001:0002b850       ?dtor$0@?0??format_string@details@json@web@@YAXAEBV?$basic_string@_WU?$char_traits@_W@std@@V?$allocator@_W@2@@std@@AEAV?$basic_string@DU?$char_traits@D@std@@V?$allocator@D@2@@5@@Z@4HA 000000018002c850 f   json_serialization.obj
 0001:0002b850       ?dtor$0@?0??format@_String@details@json@web@@MEBAXAEAV?$basic_string@DU?$char_traits@D@std@@V?$allocator@D@2@@std@@@Z@4HA 000000018002c850 f   json_serialization.obj
 0001:0002b860       ?dtor$0@?0??rethrow_exception@std@@YAXVexception_ptr@1@@Z@4HA 000000018002c860 f   asyncrt_utils.obj
 0001:0002b870       ?dtor$0@?0??c_locale@scoped_c_thread_locale@details@utility@@SAPEAU__crt_locale_pointers@@XZ@4HA 000000018002c870 f   asyncrt_utils.obj
 0001:0002b880       ?dtor$0@?0??utf8_to_utf16@conversions@utility@@YA?AV?$basic_string@_WU?$char_traits@_W@std@@V?$allocator@_W@2@@std@@AEBV?$basic_string@DU?$char_traits@D@std@@V?$allocator@D@2@@4@@Z@4HA 000000018002c880 f   asyncrt_utils.obj
 0001:0002b8b0       ?dtor$0@?0??utf16_to_utf8@conversions@utility@@YA?AV?$basic_string@DU?$char_traits@D@std@@V?$allocator@D@2@@std@@AEBV?$basic_string@_WU?$char_traits@_W@std@@V?$allocator@_W@2@@4@@Z@4HA 000000018002c8b0 f   asyncrt_utils.obj
 0001:0002b8e0       ?catch$9@?0???$_Callback_once@V?$tuple@$$QEAV<lambda_be06702159ab0b9b163ca675bae932a8>@@AEAVexception_ptr@std@@@std@@U?$integer_sequence@_K$0A@@2@$00@std@@YAHPEAX0PEAPEAX@Z@4HA 000000018002c8e0 f   asyncrt_utils.obj
 0001:0002b8ee       __catch$??$_Callback_once@V?$tuple@$$QEAV<lambda_be06702159ab0b9b163ca675bae932a8>@@AEAVexception_ptr@std@@@std@@U?$integer_sequence@_K$0A@@2@$00@std@@YAHPEAX0PEAPEAX@Z$0 000000018002c8ee f   asyncrt_utils.obj
 0001:0002b940       ?dtor$4@?0??reconcile_libraries_with_targets@deps_json_t@@AEAAXAEBVvalue@json@web@@AEBV?$function@$$A6A_NAEBV?$basic_string@_WU?$char_traits@_W@std@@V?$allocator@_W@2@@std@@@Z@std@@AEBV?$function@$$A6AAEBV?$vector@V?$basic_string@_WU?$char_traits@_W@std@@V?$allocator@_W@2@@std@@V?$allocator@V?$basic_string@_WU?$char_traits@_W@std@@V?$allocator@_W@2@@std@@@2@@std@@AEBV?$basic_string@_WU?$char_traits@_W@std@@V?$allocator@_W@2@@2@HPEA_N@Z@6@@Z@4HA 000000018002c940 f   deps_format.obj
 0001:0002b940       ?dtor$0@?0??reconcile_libraries_with_targets@deps_json_t@@AEAAXAEBVvalue@json@web@@AEBV?$function@$$A6A_NAEBV?$basic_string@_WU?$char_traits@_W@std@@V?$allocator@_W@2@@std@@@Z@std@@AEBV?$function@$$A6AAEBV?$vector@V?$basic_string@_WU?$char_traits@_W@std@@V?$allocator@_W@2@@std@@V?$allocator@V?$basic_string@_WU?$char_traits@_W@std@@V?$allocator@_W@2@@std@@@2@@std@@AEBV?$basic_string@_WU?$char_traits@_W@std@@V?$allocator@_W@2@@2@HPEA_N@Z@6@@Z@4HA 000000018002c940 f   deps_format.obj
 0001:0002b940       ?dtor$6@?0??get_dir_assemblies@deps_resolver_t@@AEAAXAEBV?$basic_string@_WU?$char_traits@_W@std@@V?$allocator@_W@2@@std@@0PEAV?$unordered_map@V?$basic_string@_WU?$char_traits@_W@std@@V?$allocator@_W@2@@std@@V12@U?$hash@V?$basic_string@_WU?$char_traits@_W@std@@V?$allocator@_W@2@@std@@@2@U?$equal_to@V?$basic_string@_WU?$char_traits@_W@std@@V?$allocator@_W@2@@std@@@2@V?$allocator@U?$pair@$$CBV?$basic_string@_WU?$char_traits@_W@std@@V?$allocator@_W@2@@std@@V12@@std@@@2@@3@@Z@4HA 000000018002c940 f   deps_resolver.obj
 0001:0002b940       ?dtor$6@?0??reconcile_libraries_with_targets@deps_json_t@@AEAAXAEBVvalue@json@web@@AEBV?$function@$$A6A_NAEBV?$basic_string@_WU?$char_traits@_W@std@@V?$allocator@_W@2@@std@@@Z@std@@AEBV?$function@$$A6AAEBV?$vector@V?$basic_string@_WU?$char_traits@_W@std@@V?$allocator@_W@2@@std@@V?$allocator@V?$basic_string@_WU?$char_traits@_W@std@@V?$allocator@_W@2@@std@@@2@@std@@AEBV?$basic_string@_WU?$char_traits@_W@std@@V?$allocator@_W@2@@2@HPEA_N@Z@6@@Z@4HA 000000018002c940 f   deps_format.obj
 0001:0002b940       ?dtor$1@?0??reconcile_libraries_with_targets@deps_json_t@@AEAAXAEBVvalue@json@web@@AEBV?$function@$$A6A_NAEBV?$basic_string@_WU?$char_traits@_W@std@@V?$allocator@_W@2@@std@@@Z@std@@AEBV?$function@$$A6AAEBV?$vector@V?$basic_string@_WU?$char_traits@_W@std@@V?$allocator@_W@2@@std@@V?$allocator@V?$basic_string@_WU?$char_traits@_W@std@@V?$allocator@_W@2@@std@@@2@@std@@AEBV?$basic_string@_WU?$char_traits@_W@std@@V?$allocator@_W@2@@2@HPEA_N@Z@6@@Z@4HA 000000018002c940 f   deps_format.obj
 0001:0002b950       ?dtor$3@?0??reconcile_libraries_with_targets@deps_json_t@@AEAAXAEBVvalue@json@web@@AEBV?$function@$$A6A_NAEBV?$basic_string@_WU?$char_traits@_W@std@@V?$allocator@_W@2@@std@@@Z@std@@AEBV?$function@$$A6AAEBV?$vector@V?$basic_string@_WU?$char_traits@_W@std@@V?$allocator@_W@2@@std@@V?$allocator@V?$basic_string@_WU?$char_traits@_W@std@@V?$allocator@_W@2@@std@@@2@@std@@AEBV?$basic_string@_WU?$char_traits@_W@std@@V?$allocator@_W@2@@2@HPEA_N@Z@6@@Z@4HA 000000018002c950 f   deps_format.obj
 0001:0002b950       ?dtor$7@?0??to_hash_matched_path@deps_entry_t@@QEBA_NAEBV?$basic_string@_WU?$char_traits@_W@std@@V?$allocator@_W@2@@std@@PEAV23@@Z@4HA 000000018002c950 f   deps_entry.obj
 0001:0002b960       ?dtor$9@?0??get_dir_assemblies@deps_resolver_t@@AEAAXAEBV?$basic_string@_WU?$char_traits@_W@std@@V?$allocator@_W@2@@std@@0PEAV?$unordered_map@V?$basic_string@_WU?$char_traits@_W@std@@V?$allocator@_W@2@@std@@V12@U?$hash@V?$basic_string@_WU?$char_traits@_W@std@@V?$allocator@_W@2@@std@@@2@U?$equal_to@V?$basic_string@_WU?$char_traits@_W@std@@V?$allocator@_W@2@@std@@@2@V?$allocator@U?$pair@$$CBV?$basic_string@_WU?$char_traits@_W@std@@V?$allocator@_W@2@@std@@V12@@std@@@2@@3@@Z@4HA 000000018002c960 f   deps_resolver.obj
 0001:0002b960       ?dtor$5@?0??reconcile_libraries_with_targets@deps_json_t@@AEAAXAEBVvalue@json@web@@AEBV?$function@$$A6A_NAEBV?$basic_string@_WU?$char_traits@_W@std@@V?$allocator@_W@2@@std@@@Z@std@@AEBV?$function@$$A6AAEBV?$vector@V?$basic_string@_WU?$char_traits@_W@std@@V?$allocator@_W@2@@std@@V?$allocator@V?$basic_string@_WU?$char_traits@_W@std@@V?$allocator@_W@2@@std@@@2@@std@@AEBV?$basic_string@_WU?$char_traits@_W@std@@V?$allocator@_W@2@@2@HPEA_N@Z@6@@Z@4HA 000000018002c960 f   deps_format.obj
 0001:0002b970       ?dtor$8@?0??reconcile_libraries_with_targets@deps_json_t@@AEAAXAEBVvalue@json@web@@AEBV?$function@$$A6A_NAEBV?$basic_string@_WU?$char_traits@_W@std@@V?$allocator@_W@2@@std@@@Z@std@@AEBV?$function@$$A6AAEBV?$vector@V?$basic_string@_WU?$char_traits@_W@std@@V?$allocator@_W@2@@std@@V?$allocator@V?$basic_string@_WU?$char_traits@_W@std@@V?$allocator@_W@2@@std@@@2@@std@@AEBV?$basic_string@_WU?$char_traits@_W@std@@V?$allocator@_W@2@@2@HPEA_N@Z@6@@Z@4HA 000000018002c970 f   deps_format.obj
 0001:0002b980       ?dtor$15@?0??reconcile_libraries_with_targets@deps_json_t@@AEAAXAEBVvalue@json@web@@AEBV?$function@$$A6A_NAEBV?$basic_string@_WU?$char_traits@_W@std@@V?$allocator@_W@2@@std@@@Z@std@@AEBV?$function@$$A6AAEBV?$vector@V?$basic_string@_WU?$char_traits@_W@std@@V?$allocator@_W@2@@std@@V?$allocator@V?$basic_string@_WU?$char_traits@_W@std@@V?$allocator@_W@2@@std@@@2@@std@@AEBV?$basic_string@_WU?$char_traits@_W@std@@V?$allocator@_W@2@@2@HPEA_N@Z@6@@Z@4HA 000000018002c980 f   deps_format.obj
 0001:0002b9b0       ?dtor$0@?0??perform_rid_fallback@deps_json_t@@AEAA_NPEAUrid_specific_assets_t@1@AEBV?$unordered_map@V?$basic_string@_WU?$char_traits@_W@std@@V?$allocator@_W@2@@std@@V?$vector@V?$basic_string@_WU?$char_traits@_W@std@@V?$allocator@_W@2@@std@@V?$allocator@V?$basic_string@_WU?$char_traits@_W@std@@V?$allocator@_W@2@@std@@@2@@2@U?$hash@V?$basic_string@_WU?$char_traits@_W@std@@V?$allocator@_W@2@@std@@@2@U?$equal_to@V?$basic_string@_WU?$char_traits@_W@std@@V?$allocator@_W@2@@std@@@2@V?$allocator@U?$pair@$$CBV?$basic_string@_WU?$char_traits@_W@std@@V?$allocator@_W@2@@std@@V?$vector@V?$basic_string@_WU?$char_traits@_W@std@@V?$allocator@_W@2@@std@@V?$allocator@V?$basic_string@_WU?$char_traits@_W@std@@V?$allocator@_W@2@@std@@@2@@2@@std@@@2@@std@@@Z@4HA 000000018002c9b0 f   deps_format.obj
 0001:0002b9c0       ?dtor$1@?0??perform_rid_fallback@deps_json_t@@AEAA_NPEAUrid_specific_assets_t@1@AEBV?$unordered_map@V?$basic_string@_WU?$char_traits@_W@std@@V?$allocator@_W@2@@std@@V?$vector@V?$basic_string@_WU?$char_traits@_W@std@@V?$allocator@_W@2@@std@@V?$allocator@V?$basic_string@_WU?$char_traits@_W@std@@V?$allocator@_W@2@@std@@@2@@2@U?$hash@V?$basic_string@_WU?$char_traits@_W@std@@V?$allocator@_W@2@@std@@@2@U?$equal_to@V?$basic_string@_WU?$char_traits@_W@std@@V?$allocator@_W@2@@std@@@2@V?$allocator@U?$pair@$$CBV?$basic_string@_WU?$char_traits@_W@std@@V?$allocator@_W@2@@std@@V?$vector@V?$basic_string@_WU?$char_traits@_W@std@@V?$allocator@_W@2@@std@@V?$allocator@V?$basic_string@_WU?$char_traits@_W@std@@V?$allocator@_W@2@@std@@@2@@2@@std@@@2@@std@@@Z@4HA 000000018002c9c0 f   deps_format.obj
 0001:0002b9f0       ?dtor$3@?0??process_runtime_targets@deps_json_t@@AEAA_NAEBVvalue@json@web@@AEBV?$basic_string@_WU?$char_traits@_W@std@@V?$allocator@_W@2@@std@@AEBV?$unordered_map@V?$basic_string@_WU?$char_traits@_W@std@@V?$allocator@_W@2@@std@@V?$vector@V?$basic_string@_WU?$char_traits@_W@std@@V?$allocator@_W@2@@std@@V?$allocator@V?$basic_string@_WU?$char_traits@_W@std@@V?$allocator@_W@2@@std@@@2@@2@U?$hash@V?$basic_string@_WU?$char_traits@_W@std@@V?$allocator@_W@2@@std@@@2@U?$equal_to@V?$basic_string@_WU?$char_traits@_W@std@@V?$allocator@_W@2@@std@@@2@V?$allocator@U?$pair@$$CBV?$basic_string@_WU?$char_traits@_W@std@@V?$allocator@_W@2@@std@@V?$vector@V?$basic_string@_WU?$char_traits@_W@std@@V?$allocator@_W@2@@std@@V?$allocator@V?$basic_string@_WU?$char_traits@_W@std@@V?$allocator@_W@2@@std@@@2@@2@@std@@@2@@6@PEAUrid_specific_assets_t@1@@Z@4HA 000000018002c9f0 f   deps_format.obj
 0001:0002b9f0       ?dtor$0@?0??process_runtime_targets@deps_json_t@@AEAA_NAEBVvalue@json@web@@AEBV?$basic_string@_WU?$char_traits@_W@std@@V?$allocator@_W@2@@std@@AEBV?$unordered_map@V?$basic_string@_WU?$char_traits@_W@std@@V?$allocator@_W@2@@std@@V?$vector@V?$basic_string@_WU?$char_traits@_W@std@@V?$allocator@_W@2@@std@@V?$allocator@V?$basic_string@_WU?$char_traits@_W@std@@V?$allocator@_W@2@@std@@@2@@2@U?$hash@V?$basic_string@_WU?$char_traits@_W@std@@V?$allocator@_W@2@@std@@@2@U?$equal_to@V?$basic_string@_WU?$char_traits@_W@std@@V?$allocator@_W@2@@std@@@2@V?$allocator@U?$pair@$$CBV?$basic_string@_WU?$char_traits@_W@std@@V?$allocator@_W@2@@std@@V?$vector@V?$basic_string@_WU?$char_traits@_W@std@@V?$allocator@_W@2@@std@@V?$allocator@V?$basic_string@_WU?$char_traits@_W@std@@V?$allocator@_W@2@@std@@@2@@2@@std@@@2@@6@PEAUrid_specific_assets_t@1@@Z@4HA 000000018002c9f0 f   deps_format.obj
 0001:0002ba00       ?dtor$2@?0??process_runtime_targets@deps_json_t@@AEAA_NAEBVvalue@json@web@@AEBV?$basic_string@_WU?$char_traits@_W@std@@V?$allocator@_W@2@@std@@AEBV?$unordered_map@V?$basic_string@_WU?$char_traits@_W@std@@V?$allocator@_W@2@@std@@V?$vector@V?$basic_string@_WU?$char_traits@_W@std@@V?$allocator@_W@2@@std@@V?$allocator@V?$basic_string@_WU?$char_traits@_W@std@@V?$allocator@_W@2@@std@@@2@@2@U?$hash@V?$basic_string@_WU?$char_traits@_W@std@@V?$allocator@_W@2@@std@@@2@U?$equal_to@V?$basic_string@_WU?$char_traits@_W@std@@V?$allocator@_W@2@@std@@@2@V?$allocator@U?$pair@$$CBV?$basic_string@_WU?$char_traits@_W@std@@V?$allocator@_W@2@@std@@V?$vector@V?$basic_string@_WU?$char_traits@_W@std@@V?$allocator@_W@2@@std@@V?$allocator@V?$basic_string@_WU?$char_traits@_W@std@@V?$allocator@_W@2@@std@@@2@@2@@std@@@2@@6@PEAUrid_specific_assets_t@1@@Z@4HA 000000018002ca00 f   deps_format.obj
 0001:0002ba10       ?dtor$0@?0??load_portable@deps_json_t@@AEAA_NAEBVvalue@json@web@@AEBV?$basic_string@_WU?$char_traits@_W@std@@V?$allocator@_W@2@@std@@AEBV?$unordered_map@V?$basic_string@_WU?$char_traits@_W@std@@V?$allocator@_W@2@@std@@V?$vector@V?$basic_string@_WU?$char_traits@_W@std@@V?$allocator@_W@2@@std@@V?$allocator@V?$basic_string@_WU?$char_traits@_W@std@@V?$allocator@_W@2@@std@@@2@@2@U?$hash@V?$basic_string@_WU?$char_traits@_W@std@@V?$allocator@_W@2@@std@@@2@U?$equal_to@V?$basic_string@_WU?$char_traits@_W@std@@V?$allocator@_W@2@@std@@@2@V?$allocator@U?$pair@$$CBV?$basic_string@_WU?$char_traits@_W@std@@V?$allocator@_W@2@@std@@V?$vector@V?$basic_string@_WU?$char_traits@_W@std@@V?$allocator@_W@2@@std@@V?$allocator@V?$basic_string@_WU?$char_traits@_W@std@@V?$allocator@_W@2@@std@@@2@@2@@std@@@2@@6@@Z@4HA 000000018002ca10 f   deps_format.obj
 0001:0002ba20       ?dtor$1@?0??load_portable@deps_json_t@@AEAA_NAEBVvalue@json@web@@AEBV?$basic_string@_WU?$char_traits@_W@std@@V?$allocator@_W@2@@std@@AEBV?$unordered_map@V?$basic_string@_WU?$char_traits@_W@std@@V?$allocator@_W@2@@std@@V?$vector@V?$basic_string@_WU?$char_traits@_W@std@@V?$allocator@_W@2@@std@@V?$allocator@V?$basic_string@_WU?$char_traits@_W@std@@V?$allocator@_W@2@@std@@@2@@2@U?$hash@V?$basic_string@_WU?$char_traits@_W@std@@V?$allocator@_W@2@@std@@@2@U?$equal_to@V?$basic_string@_WU?$char_traits@_W@std@@V?$allocator@_W@2@@std@@@2@V?$allocator@U?$pair@$$CBV?$basic_string@_WU?$char_traits@_W@std@@V?$allocator@_W@2@@std@@V?$vector@V?$basic_string@_WU?$char_traits@_W@std@@V?$allocator@_W@2@@std@@V?$allocator@V?$basic_string@_WU?$char_traits@_W@std@@V?$allocator@_W@2@@std@@@2@@2@@std@@@2@@6@@Z@4HA 000000018002ca20 f   deps_format.obj
 0001:0002ba30       ?dtor$2@?0??load_portable@deps_json_t@@AEAA_NAEBVvalue@json@web@@AEBV?$basic_string@_WU?$char_traits@_W@std@@V?$allocator@_W@2@@std@@AEBV?$unordered_map@V?$basic_string@_WU?$char_traits@_W@std@@V?$allocator@_W@2@@std@@V?$vector@V?$basic_string@_WU?$char_traits@_W@std@@V?$allocator@_W@2@@std@@V?$allocator@V?$basic_string@_WU?$char_traits@_W@std@@V?$allocator@_W@2@@std@@@2@@2@U?$hash@V?$basic_string@_WU?$char_traits@_W@std@@V?$allocator@_W@2@@std@@@2@U?$equal_to@V?$basic_string@_WU?$char_traits@_W@std@@V?$allocator@_W@2@@std@@@2@V?$allocator@U?$pair@$$CBV?$basic_string@_WU?$char_traits@_W@std@@V?$allocator@_W@2@@std@@V?$vector@V?$basic_string@_WU?$char_traits@_W@std@@V?$allocator@_W@2@@std@@V?$allocator@V?$basic_string@_WU?$char_traits@_W@std@@V?$allocator@_W@2@@std@@@2@@2@@std@@@2@@6@@Z@4HA 000000018002ca30 f   deps_format.obj
 0001:0002ba40       ?dtor$0@?0??load_standalone@deps_json_t@@AEAA_NAEBVvalue@json@web@@AEBV?$basic_string@_WU?$char_traits@_W@std@@V?$allocator@_W@2@@std@@@Z@4HA 000000018002ca40 f   deps_format.obj
 0001:0002ba50       ?dtor$1@?0??load_standalone@deps_json_t@@AEAA_NAEBVvalue@json@web@@AEBV?$basic_string@_WU?$char_traits@_W@std@@V?$allocator@_W@2@@std@@@Z@4HA 000000018002ca50 f   deps_format.obj
 0001:0002ba60       ?dtor$4@?0??get_runtime_config_paths_from_app@@YAXAEBV?$basic_string@_WU?$char_traits@_W@std@@V?$allocator@_W@2@@std@@PEAV12@1@Z@4HA 000000018002ca60 f   libhost.obj
 0001:0002ba60       ?dtor$0@?0??probe_entry_in_configs@deps_resolver_t@@AEAA_NAEBUdeps_entry_t@@PEAV?$basic_string@_WU?$char_traits@_W@std@@V?$allocator@_W@2@@std@@@Z@4HA 000000018002ca60 f   deps_resolver.obj
 0001:0002ba60       ?dtor$0@?0??to_dir_path@deps_entry_t@@QEBA_NAEBV?$basic_string@_WU?$char_traits@_W@std@@V?$allocator@_W@2@@std@@PEAV23@@Z@4HA 000000018002ca60 f   deps_entry.obj
 0001:0002ba60       ?dtor$0@?0??has_package@deps_json_t@@QEBA_NAEBV?$basic_string@_WU?$char_traits@_W@std@@V?$allocator@_W@2@@std@@0@Z@4HA 000000018002ca60 f   deps_format.obj
 0001:0002ba60       ?dtor$0@?0??try_prerelease_roll_forward_in_dir@@YAXAEBV?$basic_string@_WU?$char_traits@_W@std@@V?$allocator@_W@2@@std@@AEBUfx_ver_t@@PEAV12@@Z@4HA 000000018002ca60 f   libhost.obj
 0001:0002ba60       ?dtor$0@?0??try_patch_roll_forward_in_dir@@YAXAEBV?$basic_string@_WU?$char_traits@_W@std@@V?$allocator@_W@2@@std@@AEBUfx_ver_t@@PEAV12@@Z@4HA 000000018002ca60 f   libhost.obj
 0001:0002ba60       ?dtor$2@?0??try_roll_forward@deps_resolver_t@@AEAA_NAEBUdeps_entry_t@@AEBV?$basic_string@_WU?$char_traits@_W@std@@V?$allocator@_W@2@@std@@_N2PEAV34@@Z@4HA 000000018002ca60 f   deps_resolver.obj
 0001:0002ba70       ?catch$30@?0??load@deps_json_t@@AEAA_N_NAEBV?$basic_string@_WU?$char_traits@_W@std@@V?$allocator@_W@2@@std@@AEBV?$unordered_map@V?$basic_string@_WU?$char_traits@_W@std@@V?$allocator@_W@2@@std@@V?$vector@V?$basic_string@_WU?$char_traits@_W@std@@V?$allocator@_W@2@@std@@V?$allocator@V?$basic_string@_WU?$char_traits@_W@std@@V?$allocator@_W@2@@std@@@2@@2@U?$hash@V?$basic_string@_WU?$char_traits@_W@std@@V?$allocator@_W@2@@std@@@2@U?$equal_to@V?$basic_string@_WU?$char_traits@_W@std@@V?$allocator@_W@2@@std@@@2@V?$allocator@U?$pair@$$CBV?$basic_string@_WU?$char_traits@_W@std@@V?$allocator@_W@2@@std@@V?$vector@V?$basic_string@_WU?$char_traits@_W@std@@V?$allocator@_W@2@@std@@V?$allocator@V?$basic_string@_WU?$char_traits@_W@std@@V?$allocator@_W@2@@std@@@2@@2@@std@@@2@@3@@Z@4HA 000000018002ca70 f   deps_format.obj
 0001:0002ba80       __catch$?load@deps_json_t@@AEAA_N_NAEBV?$basic_string@_WU?$char_traits@_W@std@@V?$allocator@_W@2@@std@@AEBV?$unordered_map@V?$basic_string@_WU?$char_traits@_W@std@@V?$allocator@_W@2@@std@@V?$vector@V?$basic_string@_WU?$char_traits@_W@std@@V?$allocator@_W@2@@std@@V?$allocator@V?$basic_string@_WU?$char_traits@_W@std@@V?$allocator@_W@2@@std@@@2@@2@U?$hash@V?$basic_string@_WU?$char_traits@_W@std@@V?$allocator@_W@2@@std@@@2@U?$equal_to@V?$basic_string@_WU?$char_traits@_W@std@@V?$allocator@_W@2@@std@@@2@V?$allocator@U?$pair@$$CBV?$basic_string@_WU?$char_traits@_W@std@@V?$allocator@_W@2@@std@@V?$vector@V?$basic_string@_WU?$char_traits@_W@std@@V?$allocator@_W@2@@std@@V?$allocator@V?$basic_string@_WU?$char_traits@_W@std@@V?$allocator@_W@2@@std@@@2@@2@@std@@@2@@3@@Z$0 000000018002ca80 f   deps_format.obj
 0001:0002bd00       ?dtor$1@?0??ensure_parsed@runtime_config_t@@AEAA_NXZ@4HA 000000018002cd00 f   runtime_config.obj
 0001:0002bd00       ?dtor$1@?0??ensure_dev_config_parsed@runtime_config_t@@AEAA_NXZ@4HA 000000018002cd00 f   runtime_config.obj
 0001:0002bd00       ?dtor$0@?0??load@deps_json_t@@AEAA_N_NAEBV?$basic_string@_WU?$char_traits@_W@std@@V?$allocator@_W@2@@std@@AEBV?$unordered_map@V?$basic_string@_WU?$char_traits@_W@std@@V?$allocator@_W@2@@std@@V?$vector@V?$basic_string@_WU?$char_traits@_W@std@@V?$allocator@_W@2@@std@@V?$allocator@V?$basic_string@_WU?$char_traits@_W@std@@V?$allocator@_W@2@@std@@@2@@2@U?$hash@V?$basic_string@_WU?$char_traits@_W@std@@V?$allocator@_W@2@@std@@@2@U?$equal_to@V?$basic_string@_WU?$char_traits@_W@std@@V?$allocator@_W@2@@std@@@2@V?$allocator@U?$pair@$$CBV?$basic_string@_WU?$char_traits@_W@std@@V?$allocator@_W@2@@std@@V?$vector@V?$basic_string@_WU?$char_traits@_W@std@@V?$allocator@_W@2@@std@@V?$allocator@V?$basic_string@_WU?$char_traits@_W@std@@V?$allocator@_W@2@@std@@@2@@2@@std@@@2@@3@@Z@4HA 000000018002cd00 f   deps_format.obj
 0001:0002bd10       ?dtor$3@?0??load@deps_json_t@@AEAA_N_NAEBV?$basic_string@_WU?$char_traits@_W@std@@V?$allocator@_W@2@@std@@AEBV?$unordered_map@V?$basic_string@_WU?$char_traits@_W@std@@V?$allocator@_W@2@@std@@V?$vector@V?$basic_string@_WU?$char_traits@_W@std@@V?$allocator@_W@2@@std@@V?$allocator@V?$basic_string@_WU?$char_traits@_W@std@@V?$allocator@_W@2@@std@@@2@@2@U?$hash@V?$basic_string@_WU?$char_traits@_W@std@@V?$allocator@_W@2@@std@@@2@U?$equal_to@V?$basic_string@_WU?$char_traits@_W@std@@V?$allocator@_W@2@@std@@@2@V?$allocator@U?$pair@$$CBV?$basic_string@_WU?$char_traits@_W@std@@V?$allocator@_W@2@@std@@V?$vector@V?$basic_string@_WU?$char_traits@_W@std@@V?$allocator@_W@2@@std@@V?$allocator@V?$basic_string@_WU?$char_traits@_W@std@@V?$allocator@_W@2@@std@@@2@@2@@std@@@2@@3@@Z@4HA 000000018002cd10 f   deps_format.obj
 0001:0002bd40       ?dtor$5@?0??ensure_parsed@runtime_config_t@@AEAA_NXZ@4HA 000000018002cd40 f   runtime_config.obj
 0001:0002bd40       ?dtor$5@?0??ensure_dev_config_parsed@runtime_config_t@@AEAA_NXZ@4HA 000000018002cd40 f   runtime_config.obj
 0001:0002bd40       ?dtor$5@?0??load@deps_json_t@@AEAA_N_NAEBV?$basic_string@_WU?$char_traits@_W@std@@V?$allocator@_W@2@@std@@AEBV?$unordered_map@V?$basic_string@_WU?$char_traits@_W@std@@V?$allocator@_W@2@@std@@V?$vector@V?$basic_string@_WU?$char_traits@_W@std@@V?$allocator@_W@2@@std@@V?$allocator@V?$basic_string@_WU?$char_traits@_W@std@@V?$allocator@_W@2@@std@@@2@@2@U?$hash@V?$basic_string@_WU?$char_traits@_W@std@@V?$allocator@_W@2@@std@@@2@U?$equal_to@V?$basic_string@_WU?$char_traits@_W@std@@V?$allocator@_W@2@@std@@@2@V?$allocator@U?$pair@$$CBV?$basic_string@_WU?$char_traits@_W@std@@V?$allocator@_W@2@@std@@V?$vector@V?$basic_string@_WU?$char_traits@_W@std@@V?$allocator@_W@2@@std@@V?$allocator@V?$basic_string@_WU?$char_traits@_W@std@@V?$allocator@_W@2@@std@@@2@@2@@std@@@2@@3@@Z@4HA 000000018002cd40 f   deps_format.obj
 0001:0002bd50       ?catch$0@?0???$_Emplace_reallocate@AEBUdeps_entry_t@@@?$vector@Udeps_entry_t@@V?$allocator@Udeps_entry_t@@@std@@@std@@QEAAPEAUdeps_entry_t@@QEAU2@AEBU2@@Z@4HA 000000018002cd50 f   deps_format.obj
 0001:0002bd5d       __catch$??$_Emplace_reallocate@AEBUdeps_entry_t@@@?$vector@Udeps_entry_t@@V?$allocator@Udeps_entry_t@@@std@@@std@@QEAAPEAUdeps_entry_t@@QEAU2@AEBU2@@Z$0 000000018002cd5d f   deps_format.obj
 0001:0002bd90       ?catch$0@?0???$_Insert@AEAU?$pair@$$CBV?$basic_string@_WU?$char_traits@_W@std@@V?$allocator@_W@2@@std@@H@std@@V?$_List_unchecked_iterator@V?$_List_val@U?$_List_simple_types@U?$pair@$$CBV?$basic_string@_WU?$char_traits@_W@std@@V?$allocator@_W@2@@std@@H@std@@@std@@@std@@@2@@?$_Hash@V?$_Umap_traits@V?$basic_string@_WU?$char_traits@_W@std@@V?$allocator@_W@2@@std@@HV?$_Uhash_compare@V?$basic_string@_WU?$char_traits@_W@std@@V?$allocator@_W@2@@std@@U?$hash@V?$basic_string@_WU?$char_traits@_W@std@@V?$allocator@_W@2@@std@@@2@U?$equal_to@V?$basic_string@_WU?$char_traits@_W@std@@V?$allocator@_W@2@@std@@@2@@2@V?$allocator@U?$pair@$$CBV?$basic_string@_WU?$char_traits@_W@std@@V?$allocator@_W@2@@std@@H@std@@@2@$0A@@std@@@std@@IEAA?AU?$pair@V?$_List_iterator@V?$_List_val@U?$_List_simple_types@U?$pair@$$CBV?$basic_string@_WU?$char_traits@_W@std@@V?$allocator@_W@2@@std@@H@std@@@std@@@std@@@std@@_N@1@AEAU?$pair@$$CBV?$basic_string@_WU?$char_traits@_W@std@@V?$allocator@_W@2@@std@@H@1@V?$_List_unchecked_iterator@V?$_List_val@U?$_List_simple_types@U?$pair@$$CBV?$basic_string@_WU?$char_traits@_W@std@@V?$allocator@_W@2@@std@@H@std@@@std@@@std@@@1@@Z@4HA 000000018002cd90 f   deps_format.obj
 0001:0002bd9d       __catch$??$_Insert@AEAU?$pair@$$CBV?$basic_string@_WU?$char_traits@_W@std@@V?$allocator@_W@2@@std@@H@std@@V?$_List_unchecked_iterator@V?$_List_val@U?$_List_simple_types@U?$pair@$$CBV?$basic_string@_WU?$char_traits@_W@std@@V?$allocator@_W@2@@std@@H@std@@@std@@@std@@@2@@?$_Hash@V?$_Umap_traits@V?$basic_string@_WU?$char_traits@_W@std@@V?$allocator@_W@2@@std@@HV?$_Uhash_compare@V?$basic_string@_WU?$char_traits@_W@std@@V?$allocator@_W@2@@std@@U?$hash@V?$basic_string@_WU?$char_traits@_W@std@@V?$allocator@_W@2@@std@@@2@U?$equal_to@V?$basic_string@_WU?$char_traits@_W@std@@V?$allocator@_W@2@@std@@@2@@2@V?$allocator@U?$pair@$$CBV?$basic_string@_WU?$char_traits@_W@std@@V?$allocator@_W@2@@std@@H@std@@@2@$0A@@std@@@std@@IEAA?AU?$pair@V?$_List_iterator@V?$_List_val@U?$_List_simple_types@U?$pair@$$CBV?$basic_string@_WU?$char_traits@_W@std@@V?$allocator@_W@2@@std@@H@std@@@std@@@std@@@std@@_N@1@AEAU?$pair@$$CBV?$basic_string@_WU?$char_traits@_W@std@@V?$allocator@_W@2@@std@@H@1@V?$_List_unchecked_iterator@V?$_List_val@U?$_List_simple_types@U?$pair@$$CBV?$basic_string@_WU?$char_traits@_W@std@@V?$allocator@_W@2@@std@@H@std@@@std@@@std@@@1@@Z$2 000000018002cd9d f   deps_format.obj
 0001:0002bdd0       ?catch$0@?0???$_Insert@AEAU?$pair@$$CBV?$basic_string@_WU?$char_traits@_W@std@@V?$allocator@_W@2@@std@@Urid_assets_t@deps_json_t@@@std@@V?$_List_unchecked_iterator@V?$_List_val@U?$_List_simple_types@U?$pair@$$CBV?$basic_string@_WU?$char_traits@_W@std@@V?$allocator@_W@2@@std@@Urid_assets_t@deps_json_t@@@std@@@std@@@std@@@2@@?$_Hash@V?$_Umap_traits@V?$basic_string@_WU?$char_traits@_W@std@@V?$allocator@_W@2@@std@@Urid_assets_t@deps_json_t@@V?$_Uhash_compare@V?$basic_string@_WU?$char_traits@_W@std@@V?$allocator@_W@2@@std@@U?$hash@V?$basic_string@_WU?$char_traits@_W@std@@V?$allocator@_W@2@@std@@@2@U?$equal_to@V?$basic_string@_WU?$char_traits@_W@std@@V?$allocator@_W@2@@std@@@2@@2@V?$allocator@U?$pair@$$CBV?$basic_string@_WU?$char_traits@_W@std@@V?$allocator@_W@2@@std@@Urid_assets_t@deps_json_t@@@std@@@2@$0A@@std@@@std@@IEAA?AU?$pair@V?$_List_iterator@V?$_List_val@U?$_List_simple_types@U?$pair@$$CBV?$basic_string@_WU?$char_traits@_W@std@@V?$allocator@_W@2@@std@@Urid_assets_t@deps_json_t@@@std@@@std@@@std@@@std@@_N@1@AEAU?$pair@$$CBV?$basic_string@_WU?$char_traits@_W@std@@V?$allocator@_W@2@@std@@Urid_assets_t@deps_json_t@@@1@V?$_List_unchecked_iterator@V?$_List_val@U?$_List_simple_types@U?$pair@$$CBV?$basic_string@_WU?$char_traits@_W@std@@V?$allocator@_W@2@@std@@Urid_assets_t@deps_json_t@@@std@@@std@@@std@@@1@@Z@4HA 000000018002cdd0 f   deps_format.obj
 0001:0002bddd       __catch$??$_Insert@AEAU?$pair@$$CBV?$basic_string@_WU?$char_traits@_W@std@@V?$allocator@_W@2@@std@@Urid_assets_t@deps_json_t@@@std@@V?$_List_unchecked_iterator@V?$_List_val@U?$_List_simple_types@U?$pair@$$CBV?$basic_string@_WU?$char_traits@_W@std@@V?$allocator@_W@2@@std@@Urid_assets_t@deps_json_t@@@std@@@std@@@std@@@2@@?$_Hash@V?$_Umap_traits@V?$basic_string@_WU?$char_traits@_W@std@@V?$allocator@_W@2@@std@@Urid_assets_t@deps_json_t@@V?$_Uhash_compare@V?$basic_string@_WU?$char_traits@_W@std@@V?$allocator@_W@2@@std@@U?$hash@V?$basic_string@_WU?$char_traits@_W@std@@V?$allocator@_W@2@@std@@@2@U?$equal_to@V?$basic_string@_WU?$char_traits@_W@std@@V?$allocator@_W@2@@std@@@2@@2@V?$allocator@U?$pair@$$CBV?$basic_string@_WU?$char_traits@_W@std@@V?$allocator@_W@2@@std@@Urid_assets_t@deps_json_t@@@std@@@2@$0A@@std@@@std@@IEAA?AU?$pair@V?$_List_iterator@V?$_List_val@U?$_List_simple_types@U?$pair@$$CBV?$basic_string@_WU?$char_traits@_W@std@@V?$allocator@_W@2@@std@@Urid_assets_t@deps_json_t@@@std@@@std@@@std@@@std@@_N@1@AEAU?$pair@$$CBV?$basic_string@_WU?$char_traits@_W@std@@V?$allocator@_W@2@@std@@Urid_assets_t@deps_json_t@@@1@V?$_List_unchecked_iterator@V?$_List_val@U?$_List_simple_types@U?$pair@$$CBV?$basic_string@_WU?$char_traits@_W@std@@V?$allocator@_W@2@@std@@Urid_assets_t@deps_json_t@@@std@@@std@@@std@@@1@@Z$2 000000018002cddd f   deps_format.obj
 0001:0002be10       ?catch$0@?0???$_Insert@AEAU?$pair@$$CBV?$basic_string@_WU?$char_traits@_W@std@@V?$allocator@_W@2@@std@@Uassets_t@deps_json_t@@@std@@V?$_List_unchecked_iterator@V?$_List_val@U?$_List_simple_types@U?$pair@$$CBV?$basic_string@_WU?$char_traits@_W@std@@V?$allocator@_W@2@@std@@Uassets_t@deps_json_t@@@std@@@std@@@std@@@2@@?$_Hash@V?$_Umap_traits@V?$basic_string@_WU?$char_traits@_W@std@@V?$allocator@_W@2@@std@@Uassets_t@deps_json_t@@V?$_Uhash_compare@V?$basic_string@_WU?$char_traits@_W@std@@V?$allocator@_W@2@@std@@U?$hash@V?$basic_string@_WU?$char_traits@_W@std@@V?$allocator@_W@2@@std@@@2@U?$equal_to@V?$basic_string@_WU?$char_traits@_W@std@@V?$allocator@_W@2@@std@@@2@@2@V?$allocator@U?$pair@$$CBV?$basic_string@_WU?$char_traits@_W@std@@V?$allocator@_W@2@@std@@Uassets_t@deps_json_t@@@std@@@2@$0A@@std@@@std@@IEAA?AU?$pair@V?$_List_iterator@V?$_List_val@U?$_List_simple_types@U?$pair@$$CBV?$basic_string@_WU?$char_traits@_W@std@@V?$allocator@_W@2@@std@@Uassets_t@deps_json_t@@@std@@@std@@@std@@@std@@_N@1@AEAU?$pair@$$CBV?$basic_string@_WU?$char_traits@_W@std@@V?$allocator@_W@2@@std@@Uassets_t@deps_json_t@@@1@V?$_List_unchecked_iterator@V?$_List_val@U?$_List_simple_types@U?$pair@$$CBV?$basic_string@_WU?$char_traits@_W@std@@V?$allocator@_W@2@@std@@Uassets_t@deps_json_t@@@std@@@std@@@std@@@1@@Z@4HA 000000018002ce10 f   deps_format.obj
 0001:0002be1d       __catch$??$_Insert@AEAU?$pair@$$CBV?$basic_string@_WU?$char_traits@_W@std@@V?$allocator@_W@2@@std@@Uassets_t@deps_json_t@@@std@@V?$_List_unchecked_iterator@V?$_List_val@U?$_List_simple_types@U?$pair@$$CBV?$basic_string@_WU?$char_traits@_W@std@@V?$allocator@_W@2@@std@@Uassets_t@deps_json_t@@@std@@@std@@@std@@@2@@?$_Hash@V?$_Umap_traits@V?$basic_string@_WU?$char_traits@_W@std@@V?$allocator@_W@2@@std@@Uassets_t@deps_json_t@@V?$_Uhash_compare@V?$basic_string@_WU?$char_traits@_W@std@@V?$allocator@_W@2@@std@@U?$hash@V?$basic_string@_WU?$char_traits@_W@std@@V?$allocator@_W@2@@std@@@2@U?$equal_to@V?$basic_string@_WU?$char_traits@_W@std@@V?$allocator@_W@2@@std@@@2@@2@V?$allocator@U?$pair@$$CBV?$basic_string@_WU?$char_traits@_W@std@@V?$allocator@_W@2@@std@@Uassets_t@deps_json_t@@@std@@@2@$0A@@std@@@std@@IEAA?AU?$pair@V?$_List_iterator@V?$_List_val@U?$_List_simple_types@U?$pair@$$CBV?$basic_string@_WU?$char_traits@_W@std@@V?$allocator@_W@2@@std@@Uassets_t@deps_json_t@@@std@@@std@@@std@@@std@@_N@1@AEAU?$pair@$$CBV?$basic_string@_WU?$char_traits@_W@std@@V?$allocator@_W@2@@std@@Uassets_t@deps_json_t@@@1@V?$_List_unchecked_iterator@V?$_List_val@U?$_List_simple_types@U?$pair@$$CBV?$basic_string@_WU?$char_traits@_W@std@@V?$allocator@_W@2@@std@@Uassets_t@deps_json_t@@@std@@@std@@@std@@@1@@Z$2 000000018002ce1d f   deps_format.obj
 0001:0002be50       ?catch$2@?0???$_Buynode@AEBUpiecewise_construct_t@std@@V?$tuple@AEBV?$basic_string@_WU?$char_traits@_W@std@@V?$allocator@_W@2@@std@@@2@V?$tuple@$$V@2@@?$_List_buy@U?$pair@$$CBV?$basic_string@_WU?$char_traits@_W@std@@V?$allocator@_W@2@@std@@H@std@@V?$allocator@U?$pair@$$CBV?$basic_string@_WU?$char_traits@_W@std@@V?$allocator@_W@2@@std@@H@std@@@2@@std@@QEAAPEAU?$_List_node@U?$pair@$$CBV?$basic_string@_WU?$char_traits@_W@std@@V?$allocator@_W@2@@std@@H@std@@PEAX@1@PEAU21@0AEBUpiecewise_construct_t@1@$$QEAV?$tuple@AEBV?$basic_string@_WU?$char_traits@_W@std@@V?$allocator@_W@2@@std@@@1@$$QEAV?$tuple@$$V@1@@Z@4HA 000000018002ce50 f   deps_format.obj
 0001:0002be5d       __catch$??$_Buynode@AEBUpiecewise_construct_t@std@@V?$tuple@AEBV?$basic_string@_WU?$char_traits@_W@std@@V?$allocator@_W@2@@std@@@2@V?$tuple@$$V@2@@?$_List_buy@U?$pair@$$CBV?$basic_string@_WU?$char_traits@_W@std@@V?$allocator@_W@2@@std@@H@std@@V?$allocator@U?$pair@$$CBV?$basic_string@_WU?$char_traits@_W@std@@V?$allocator@_W@2@@std@@H@std@@@2@@std@@QEAAPEAU?$_List_node@U?$pair@$$CBV?$basic_string@_WU?$char_traits@_W@std@@V?$allocator@_W@2@@std@@H@std@@PEAX@1@PEAU21@0AEBUpiecewise_construct_t@1@$$QEAV?$tuple@AEBV?$basic_string@_WU?$char_traits@_W@std@@V?$allocator@_W@2@@std@@@1@$$QEAV?$tuple@$$V@1@@Z$0 000000018002ce5d f   deps_format.obj
 0001:0002be70       ?catch$4@?0???$_Buynode@AEBUpiecewise_construct_t@std@@V?$tuple@AEBV?$basic_string@_WU?$char_traits@_W@std@@V?$allocator@_W@2@@std@@@2@V?$tuple@$$V@2@@?$_List_buy@U?$pair@$$CBV?$basic_string@_WU?$char_traits@_W@std@@V?$allocator@_W@2@@std@@Urid_assets_t@deps_json_t@@@std@@V?$allocator@U?$pair@$$CBV?$basic_string@_WU?$char_traits@_W@std@@V?$allocator@_W@2@@std@@Urid_assets_t@deps_json_t@@@std@@@2@@std@@QEAAPEAU?$_List_node@U?$pair@$$CBV?$basic_string@_WU?$char_traits@_W@std@@V?$allocator@_W@2@@std@@Urid_assets_t@deps_json_t@@@std@@PEAX@1@PEAU21@0AEBUpiecewise_construct_t@1@$$QEAV?$tuple@AEBV?$basic_string@_WU?$char_traits@_W@std@@V?$allocator@_W@2@@std@@@1@$$QEAV?$tuple@$$V@1@@Z@4HA 000000018002ce70 f   deps_format.obj
 0001:0002be7d       __catch$??$_Buynode@AEBUpiecewise_construct_t@std@@V?$tuple@AEBV?$basic_string@_WU?$char_traits@_W@std@@V?$allocator@_W@2@@std@@@2@V?$tuple@$$V@2@@?$_List_buy@U?$pair@$$CBV?$basic_string@_WU?$char_traits@_W@std@@V?$allocator@_W@2@@std@@Urid_assets_t@deps_json_t@@@std@@V?$allocator@U?$pair@$$CBV?$basic_string@_WU?$char_traits@_W@std@@V?$allocator@_W@2@@std@@Urid_assets_t@deps_json_t@@@std@@@2@@std@@QEAAPEAU?$_List_node@U?$pair@$$CBV?$basic_string@_WU?$char_traits@_W@std@@V?$allocator@_W@2@@std@@Urid_assets_t@deps_json_t@@@std@@PEAX@1@PEAU21@0AEBUpiecewise_construct_t@1@$$QEAV?$tuple@AEBV?$basic_string@_WU?$char_traits@_W@std@@V?$allocator@_W@2@@std@@@1@$$QEAV?$tuple@$$V@1@@Z$0 000000018002ce7d f   deps_format.obj
 0001:0002be90       ?catch$5@?0???$_Buynode@AEBUpiecewise_construct_t@std@@V?$tuple@AEBV?$basic_string@_WU?$char_traits@_W@std@@V?$allocator@_W@2@@std@@@2@V?$tuple@$$V@2@@?$_List_buy@U?$pair@$$CBV?$basic_string@_WU?$char_traits@_W@std@@V?$allocator@_W@2@@std@@Uassets_t@deps_json_t@@@std@@V?$allocator@U?$pair@$$CBV?$basic_string@_WU?$char_traits@_W@std@@V?$allocator@_W@2@@std@@Uassets_t@deps_json_t@@@std@@@2@@std@@QEAAPEAU?$_List_node@U?$pair@$$CBV?$basic_string@_WU?$char_traits@_W@std@@V?$allocator@_W@2@@std@@Uassets_t@deps_json_t@@@std@@PEAX@1@PEAU21@0AEBUpiecewise_construct_t@1@$$QEAV?$tuple@AEBV?$basic_string@_WU?$char_traits@_W@std@@V?$allocator@_W@2@@std@@@1@$$QEAV?$tuple@$$V@1@@Z@4HA 000000018002ce90 f   deps_format.obj
 0001:0002be9d       __catch$??$_Buynode@AEBUpiecewise_construct_t@std@@V?$tuple@AEBV?$basic_string@_WU?$char_traits@_W@std@@V?$allocator@_W@2@@std@@@2@V?$tuple@$$V@2@@?$_List_buy@U?$pair@$$CBV?$basic_string@_WU?$char_traits@_W@std@@V?$allocator@_W@2@@std@@Uassets_t@deps_json_t@@@std@@V?$allocator@U?$pair@$$CBV?$basic_string@_WU?$char_traits@_W@std@@V?$allocator@_W@2@@std@@Uassets_t@deps_json_t@@@std@@@2@@std@@QEAAPEAU?$_List_node@U?$pair@$$CBV?$basic_string@_WU?$char_traits@_W@std@@V?$allocator@_W@2@@std@@Uassets_t@deps_json_t@@@std@@PEAX@1@PEAU21@0AEBUpiecewise_construct_t@1@$$QEAV?$tuple@AEBV?$basic_string@_WU?$char_traits@_W@std@@V?$allocator@_W@2@@std@@@1@$$QEAV?$tuple@$$V@1@@Z$0 000000018002ce9d f   deps_format.obj
 0001:0002beb0       ?dtor$0@?0??init_known_entry_path@deps_resolver_t@@QEAAXAEBUdeps_entry_t@@AEBV?$basic_string@_WU?$char_traits@_W@std@@V?$allocator@_W@2@@std@@@Z@4HA 000000018002ceb0 f   deps_resolver.obj
 0001:0002beb0       ?dtor$1@?0??to_path@deps_entry_t@@QEBA_NAEBV?$basic_string@_WU?$char_traits@_W@std@@V?$allocator@_W@2@@std@@_NPEAV23@@Z@4HA 000000018002ceb0 f   deps_entry.obj
 0001:0002bee0       ?dtor$1@?0??get_runtime_config_paths_from_app@@YAXAEBV?$basic_string@_WU?$char_traits@_W@std@@V?$allocator@_W@2@@std@@PEAV12@1@Z@4HA 000000018002cee0 f   libhost.obj
 0001:0002bee0       ?dtor$2@?0??to_dir_path@deps_entry_t@@QEBA_NAEBV?$basic_string@_WU?$char_traits@_W@std@@V?$allocator@_W@2@@std@@PEAV23@@Z@4HA 000000018002cee0 f   deps_entry.obj
 0001:0002bee0       ?dtor$1@?0??try_roll_forward@deps_resolver_t@@AEAA_NAEBUdeps_entry_t@@AEBV?$basic_string@_WU?$char_traits@_W@std@@V?$allocator@_W@2@@std@@_N2PEAV34@@Z@4HA 000000018002cee0 f   deps_resolver.obj
 0001:0002bef0       ?dtor$3@?0??to_dir_path@deps_entry_t@@QEBA_NAEBV?$basic_string@_WU?$char_traits@_W@std@@V?$allocator@_W@2@@std@@PEAV23@@Z@4HA 000000018002cef0 f   deps_entry.obj
 0001:0002bef0       ?dtor$8@?0??parse_opts@runtime_config_t@@QEAA_NAEBVvalue@json@web@@@Z@4HA 000000018002cef0 f   runtime_config.obj
 0001:0002bef0       ?dtor$4@?0??try_roll_forward@deps_resolver_t@@AEAA_NAEBUdeps_entry_t@@AEBV?$basic_string@_WU?$char_traits@_W@std@@V?$allocator@_W@2@@std@@_N2PEAV34@@Z@4HA 000000018002cef0 f   deps_resolver.obj
 0001:0002bef0       ?dtor$7@?0??parse_opts@runtime_config_t@@QEAA_NAEBVvalue@json@web@@@Z@4HA 000000018002cef0 f   runtime_config.obj
 0001:0002bef0       ?dtor$6@?0??try_roll_forward@deps_resolver_t@@AEAA_NAEBUdeps_entry_t@@AEBV?$basic_string@_WU?$char_traits@_W@std@@V?$allocator@_W@2@@std@@_N2PEAV34@@Z@4HA 000000018002cef0 f   deps_resolver.obj
 0001:0002bef0       ?dtor$2@?0??get_runtime_config_paths_from_app@@YAXAEBV?$basic_string@_WU?$char_traits@_W@std@@V?$allocator@_W@2@@std@@PEAV12@1@Z@4HA 000000018002cef0 f   libhost.obj
 0001:0002bf00       ?dtor$0@?0??to_hash_matched_path@deps_entry_t@@QEBA_NAEBV?$basic_string@_WU?$char_traits@_W@std@@V?$allocator@_W@2@@std@@PEAV23@@Z@4HA 000000018002cf00 f   deps_entry.obj
 0001:0002bf00       ?dtor$6@?0??resolve_probe_dirs@deps_resolver_t@@AEAA_NW4asset_types@deps_entry_t@@PEAV?$basic_string@_WU?$char_traits@_W@std@@V?$allocator@_W@2@@std@@PEAV?$unordered_set@V?$basic_string@_WU?$char_traits@_W@std@@V?$allocator@_W@2@@std@@U?$hash@V?$basic_string@_WU?$char_traits@_W@std@@V?$allocator@_W@2@@std@@@2@U?$equal_to@V?$basic_string@_WU?$char_traits@_W@std@@V?$allocator@_W@2@@std@@@2@V?$allocator@V?$basic_string@_WU?$char_traits@_W@std@@V?$allocator@_W@2@@std@@@2@@5@@Z@4HA 000000018002cf00 f   deps_resolver.obj
 0001:0002bf10       ?dtor$4@?0??to_hash_matched_path@deps_entry_t@@QEBA_NAEBV?$basic_string@_WU?$char_traits@_W@std@@V?$allocator@_W@2@@std@@PEAV23@@Z@4HA 000000018002cf10 f   deps_entry.obj
 0001:0002bf20       ?dtor$6@?0??to_hash_matched_path@deps_entry_t@@QEBA_NAEBV?$basic_string@_WU?$char_traits@_W@std@@V?$allocator@_W@2@@std@@PEAV23@@Z@4HA 000000018002cf20 f   deps_entry.obj
 0001:0002bf30       ?dtor$27@?0??to_hash_matched_path@deps_entry_t@@QEBA_NAEBV?$basic_string@_WU?$char_traits@_W@std@@V?$allocator@_W@2@@std@@PEAV23@@Z@4HA 000000018002cf30 f   deps_entry.obj
 0001:0002bf40       ?catch$0@?0???$_Construct@V?$istreambuf_iterator@DU?$char_traits@D@std@@@std@@@?$basic_string@DU?$char_traits@D@std@@V?$allocator@D@2@@std@@QEAAXV?$istreambuf_iterator@DU?$char_traits@D@std@@@1@V21@Uinput_iterator_tag@1@@Z@4HA 000000018002cf40 f   deps_entry.obj
 0001:0002bf4d       __catch$??$_Construct@V?$istreambuf_iterator@DU?$char_traits@D@std@@@std@@@?$basic_string@DU?$char_traits@D@std@@V?$allocator@D@2@@std@@QEAAXV?$istreambuf_iterator@DU?$char_traits@D@std@@@1@V21@Uinput_iterator_tag@1@@Z$0 000000018002cf4d f   deps_entry.obj
 0001:0002bf60       ?dtor$4@?0??resolve_probe_dirs@deps_resolver_t@@AEAA_NW4asset_types@deps_entry_t@@PEAV?$basic_string@_WU?$char_traits@_W@std@@V?$allocator@_W@2@@std@@PEAV?$unordered_set@V?$basic_string@_WU?$char_traits@_W@std@@V?$allocator@_W@2@@std@@U?$hash@V?$basic_string@_WU?$char_traits@_W@std@@V?$allocator@_W@2@@std@@@2@U?$equal_to@V?$basic_string@_WU?$char_traits@_W@std@@V?$allocator@_W@2@@std@@@2@V?$allocator@V?$basic_string@_WU?$char_traits@_W@std@@V?$allocator@_W@2@@std@@@2@@5@@Z@4HA 000000018002cf60 f   deps_resolver.obj
 0001:0002bf60       ?dtor$0@?0??get_dir_assemblies@deps_resolver_t@@AEAAXAEBV?$basic_string@_WU?$char_traits@_W@std@@V?$allocator@_W@2@@std@@0PEAV?$unordered_map@V?$basic_string@_WU?$char_traits@_W@std@@V?$allocator@_W@2@@std@@V12@U?$hash@V?$basic_string@_WU?$char_traits@_W@std@@V?$allocator@_W@2@@std@@@2@U?$equal_to@V?$basic_string@_WU?$char_traits@_W@std@@V?$allocator@_W@2@@std@@@2@V?$allocator@U?$pair@$$CBV?$basic_string@_WU?$char_traits@_W@std@@V?$allocator@_W@2@@std@@V12@@std@@@2@@3@@Z@4HA 000000018002cf60 f   deps_resolver.obj
 0001:0002bf60       ?dtor$2@?0??resolve_tpa_list@deps_resolver_t@@AEAA_NPEAV?$basic_string@_WU?$char_traits@_W@std@@V?$allocator@_W@2@@std@@PEAV?$unordered_set@V?$basic_string@_WU?$char_traits@_W@std@@V?$allocator@_W@2@@std@@U?$hash@V?$basic_string@_WU?$char_traits@_W@std@@V?$allocator@_W@2@@std@@@2@U?$equal_to@V?$basic_string@_WU?$char_traits@_W@std@@V?$allocator@_W@2@@std@@@2@V?$allocator@V?$basic_string@_WU?$char_traits@_W@std@@V?$allocator@_W@2@@std@@@2@@3@@Z@4HA 000000018002cf60 f   deps_resolver.obj
 0001:0002bf70       ?dtor$1@?0??get_dir_assemblies@deps_resolver_t@@AEAAXAEBV?$basic_string@_WU?$char_traits@_W@std@@V?$allocator@_W@2@@std@@0PEAV?$unordered_map@V?$basic_string@_WU?$char_traits@_W@std@@V?$allocator@_W@2@@std@@V12@U?$hash@V?$basic_string@_WU?$char_traits@_W@std@@V?$allocator@_W@2@@std@@@2@U?$equal_to@V?$basic_string@_WU?$char_traits@_W@std@@V?$allocator@_W@2@@std@@@2@V?$allocator@U?$pair@$$CBV?$basic_string@_WU?$char_traits@_W@std@@V?$allocator@_W@2@@std@@V12@@std@@@2@@3@@Z@4HA 000000018002cf70 f   deps_resolver.obj
 0001:0002bf70       ?dtor$8@?0??resolve_probe_dirs@deps_resolver_t@@AEAA_NW4asset_types@deps_entry_t@@PEAV?$basic_string@_WU?$char_traits@_W@std@@V?$allocator@_W@2@@std@@PEAV?$unordered_set@V?$basic_string@_WU?$char_traits@_W@std@@V?$allocator@_W@2@@std@@U?$hash@V?$basic_string@_WU?$char_traits@_W@std@@V?$allocator@_W@2@@std@@@2@U?$equal_to@V?$basic_string@_WU?$char_traits@_W@std@@V?$allocator@_W@2@@std@@@2@V?$allocator@V?$basic_string@_WU?$char_traits@_W@std@@V?$allocator@_W@2@@std@@@2@@5@@Z@4HA 000000018002cf70 f   deps_resolver.obj
 0001:0002bf70       ?dtor$7@?0??resolve_probe_dirs@deps_resolver_t@@AEAA_NW4asset_types@deps_entry_t@@PEAV?$basic_string@_WU?$char_traits@_W@std@@V?$allocator@_W@2@@std@@PEAV?$unordered_set@V?$basic_string@_WU?$char_traits@_W@std@@V?$allocator@_W@2@@std@@U?$hash@V?$basic_string@_WU?$char_traits@_W@std@@V?$allocator@_W@2@@std@@@2@U?$equal_to@V?$basic_string@_WU?$char_traits@_W@std@@V?$allocator@_W@2@@std@@@2@V?$allocator@V?$basic_string@_WU?$char_traits@_W@std@@V?$allocator@_W@2@@std@@@2@@5@@Z@4HA 000000018002cf70 f   deps_resolver.obj
 0001:0002bf80       ?dtor$4@?0??get_dir_assemblies@deps_resolver_t@@AEAAXAEBV?$basic_string@_WU?$char_traits@_W@std@@V?$allocator@_W@2@@std@@0PEAV?$unordered_map@V?$basic_string@_WU?$char_traits@_W@std@@V?$allocator@_W@2@@std@@V12@U?$hash@V?$basic_string@_WU?$char_traits@_W@std@@V?$allocator@_W@2@@std@@@2@U?$equal_to@V?$basic_string@_WU?$char_traits@_W@std@@V?$allocator@_W@2@@std@@@2@V?$allocator@U?$pair@$$CBV?$basic_string@_WU?$char_traits@_W@std@@V?$allocator@_W@2@@std@@V12@@std@@@2@@3@@Z@4HA 000000018002cf80 f   deps_resolver.obj
 0001:0002bfb0       ?dtor$5@?0??get_dir_assemblies@deps_resolver_t@@AEAAXAEBV?$basic_string@_WU?$char_traits@_W@std@@V?$allocator@_W@2@@std@@0PEAV?$unordered_map@V?$basic_string@_WU?$char_traits@_W@std@@V?$allocator@_W@2@@std@@V12@U?$hash@V?$basic_string@_WU?$char_traits@_W@std@@V?$allocator@_W@2@@std@@@2@U?$equal_to@V?$basic_string@_WU?$char_traits@_W@std@@V?$allocator@_W@2@@std@@@2@V?$allocator@U?$pair@$$CBV?$basic_string@_WU?$char_traits@_W@std@@V?$allocator@_W@2@@std@@V12@@std@@@2@@3@@Z@4HA 000000018002cfb0 f   deps_resolver.obj
 0001:0002bfc0       ?dtor$0@?0??get_runtime_config_paths_from_app@@YAXAEBV?$basic_string@_WU?$char_traits@_W@std@@V?$allocator@_W@2@@std@@PEAV12@1@Z@4HA 000000018002cfc0 f   libhost.obj
 0001:0002bfc0       ?dtor$3@?0??try_roll_forward@deps_resolver_t@@AEAA_NAEBUdeps_entry_t@@AEBV?$basic_string@_WU?$char_traits@_W@std@@V?$allocator@_W@2@@std@@_N2PEAV34@@Z@4HA 000000018002cfc0 f   deps_resolver.obj
 0001:0002bfc0       ?dtor$5@?0??try_roll_forward@deps_resolver_t@@AEAA_NAEBUdeps_entry_t@@AEBV?$basic_string@_WU?$char_traits@_W@std@@V?$allocator@_W@2@@std@@_N2PEAV34@@Z@4HA 000000018002cfc0 f   deps_resolver.obj
 0001:0002bfc0       ?dtor$7@?0??get_dir_assemblies@deps_resolver_t@@AEAAXAEBV?$basic_string@_WU?$char_traits@_W@std@@V?$allocator@_W@2@@std@@0PEAV?$unordered_map@V?$basic_string@_WU?$char_traits@_W@std@@V?$allocator@_W@2@@std@@V12@U?$hash@V?$basic_string@_WU?$char_traits@_W@std@@V?$allocator@_W@2@@std@@@2@U?$equal_to@V?$basic_string@_WU?$char_traits@_W@std@@V?$allocator@_W@2@@std@@@2@V?$allocator@U?$pair@$$CBV?$basic_string@_WU?$char_traits@_W@std@@V?$allocator@_W@2@@std@@V12@@std@@@2@@3@@Z@4HA 000000018002cfc0 f   deps_resolver.obj
 0001:0002bfd0       ?dtor$28@?0??get_dir_assemblies@deps_resolver_t@@AEAAXAEBV?$basic_string@_WU?$char_traits@_W@std@@V?$allocator@_W@2@@std@@0PEAV?$unordered_map@V?$basic_string@_WU?$char_traits@_W@std@@V?$allocator@_W@2@@std@@V12@U?$hash@V?$basic_string@_WU?$char_traits@_W@std@@V?$allocator@_W@2@@std@@@2@U?$equal_to@V?$basic_string@_WU?$char_traits@_W@std@@V?$allocator@_W@2@@std@@@2@V?$allocator@U?$pair@$$CBV?$basic_string@_WU?$char_traits@_W@std@@V?$allocator@_W@2@@std@@V12@@std@@@2@@3@@Z@4HA 000000018002cfd0 f   deps_resolver.obj
 0001:0002c000       ?dtor$0@?0??try_roll_forward@deps_resolver_t@@AEAA_NAEBUdeps_entry_t@@AEBV?$basic_string@_WU?$char_traits@_W@std@@V?$allocator@_W@2@@std@@_N2PEAV34@@Z@4HA 000000018002d000 f   deps_resolver.obj
 0001:0002c010       ?dtor$0@?0??resolve_tpa_list@deps_resolver_t@@AEAA_NPEAV?$basic_string@_WU?$char_traits@_W@std@@V?$allocator@_W@2@@std@@PEAV?$unordered_set@V?$basic_string@_WU?$char_traits@_W@std@@V?$allocator@_W@2@@std@@U?$hash@V?$basic_string@_WU?$char_traits@_W@std@@V?$allocator@_W@2@@std@@@2@U?$equal_to@V?$basic_string@_WU?$char_traits@_W@std@@V?$allocator@_W@2@@std@@@2@V?$allocator@V?$basic_string@_WU?$char_traits@_W@std@@V?$allocator@_W@2@@std@@@2@@3@@Z@4HA 000000018002d010 f   deps_resolver.obj
 0001:0002c020       ?dtor$1@?0??resolve_tpa_list@deps_resolver_t@@AEAA_NPEAV?$basic_string@_WU?$char_traits@_W@std@@V?$allocator@_W@2@@std@@PEAV?$unordered_set@V?$basic_string@_WU?$char_traits@_W@std@@V?$allocator@_W@2@@std@@U?$hash@V?$basic_string@_WU?$char_traits@_W@std@@V?$allocator@_W@2@@std@@@2@U?$equal_to@V?$basic_string@_WU?$char_traits@_W@std@@V?$allocator@_W@2@@std@@@2@V?$allocator@V?$basic_string@_WU?$char_traits@_W@std@@V?$allocator@_W@2@@std@@@2@@3@@Z@4HA 000000018002d020 f   deps_resolver.obj
 0001:0002c030       ?dtor$3@?0??resolve_tpa_list@deps_resolver_t@@AEAA_NPEAV?$basic_string@_WU?$char_traits@_W@std@@V?$allocator@_W@2@@std@@PEAV?$unordered_set@V?$basic_string@_WU?$char_traits@_W@std@@V?$allocator@_W@2@@std@@U?$hash@V?$basic_string@_WU?$char_traits@_W@std@@V?$allocator@_W@2@@std@@@2@U?$equal_to@V?$basic_string@_WU?$char_traits@_W@std@@V?$allocator@_W@2@@std@@@2@V?$allocator@V?$basic_string@_WU?$char_traits@_W@std@@V?$allocator@_W@2@@std@@@2@@3@@Z@4HA 000000018002d030 f   deps_resolver.obj
 0001:0002c040       ?dtor$6@?0??resolve_tpa_list@deps_resolver_t@@AEAA_NPEAV?$basic_string@_WU?$char_traits@_W@std@@V?$allocator@_W@2@@std@@PEAV?$unordered_set@V?$basic_string@_WU?$char_traits@_W@std@@V?$allocator@_W@2@@std@@U?$hash@V?$basic_string@_WU?$char_traits@_W@std@@V?$allocator@_W@2@@std@@@2@U?$equal_to@V?$basic_string@_WU?$char_traits@_W@std@@V?$allocator@_W@2@@std@@@2@V?$allocator@V?$basic_string@_WU?$char_traits@_W@std@@V?$allocator@_W@2@@std@@@2@@3@@Z@4HA 000000018002d040 f   deps_resolver.obj
 0001:0002c050       ?dtor$7@?0??resolve_tpa_list@deps_resolver_t@@AEAA_NPEAV?$basic_string@_WU?$char_traits@_W@std@@V?$allocator@_W@2@@std@@PEAV?$unordered_set@V?$basic_string@_WU?$char_traits@_W@std@@V?$allocator@_W@2@@std@@U?$hash@V?$basic_string@_WU?$char_traits@_W@std@@V?$allocator@_W@2@@std@@@2@U?$equal_to@V?$basic_string@_WU?$char_traits@_W@std@@V?$allocator@_W@2@@std@@@2@V?$allocator@V?$basic_string@_WU?$char_traits@_W@std@@V?$allocator@_W@2@@std@@@2@@3@@Z@4HA 000000018002d050 f   deps_resolver.obj
 0001:0002c060       ?dtor$17@?0??resolve_tpa_list@deps_resolver_t@@AEAA_NPEAV?$basic_string@_WU?$char_traits@_W@std@@V?$allocator@_W@2@@std@@PEAV?$unordered_set@V?$basic_string@_WU?$char_traits@_W@std@@V?$allocator@_W@2@@std@@U?$hash@V?$basic_string@_WU?$char_traits@_W@std@@V?$allocator@_W@2@@std@@@2@U?$equal_to@V?$basic_string@_WU?$char_traits@_W@std@@V?$allocator@_W@2@@std@@@2@V?$allocator@V?$basic_string@_WU?$char_traits@_W@std@@V?$allocator@_W@2@@std@@@2@@3@@Z@4HA 000000018002d060 f   deps_resolver.obj
 0001:0002c070       ?dtor$18@?0??resolve_tpa_list@deps_resolver_t@@AEAA_NPEAV?$basic_string@_WU?$char_traits@_W@std@@V?$allocator@_W@2@@std@@PEAV?$unordered_set@V?$basic_string@_WU?$char_traits@_W@std@@V?$allocator@_W@2@@std@@U?$hash@V?$basic_string@_WU?$char_traits@_W@std@@V?$allocator@_W@2@@std@@@2@U?$equal_to@V?$basic_string@_WU?$char_traits@_W@std@@V?$allocator@_W@2@@std@@@2@V?$allocator@V?$basic_string@_WU?$char_traits@_W@std@@V?$allocator@_W@2@@std@@@2@@3@@Z@4HA 000000018002d070 f   deps_resolver.obj
 0001:0002c080       ?dtor$1@?0???R<lambda_630da18592faaf2e7b6750ea6c199822>@@QEBA_NAEBV?$basic_string@_WU?$char_traits@_W@std@@V?$allocator@_W@2@@std@@PEAVdeps_json_t@@AEBUdeps_entry_t@@@Z@4HA 000000018002d080 f   deps_resolver.obj
 0001:0002c090       ?dtor$6@?0???R<lambda_ce37e563d1dc9192d1c4d54befabd244>@@QEBA_NAEBUdeps_entry_t@@AEBV?$basic_string@_WU?$char_traits@_W@std@@V?$allocator@_W@2@@std@@@Z@4HA 000000018002d090 f   deps_resolver.obj
 0001:0002c090       ?dtor$1@?0???R<lambda_ce37e563d1dc9192d1c4d54befabd244>@@QEBA_NAEBUdeps_entry_t@@AEBV?$basic_string@_WU?$char_traits@_W@std@@V?$allocator@_W@2@@std@@@Z@4HA 000000018002d090 f   deps_resolver.obj
 0001:0002c090       ?dtor$3@?0???R<lambda_ce37e563d1dc9192d1c4d54befabd244>@@QEBA_NAEBUdeps_entry_t@@AEBV?$basic_string@_WU?$char_traits@_W@std@@V?$allocator@_W@2@@std@@@Z@4HA 000000018002d090 f   deps_resolver.obj
 0001:0002c090       ?dtor$3@?0???R<lambda_630da18592faaf2e7b6750ea6c199822>@@QEBA_NAEBV?$basic_string@_WU?$char_traits@_W@std@@V?$allocator@_W@2@@std@@PEAVdeps_json_t@@AEBUdeps_entry_t@@@Z@4HA 000000018002d090 f   deps_resolver.obj
 0001:0002c0a0       ?dtor$4@?0???R<lambda_ce37e563d1dc9192d1c4d54befabd244>@@QEBA_NAEBUdeps_entry_t@@AEBV?$basic_string@_WU?$char_traits@_W@std@@V?$allocator@_W@2@@std@@@Z@4HA 000000018002d0a0 f   deps_resolver.obj
 0001:0002c0a0       ?dtor$4@?0???R<lambda_630da18592faaf2e7b6750ea6c199822>@@QEBA_NAEBV?$basic_string@_WU?$char_traits@_W@std@@V?$allocator@_W@2@@std@@PEAVdeps_json_t@@AEBUdeps_entry_t@@@Z@4HA 000000018002d0a0 f   deps_resolver.obj
 0001:0002c0d0       ?dtor$1@?0??init_known_entry_path@deps_resolver_t@@QEAAXAEBUdeps_entry_t@@AEBV?$basic_string@_WU?$char_traits@_W@std@@V?$allocator@_W@2@@std@@@Z@4HA 000000018002d0d0 f   deps_resolver.obj
 0001:0002c100       ?dtor$2@?0??init_known_entry_path@deps_resolver_t@@QEAAXAEBUdeps_entry_t@@AEBV?$basic_string@_WU?$char_traits@_W@std@@V?$allocator@_W@2@@std@@@Z@4HA 000000018002d100 f   deps_resolver.obj
 0001:0002c130       ?dtor$3@?0??init_known_entry_path@deps_resolver_t@@QEAAXAEBUdeps_entry_t@@AEBV?$basic_string@_WU?$char_traits@_W@std@@V?$allocator@_W@2@@std@@@Z@4HA 000000018002d130 f   deps_resolver.obj
 0001:0002c160       ?dtor$0@?0??resolve_probe_dirs@deps_resolver_t@@AEAA_NW4asset_types@deps_entry_t@@PEAV?$basic_string@_WU?$char_traits@_W@std@@V?$allocator@_W@2@@std@@PEAV?$unordered_set@V?$basic_string@_WU?$char_traits@_W@std@@V?$allocator@_W@2@@std@@U?$hash@V?$basic_string@_WU?$char_traits@_W@std@@V?$allocator@_W@2@@std@@@2@U?$equal_to@V?$basic_string@_WU?$char_traits@_W@std@@V?$allocator@_W@2@@std@@@2@V?$allocator@V?$basic_string@_WU?$char_traits@_W@std@@V?$allocator@_W@2@@std@@@2@@5@@Z@4HA 000000018002d160 f   deps_resolver.obj
 0001:0002c170       ?dtor$1@?0??resolve_probe_dirs@deps_resolver_t@@AEAA_NW4asset_types@deps_entry_t@@PEAV?$basic_string@_WU?$char_traits@_W@std@@V?$allocator@_W@2@@std@@PEAV?$unordered_set@V?$basic_string@_WU?$char_traits@_W@std@@V?$allocator@_W@2@@std@@U?$hash@V?$basic_string@_WU?$char_traits@_W@std@@V?$allocator@_W@2@@std@@@2@U?$equal_to@V?$basic_string@_WU?$char_traits@_W@std@@V?$allocator@_W@2@@std@@@2@V?$allocator@V?$basic_string@_WU?$char_traits@_W@std@@V?$allocator@_W@2@@std@@@2@@5@@Z@4HA 000000018002d170 f   deps_resolver.obj
 0001:0002c180       ?dtor$2@?0??resolve_probe_dirs@deps_resolver_t@@AEAA_NW4asset_types@deps_entry_t@@PEAV?$basic_string@_WU?$char_traits@_W@std@@V?$allocator@_W@2@@std@@PEAV?$unordered_set@V?$basic_string@_WU?$char_traits@_W@std@@V?$allocator@_W@2@@std@@U?$hash@V?$basic_string@_WU?$char_traits@_W@std@@V?$allocator@_W@2@@std@@@2@U?$equal_to@V?$basic_string@_WU?$char_traits@_W@std@@V?$allocator@_W@2@@std@@@2@V?$allocator@V?$basic_string@_WU?$char_traits@_W@std@@V?$allocator@_W@2@@std@@@2@@5@@Z@4HA 000000018002d180 f   deps_resolver.obj
 0001:0002c190       ?dtor$5@?0??resolve_probe_dirs@deps_resolver_t@@AEAA_NW4asset_types@deps_entry_t@@PEAV?$basic_string@_WU?$char_traits@_W@std@@V?$allocator@_W@2@@std@@PEAV?$unordered_set@V?$basic_string@_WU?$char_traits@_W@std@@V?$allocator@_W@2@@std@@U?$hash@V?$basic_string@_WU?$char_traits@_W@std@@V?$allocator@_W@2@@std@@@2@U?$equal_to@V?$basic_string@_WU?$char_traits@_W@std@@V?$allocator@_W@2@@std@@@2@V?$allocator@V?$basic_string@_WU?$char_traits@_W@std@@V?$allocator@_W@2@@std@@@2@@5@@Z@4HA 000000018002d190 f   deps_resolver.obj
 0001:0002c1a0       ?dtor$10@?0??resolve_probe_dirs@deps_resolver_t@@AEAA_NW4asset_types@deps_entry_t@@PEAV?$basic_string@_WU?$char_traits@_W@std@@V?$allocator@_W@2@@std@@PEAV?$unordered_set@V?$basic_string@_WU?$char_traits@_W@std@@V?$allocator@_W@2@@std@@U?$hash@V?$basic_string@_WU?$char_traits@_W@std@@V?$allocator@_W@2@@std@@@2@U?$equal_to@V?$basic_string@_WU?$char_traits@_W@std@@V?$allocator@_W@2@@std@@@2@V?$allocator@V?$basic_string@_WU?$char_traits@_W@std@@V?$allocator@_W@2@@std@@@2@@5@@Z@4HA 000000018002d1a0 f   deps_resolver.obj
 0001:0002c1b0       ?dtor$11@?0??resolve_probe_dirs@deps_resolver_t@@AEAA_NW4asset_types@deps_entry_t@@PEAV?$basic_string@_WU?$char_traits@_W@std@@V?$allocator@_W@2@@std@@PEAV?$unordered_set@V?$basic_string@_WU?$char_traits@_W@std@@V?$allocator@_W@2@@std@@U?$hash@V?$basic_string@_WU?$char_traits@_W@std@@V?$allocator@_W@2@@std@@@2@U?$equal_to@V?$basic_string@_WU?$char_traits@_W@std@@V?$allocator@_W@2@@std@@@2@V?$allocator@V?$basic_string@_WU?$char_traits@_W@std@@V?$allocator@_W@2@@std@@@2@@5@@Z@4HA 000000018002d1b0 f   deps_resolver.obj
 0001:0002c1c0       ?dtor$5@?0???R<lambda_ce37e563d1dc9192d1c4d54befabd244>@@QEBA_NAEBUdeps_entry_t@@AEBV?$basic_string@_WU?$char_traits@_W@std@@V?$allocator@_W@2@@std@@@Z@4HA 000000018002d1c0 f   deps_resolver.obj
 0001:0002c1f0       ?dtor$7@?0???R<lambda_ce37e563d1dc9192d1c4d54befabd244>@@QEBA_NAEBUdeps_entry_t@@AEBV?$basic_string@_WU?$char_traits@_W@std@@V?$allocator@_W@2@@std@@@Z@4HA 000000018002d1f0 f   deps_resolver.obj
 0001:0002c220       ?catch$0@?0???$_Insert@V?$basic_string@_WU?$char_traits@_W@std@@V?$allocator@_W@2@@std@@U_Not_a_node_tag@2@@?$_Hash@V?$_Uset_traits@V?$basic_string@_WU?$char_traits@_W@std@@V?$allocator@_W@2@@std@@V?$_Uhash_compare@V?$basic_string@_WU?$char_traits@_W@std@@V?$allocator@_W@2@@std@@U?$hash@V?$basic_string@_WU?$char_traits@_W@std@@V?$allocator@_W@2@@std@@@2@U?$equal_to@V?$basic_string@_WU?$char_traits@_W@std@@V?$allocator@_W@2@@std@@@2@@2@V?$allocator@V?$basic_string@_WU?$char_traits@_W@std@@V?$allocator@_W@2@@std@@@2@$0A@@std@@@std@@IEAA?AU?$pair@V?$_List_const_iterator@V?$_List_val@U?$_List_simple_types@V?$basic_string@_WU?$char_traits@_W@std@@V?$allocator@_W@2@@std@@@std@@@std@@@std@@_N@1@$$QEAV?$basic_string@_WU?$char_traits@_W@std@@V?$allocator@_W@2@@1@U_Not_a_node_tag@1@@Z@4HA 000000018002d220 f   deps_resolver.obj
 0001:0002c22d       __catch$??$_Insert@V?$basic_string@_WU?$char_traits@_W@std@@V?$allocator@_W@2@@std@@U_Not_a_node_tag@2@@?$_Hash@V?$_Uset_traits@V?$basic_string@_WU?$char_traits@_W@std@@V?$allocator@_W@2@@std@@V?$_Uhash_compare@V?$basic_string@_WU?$char_traits@_W@std@@V?$allocator@_W@2@@std@@U?$hash@V?$basic_string@_WU?$char_traits@_W@std@@V?$allocator@_W@2@@std@@@2@U?$equal_to@V?$basic_string@_WU?$char_traits@_W@std@@V?$allocator@_W@2@@std@@@2@@2@V?$allocator@V?$basic_string@_WU?$char_traits@_W@std@@V?$allocator@_W@2@@std@@@2@$0A@@std@@@std@@IEAA?AU?$pair@V?$_List_const_iterator@V?$_List_val@U?$_List_simple_types@V?$basic_string@_WU?$char_traits@_W@std@@V?$allocator@_W@2@@std@@@std@@@std@@@std@@_N@1@$$QEAV?$basic_string@_WU?$char_traits@_W@std@@V?$allocator@_W@2@@1@U_Not_a_node_tag@1@@Z$2 000000018002d22d f   deps_resolver.obj
 0001:0002c260       ?catch$0@?0???$_Insert@AEBV?$basic_string@_WU?$char_traits@_W@std@@V?$allocator@_W@2@@std@@U_Not_a_node_tag@2@@?$_Hash@V?$_Uset_traits@V?$basic_string@_WU?$char_traits@_W@std@@V?$allocator@_W@2@@std@@V?$_Uhash_compare@V?$basic_string@_WU?$char_traits@_W@std@@V?$allocator@_W@2@@std@@U?$hash@V?$basic_string@_WU?$char_traits@_W@std@@V?$allocator@_W@2@@std@@@2@U?$equal_to@V?$basic_string@_WU?$char_traits@_W@std@@V?$allocator@_W@2@@std@@@2@@2@V?$allocator@V?$basic_string@_WU?$char_traits@_W@std@@V?$allocator@_W@2@@std@@@2@$0A@@std@@@std@@IEAA?AU?$pair@V?$_List_const_iterator@V?$_List_val@U?$_List_simple_types@V?$basic_string@_WU?$char_traits@_W@std@@V?$allocator@_W@2@@std@@@std@@@std@@@std@@_N@1@AEBV?$basic_string@_WU?$char_traits@_W@std@@V?$allocator@_W@2@@1@U_Not_a_node_tag@1@@Z@4HA 000000018002d260 f   deps_resolver.obj
 0001:0002c26d       __catch$??$_Insert@AEBV?$basic_string@_WU?$char_traits@_W@std@@V?$allocator@_W@2@@std@@U_Not_a_node_tag@2@@?$_Hash@V?$_Uset_traits@V?$basic_string@_WU?$char_traits@_W@std@@V?$allocator@_W@2@@std@@V?$_Uhash_compare@V?$basic_string@_WU?$char_traits@_W@std@@V?$allocator@_W@2@@std@@U?$hash@V?$basic_string@_WU?$char_traits@_W@std@@V?$allocator@_W@2@@std@@@2@U?$equal_to@V?$basic_string@_WU?$char_traits@_W@std@@V?$allocator@_W@2@@std@@@2@@2@V?$allocator@V?$basic_string@_WU?$char_traits@_W@std@@V?$allocator@_W@2@@std@@@2@$0A@@std@@@std@@IEAA?AU?$pair@V?$_List_const_iterator@V?$_List_val@U?$_List_simple_types@V?$basic_string@_WU?$char_traits@_W@std@@V?$allocator@_W@2@@std@@@std@@@std@@@std@@_N@1@AEBV?$basic_string@_WU?$char_traits@_W@std@@V?$allocator@_W@2@@1@U_Not_a_node_tag@1@@Z$2 000000018002d26d f   deps_resolver.obj
 0001:0002c2a0       ?catch$0@?0???$_Insert@AEAU?$pair@$$CBV?$basic_string@_WU?$char_traits@_W@std@@V?$allocator@_W@2@@std@@V12@@std@@V?$_List_unchecked_iterator@V?$_List_val@U?$_List_simple_types@U?$pair@$$CBV?$basic_string@_WU?$char_traits@_W@std@@V?$allocator@_W@2@@std@@V12@@std@@@std@@@std@@@2@@?$_Hash@V?$_Umap_traits@V?$basic_string@_WU?$char_traits@_W@std@@V?$allocator@_W@2@@std@@V12@V?$_Uhash_compare@V?$basic_string@_WU?$char_traits@_W@std@@V?$allocator@_W@2@@std@@U?$hash@V?$basic_string@_WU?$char_traits@_W@std@@V?$allocator@_W@2@@std@@@2@U?$equal_to@V?$basic_string@_WU?$char_traits@_W@std@@V?$allocator@_W@2@@std@@@2@@2@V?$allocator@U?$pair@$$CBV?$basic_string@_WU?$char_traits@_W@std@@V?$allocator@_W@2@@std@@V12@@std@@@2@$0A@@std@@@std@@IEAA?AU?$pair@V?$_List_iterator@V?$_List_val@U?$_List_simple_types@U?$pair@$$CBV?$basic_string@_WU?$char_traits@_W@std@@V?$allocator@_W@2@@std@@V12@@std@@@std@@@std@@@std@@_N@1@AEAU?$pair@$$CBV?$basic_string@_WU?$char_traits@_W@std@@V?$allocator@_W@2@@std@@V12@@1@V?$_List_unchecked_iterator@V?$_List_val@U?$_List_simple_types@U?$pair@$$CBV?$basic_string@_WU?$char_traits@_W@std@@V?$allocator@_W@2@@std@@V12@@std@@@std@@@std@@@1@@Z@4HA 000000018002d2a0 f   deps_resolver.obj
 0001:0002c2ad       __catch$??$_Insert@AEAU?$pair@$$CBV?$basic_string@_WU?$char_traits@_W@std@@V?$allocator@_W@2@@std@@V12@@std@@V?$_List_unchecked_iterator@V?$_List_val@U?$_List_simple_types@U?$pair@$$CBV?$basic_string@_WU?$char_traits@_W@std@@V?$allocator@_W@2@@std@@V12@@std@@@std@@@std@@@2@@?$_Hash@V?$_Umap_traits@V?$basic_string@_WU?$char_traits@_W@std@@V?$allocator@_W@2@@std@@V12@V?$_Uhash_compare@V?$basic_string@_WU?$char_traits@_W@std@@V?$allocator@_W@2@@std@@U?$hash@V?$basic_string@_WU?$char_traits@_W@std@@V?$allocator@_W@2@@std@@@2@U?$equal_to@V?$basic_string@_WU?$char_traits@_W@std@@V?$allocator@_W@2@@std@@@2@@2@V?$allocator@U?$pair@$$CBV?$basic_string@_WU?$char_traits@_W@std@@V?$allocator@_W@2@@std@@V12@@std@@@2@$0A@@std@@@std@@IEAA?AU?$pair@V?$_List_iterator@V?$_List_val@U?$_List_simple_types@U?$pair@$$CBV?$basic_string@_WU?$char_traits@_W@std@@V?$allocator@_W@2@@std@@V12@@std@@@std@@@std@@@std@@_N@1@AEAU?$pair@$$CBV?$basic_string@_WU?$char_traits@_W@std@@V?$allocator@_W@2@@std@@V12@@1@V?$_List_unchecked_iterator@V?$_List_val@U?$_List_simple_types@U?$pair@$$CBV?$basic_string@_WU?$char_traits@_W@std@@V?$allocator@_W@2@@std@@V12@@std@@@std@@@std@@@1@@Z$2 000000018002d2ad f   deps_resolver.obj
 0001:0002c2e0       ?catch$2@?0???$_Buynode@AEAV?$basic_string@_WU?$char_traits@_W@std@@V?$allocator@_W@2@@std@@AEAV12@@?$_List_buy@U?$pair@$$CBV?$basic_string@_WU?$char_traits@_W@std@@V?$allocator@_W@2@@std@@V12@@std@@V?$allocator@U?$pair@$$CBV?$basic_string@_WU?$char_traits@_W@std@@V?$allocator@_W@2@@std@@V12@@std@@@2@@std@@QEAAPEAU?$_List_node@U?$pair@$$CBV?$basic_string@_WU?$char_traits@_W@std@@V?$allocator@_W@2@@std@@V12@@std@@PEAX@1@PEAU21@0AEAV?$basic_string@_WU?$char_traits@_W@std@@V?$allocator@_W@2@@1@1@Z@4HA 000000018002d2e0 f   deps_resolver.obj
 0001:0002c2ed       __catch$??$_Buynode@AEAV?$basic_string@_WU?$char_traits@_W@std@@V?$allocator@_W@2@@std@@AEAV12@@?$_List_buy@U?$pair@$$CBV?$basic_string@_WU?$char_traits@_W@std@@V?$allocator@_W@2@@std@@V12@@std@@V?$allocator@U?$pair@$$CBV?$basic_string@_WU?$char_traits@_W@std@@V?$allocator@_W@2@@std@@V12@@std@@@2@@std@@QEAAPEAU?$_List_node@U?$pair@$$CBV?$basic_string@_WU?$char_traits@_W@std@@V?$allocator@_W@2@@std@@V12@@std@@PEAX@1@PEAU21@0AEAV?$basic_string@_WU?$char_traits@_W@std@@V?$allocator@_W@2@@1@1@Z$0 000000018002d2ed f   deps_resolver.obj
 0001:0002c300       ?dtor$0@?0???$_Buynode@AEAV?$basic_string@_WU?$char_traits@_W@std@@V?$allocator@_W@2@@std@@AEAV12@@?$_List_buy@U?$pair@$$CBV?$basic_string@_WU?$char_traits@_W@std@@V?$allocator@_W@2@@std@@V12@@std@@V?$allocator@U?$pair@$$CBV?$basic_string@_WU?$char_traits@_W@std@@V?$allocator@_W@2@@std@@V12@@std@@@2@@std@@QEAAPEAU?$_List_node@U?$pair@$$CBV?$basic_string@_WU?$char_traits@_W@std@@V?$allocator@_W@2@@std@@V12@@std@@PEAX@1@PEAU21@0AEAV?$basic_string@_WU?$char_traits@_W@std@@V?$allocator@_W@2@@1@1@Z@4HA 000000018002d300 f   deps_resolver.obj
 0001:0002c310       ?catch$10@?0???$_Insert@AEBV?$basic_string@_WU?$char_traits@_W@std@@V?$allocator@_W@2@@std@@V?$_List_unchecked_const_iterator@V?$_List_val@U?$_List_simple_types@V?$basic_string@_WU?$char_traits@_W@std@@V?$allocator@_W@2@@std@@@std@@@std@@U_Iterator_base0@2@@2@@?$_Hash@V?$_Uset_traits@V?$basic_string@_WU?$char_traits@_W@std@@V?$allocator@_W@2@@std@@V?$_Uhash_compare@V?$basic_string@_WU?$char_traits@_W@std@@V?$allocator@_W@2@@std@@U?$hash@V?$basic_string@_WU?$char_traits@_W@std@@V?$allocator@_W@2@@std@@@2@U?$equal_to@V?$basic_string@_WU?$char_traits@_W@std@@V?$allocator@_W@2@@std@@@2@@2@V?$allocator@V?$basic_string@_WU?$char_traits@_W@std@@V?$allocator@_W@2@@std@@@2@$0A@@std@@@std@@IEAA?AU?$pair@V?$_List_const_iterator@V?$_List_val@U?$_List_simple_types@V?$basic_string@_WU?$char_traits@_W@std@@V?$allocator@_W@2@@std@@@std@@@std@@@std@@_N@1@AEBV?$basic_string@_WU?$char_traits@_W@std@@V?$allocator@_W@2@@1@V?$_List_unchecked_const_iterator@V?$_List_val@U?$_List_simple_types@V?$basic_string@_WU?$char_traits@_W@std@@V?$allocator@_W@2@@std@@@std@@@std@@U_Iterator_base0@2@@1@@Z@4HA 000000018002d310 f   deps_resolver.obj
 0001:0002c31d       __catch$??$_Insert@AEBV?$basic_string@_WU?$char_traits@_W@std@@V?$allocator@_W@2@@std@@V?$_List_unchecked_const_iterator@V?$_List_val@U?$_List_simple_types@V?$basic_string@_WU?$char_traits@_W@std@@V?$allocator@_W@2@@std@@@std@@@std@@U_Iterator_base0@2@@2@@?$_Hash@V?$_Uset_traits@V?$basic_string@_WU?$char_traits@_W@std@@V?$allocator@_W@2@@std@@V?$_Uhash_compare@V?$basic_string@_WU?$char_traits@_W@std@@V?$allocator@_W@2@@std@@U?$hash@V?$basic_string@_WU?$char_traits@_W@std@@V?$allocator@_W@2@@std@@@2@U?$equal_to@V?$basic_string@_WU?$char_traits@_W@std@@V?$allocator@_W@2@@std@@@2@@2@V?$allocator@V?$basic_string@_WU?$char_traits@_W@std@@V?$allocator@_W@2@@std@@@2@$0A@@std@@@std@@IEAA?AU?$pair@V?$_List_const_iterator@V?$_List_val@U?$_List_simple_types@V?$basic_string@_WU?$char_traits@_W@std@@V?$allocator@_W@2@@std@@@std@@@std@@@std@@_N@1@AEBV?$basic_string@_WU?$char_traits@_W@std@@V?$allocator@_W@2@@1@V?$_List_unchecked_const_iterator@V?$_List_val@U?$_List_simple_types@V?$basic_string@_WU?$char_traits@_W@std@@V?$allocator@_W@2@@std@@@std@@@std@@U_Iterator_base0@2@@1@@Z$2 000000018002d31d f   deps_resolver.obj
 0001:0002c350       ?catch$4@?0???$_Buynode@AEBUpiecewise_construct_t@std@@V?$tuple@AEBV?$basic_string@_WU?$char_traits@_W@std@@V?$allocator@_W@2@@std@@@2@V?$tuple@$$V@2@@?$_List_buy@U?$pair@$$CBV?$basic_string@_WU?$char_traits@_W@std@@V?$allocator@_W@2@@std@@V12@@std@@V?$allocator@U?$pair@$$CBV?$basic_string@_WU?$char_traits@_W@std@@V?$allocator@_W@2@@std@@V12@@std@@@2@@std@@QEAAPEAU?$_List_node@U?$pair@$$CBV?$basic_string@_WU?$char_traits@_W@std@@V?$allocator@_W@2@@std@@V12@@std@@PEAX@1@PEAU21@0AEBUpiecewise_construct_t@1@$$QEAV?$tuple@AEBV?$basic_string@_WU?$char_traits@_W@std@@V?$allocator@_W@2@@std@@@1@$$QEAV?$tuple@$$V@1@@Z@4HA 000000018002d350 f   deps_resolver.obj
 0001:0002c35d       __catch$??$_Buynode@AEBUpiecewise_construct_t@std@@V?$tuple@AEBV?$basic_string@_WU?$char_traits@_W@std@@V?$allocator@_W@2@@std@@@2@V?$tuple@$$V@2@@?$_List_buy@U?$pair@$$CBV?$basic_string@_WU?$char_traits@_W@std@@V?$allocator@_W@2@@std@@V12@@std@@V?$allocator@U?$pair@$$CBV?$basic_string@_WU?$char_traits@_W@std@@V?$allocator@_W@2@@std@@V12@@std@@@2@@std@@QEAAPEAU?$_List_node@U?$pair@$$CBV?$basic_string@_WU?$char_traits@_W@std@@V?$allocator@_W@2@@std@@V12@@std@@PEAX@1@PEAU21@0AEBUpiecewise_construct_t@1@$$QEAV?$tuple@AEBV?$basic_string@_WU?$char_traits@_W@std@@V?$allocator@_W@2@@std@@@1@$$QEAV?$tuple@$$V@1@@Z$0 000000018002d35d f   deps_resolver.obj
 0001:0002c370       ?catch$0@?0???$_Buynode@AEBV?$basic_string@_WU?$char_traits@_W@std@@V?$allocator@_W@2@@std@@@?$_List_buy@V?$basic_string@_WU?$char_traits@_W@std@@V?$allocator@_W@2@@std@@V?$allocator@V?$basic_string@_WU?$char_traits@_W@std@@V?$allocator@_W@2@@std@@@2@@std@@QEAAPEAU?$_List_node@V?$basic_string@_WU?$char_traits@_W@std@@V?$allocator@_W@2@@std@@PEAX@1@PEAU21@0AEBV?$basic_string@_WU?$char_traits@_W@std@@V?$allocator@_W@2@@1@@Z@4HA 000000018002d370 f   deps_resolver.obj
 0001:0002c37d       __catch$??$_Buynode@AEBV?$basic_string@_WU?$char_traits@_W@std@@V?$allocator@_W@2@@std@@@?$_List_buy@V?$basic_string@_WU?$char_traits@_W@std@@V?$allocator@_W@2@@std@@V?$allocator@V?$basic_string@_WU?$char_traits@_W@std@@V?$allocator@_W@2@@std@@@2@@std@@QEAAPEAU?$_List_node@V?$basic_string@_WU?$char_traits@_W@std@@V?$allocator@_W@2@@std@@PEAX@1@PEAU21@0AEBV?$basic_string@_WU?$char_traits@_W@std@@V?$allocator@_W@2@@1@@Z$0 000000018002d37d f   deps_resolver.obj
 0001:0002c390       ?dtor$4@?0???0arguments_t@@QEAA@XZ@4HA 000000018002d390 f   args.obj
 0001:0002c3b0       ?dtor$5@?0???0arguments_t@@QEAA@XZ@4HA 000000018002d3b0 f   args.obj
 0001:0002c3d0       ?dtor$2@?0??try_prerelease_roll_forward_in_dir@@YAXAEBV?$basic_string@_WU?$char_traits@_W@std@@V?$allocator@_W@2@@std@@AEBUfx_ver_t@@PEAV12@@Z@4HA 000000018002d3d0 f   libhost.obj
 0001:0002c3d0       ?dtor$2@?0??try_patch_roll_forward_in_dir@@YAXAEBV?$basic_string@_WU?$char_traits@_W@std@@V?$allocator@_W@2@@std@@AEBUfx_ver_t@@PEAV12@@Z@4HA 000000018002d3d0 f   libhost.obj
 0001:0002c3e0       ?dtor$4@?0??try_patch_roll_forward_in_dir@@YAXAEBV?$basic_string@_WU?$char_traits@_W@std@@V?$allocator@_W@2@@std@@AEBUfx_ver_t@@PEAV12@@Z@4HA 000000018002d3e0 f   libhost.obj
 0001:0002c3f0       ?dtor$12@?0??try_patch_roll_forward_in_dir@@YAXAEBV?$basic_string@_WU?$char_traits@_W@std@@V?$allocator@_W@2@@std@@AEBUfx_ver_t@@PEAV12@@Z@4HA 000000018002d3f0 f   libhost.obj
 0001:0002c400       ?dtor$4@?0??try_prerelease_roll_forward_in_dir@@YAXAEBV?$basic_string@_WU?$char_traits@_W@std@@V?$allocator@_W@2@@std@@AEBUfx_ver_t@@PEAV12@@Z@4HA 000000018002d400 f   libhost.obj
 0001:0002c410       ?dtor$12@?0??try_prerelease_roll_forward_in_dir@@YAXAEBV?$basic_string@_WU?$char_traits@_W@std@@V?$allocator@_W@2@@std@@AEBUfx_ver_t@@PEAV12@@Z@4HA 000000018002d410 f   libhost.obj
 0001:0002c420       ?dtor$0@?0???0runtime_config_t@@QEAA@AEBV?$basic_string@_WU?$char_traits@_W@std@@V?$allocator@_W@2@@std@@0@Z@4HA 000000018002d420 f   runtime_config.obj
